 line   address	contents
    1                      ; Linked by DLX-LD.
    2                      ; MemSize 102400
    3                      ; Data size: 36880
    4                      ; Text size: 47512
    5                      ; Stack size: 8192
    6  00000000          	.text 0x1000
    7  00001000          	.data 0xd000
    8                      ;;; 
    9                      ;;; Initialization code for programs running in the DLX simulator.
   10                      ;;; Copyright (c) 1999 by Ethan Miller
   11                      ;;; 
   12                      ;;;
   14  0000d000          	.text
   15  00001000          	.align 2
   17                      ;;;----------------------------------------------------------------------
   18                      ;;; osinit
   19                      ;;;
   20                      ;;; This is the first function called by the simulator, even before main.
   21                      ;;; Since it's called BEFORE any "real" routines, we can use any registers
   22                      ;;; we want as long as we don't mess up the stack or frame pointers.
   23                      ;;;
   24                      ;;; This routine loads the interrupt vector to point to the interrupt
   25                      ;;; handler later in this file.  It should never return, because _main
   26                      ;;; should call exitsim() or exit() rather than returning here.
   27                      ;;; 
   28                      ;;; After initialization is done, this routine jumps to _main to start the
   29                      ;;; C code portion of the operating system.
   30                      ;;;----------------------------------------------------------------------
   31  00001000          	.proc _osinit
   32  00001000          	.global _osinit
   33  00001000          	_osinit:
   34                      ;; Set up the interrupt handler
   35  00001000  3c010000	lhi	r1,(_intrhandler>>16)&0xffff
   36  00001004  24211010	addui	r1,r1,_intrhandler&0xffff
   37  00001008  00204030	movi2s	intrvec,r1
   38                      ;; Never returns because exitsim is called first
   39  0000100c  0800688c	j	_main
   40  00001010          	.endproc _osinit
   42                      ;;;----------------------------------------------------------------------
   43                      ;;; intrhandler
   44                      ;;;
   45                      ;;; Called when an interrupt or trap is received by the CPU.  It stores the
   46                      ;;; current register set on the system stack.  It then pushes the parameters
   47                      ;;; to the C interrupt handler onto the stack: the ISR, IAR, and CAUSE
   48                      ;;; registers along with the original stack pointer.  The C interrupt
   49                      ;;; handler can then copy arguments from the original stack, performing
   50                      ;;; user -> system translations if necessary.
   51                      ;;; 
   52                      ;;;----------------------------------------------------------------------
   53  00001010          	.proc _intrhandler
   54  00001010          	.global _intrhandler
   55  00001010          	_intrhandler:
   56                      ;; We can use r31 as scratch space because its value was saved in
   57                      ;; ir31.  However, we must save the "real" value of r31 on the
   58                      ;; stack.
   60                      ;; Always store the registers on the system stack.  This way, we don't
   61                      ;; have to worry about translating things from user -> system.  We
   62                      ;; use r31 as the base register because its value was saved in ir31.
   64                      ;; If this was a user process, load r29 with the current system
   65                      ;; stack pointer.  If it was a system process, just use the
   66                      ;; current stack pointer.
   67  00001010  0060f831	movs2i	r31,isr
   68  00001014  33ff0040	andi	r31,r31,0x40
   69  00001018  17e0001c	bnez	r31,intrSystem_LF0
   70  0000101c  3c1f0001	lhi	r31,(_currentPCB>>16)&0xffff
   71  00001020  27ff2018	addui	r31,r31,_currentPCB&0xffff
   72  00001024  8fff0000	lw	r31,(r31)
   73  00001028  8fff0004	lw	r31,4(r31)
   74                      ;; Save the original (user) stack pointer
   75  0000102c  affdff48	sw	-184(r31),r29; we haven't yet bumped SP, and 156-340 = -184
   76                      ;; Copy the system stack pointer into r29 (current stack pointer)
   77  00001030  37fd0000	ori	r29,r31,0
   78  00001034  10000004	beqz	r0,intrSaveReg_LF0; skip over the system part....
   79  00001038          	intrSystem_LF0:
   80                      ;; Use the stack pointer we're already using
   81                      ;; Save r29 because we won't save it later
   82  00001038  afbdff48	sw	-184(r29),r29; we haven't yet bumped SP, and 156-340 = -184
   83  0000103c          	intrSaveReg_LF0:
   84                      ;; Adjust stack pointer for all the stuff we're going to push.  This
   85                      ;; is a bit more space than we need currently, but it leaves room
   86                      ;; for more stuff if needed.
   87  0000103c  2fbd0154	subui	r29,r29,#340
   88                      ;; Push all the stuff onto the stack
   89  00001040  afa1002c	sw	44(r29),r1
   90  00001044  afa20030	sw	48(r29),r2
   91  00001048  afa30034	sw	52(r29),r3
   92  0000104c  afa40038	sw	56(r29),r4
   93  00001050  afa5003c	sw	60(r29),r5
   94  00001054  afa60040	sw	64(r29),r6
   95  00001058  afa70044	sw	68(r29),r7
   96  0000105c  afa80048	sw	72(r29),r8
   97  00001060  afa9004c	sw	76(r29),r9
   98  00001064  afaa0050	sw	80(r29),r10
   99  00001068  afab0054	sw	84(r29),r11
  100  0000106c  afac0058	sw	88(r29),r12
  101  00001070  afad005c	sw	92(r29),r13
  102  00001074  afae0060	sw	96(r29),r14
  103  00001078  afaf0064	sw	100(r29),r15
  104  0000107c  afb00068	sw	104(r29),r16
  105  00001080  afb1006c	sw	108(r29),r17
  106  00001084  afb20070	sw	112(r29),r18
  107  00001088  afb30074	sw	116(r29),r19
  108  0000108c  afb40078	sw	120(r29),r20
  109  00001090  afb5007c	sw	124(r29),r21
  110  00001094  afb60080	sw	128(r29),r22
  111  00001098  afb70084	sw	132(r29),r23
  112  0000109c  afb80088	sw	136(r29),r24
  113  000010a0  afb9008c	sw	140(r29),r25
  114  000010a4  afba0090	sw	144(r29),r26
  115  000010a8  afbb0094	sw	148(r29),r27
  116  000010ac  afbc0098	sw	152(r29),r28
  117                      ;; Skip r29 - stored earlier!
  118  000010b0  afbe00a0	sw	160(r29),r30
  119                      ;; Load the value of r31 from the special register and then save it
  120  000010b4  00401831	movs2i	r3,ir31
  121  000010b8  afa300a4	sw	164(r29),r3
  122                      ;; Store the floating-point registers
  123  000010bc  bfa000a8	sd	168(r29),f0
  124  000010c0  bfa200b0	sd	176(r29),f2
  125  000010c4  bfa400b8	sd	184(r29),f4
  126  000010c8  bfa600c0	sd	192(r29),f6
  127  000010cc  bfa800c8	sd	200(r29),f8
  128  000010d0  bfaa00d0	sd	208(r29),f10
  129  000010d4  bfac00d8	sd	216(r29),f12
  130  000010d8  bfae00e0	sd	224(r29),f14
  131  000010dc  bfb000e8	sd	232(r29),f16
  132  000010e0  bfb200f0	sd	240(r29),f18
  133  000010e4  bfb400f8	sd	248(r29),f20
  134  000010e8  bfb60100	sd	256(r29),f22
  135  000010ec  bfb80108	sd	264(r29),f24
  136  000010f0  bfba0110	sd	272(r29),f26
  137  000010f4  bfbc0118	sd	280(r29),f28
  138  000010f8  bfbe0120	sd	288(r29),f30
  139                      ;; NOTE: we don't save the interrupt vector register because it
  140                      ;; doesn't change from process to process.
  141                      ;; NOTE: we don't save the status register because most of the flags
  142                      ;; are the same from process to process if they're in the interrupt
  143                      ;; handler.  Of course, we DO save the ISR.
  144  000010fc  00802031	movs2i	r4,iar
  145  00001100  afa40128	sw	296(r29),r4
  146  00001104  00602831	movs2i	r5,isr
  147  00001108  afa5012c	sw	300(r29),r5
  148  0000110c  00c03031	movs2i	r6,cause
  149  00001110  afa60130	sw	304(r29),r6
  150  00001114  01201831	movs2i	r3,fault
  151  00001118  afa30134	sw	308(r29),r3
  152  0000111c  01801831	movs2i	r3,ptbase
  153  00001120  afa30138	sw	312(r29),r3
  154  00001124  01a01831	movs2i	r3,ptsize
  155  00001128  afa3013c	sw	316(r29),r3
  156  0000112c  01c01831	movs2i	r3,ptbits
  157  00001130  afa30140	sw	320(r29),r3
  159                      ;; Push the interrupt information onto the stack
  160  00001134  afa60000	sw	0(r29),r6; push CAUSE
  161  00001138  afa40004	sw	4(r29),r4; push IAR
  162  0000113c  afa50008	sw	8(r29),r5; push ISR
  163                      ;; Get the original stack pointer
  164  00001140  8fa1009c	lw	r1,156(r29)
  165  00001144  afa1000c	sw	12(r29),r1
  166                      ;; Save the previous interrupt stack frame address in the current frame
  167  00001148  3c010001	lhi	r1,(_currentPCB>>16)&0xffff
  168  0000114c  24212018	addui	r1,r1,_currentPCB&0xffff
  169  00001150  8c210000	lw	r1,(r1)
  170  00001154  8c220000	lw	r2,0(r1)
  171  00001158  afa20028	sw	40(r29),r2
  172                      ;; Save this frame address in the PCB.  This is used so the OS can
  173                      ;; easily access the current interrupt save frame
  174  0000115c  ac3d0000	sw	0(r1),r29
  175                      ;; Call the "real" interrupt handler.  This will possibly switch
  176                      ;; contexts.  This call never returns; instead, a separate routine
  177                      ;; (_intrreturn) is called to return from interrupts after restoring
  178                      ;; the current context.
  179  00001160  08009cf0	j	_dointerrupt
  180  00001164  54000000	nop
  181  00001168          	.endproc _intrhandler
  183                      ;;;----------------------------------------------------------------------
  184                      ;;; intrreturn
  185                      ;;;
  186                      ;;; Return from an interrupt or trap.  This restores all of the previously
  187                      ;;; saved registers and then returns to where the program left off.  The
  188                      ;;; current contents of the registers are destroyed.  This routine uses
  189                      ;;; the saved interrupt frame pointer, so the stack pointer need not
  190                      ;;; be correct.  Note, though, that the register contents from the previous
  191                      ;;; process must have previously been saved - in other words, call this
  192                      ;;; routine from a trap or interrupt handler.
  193                      ;;;----------------------------------------------------------------------
  194  00001168          	.proc _intrreturn
  195  00001168          	.global _intrreturn
  196  00001168          	_intrreturn:
  197                      ;; Disable interrupts - this routine must be atomic, and interrupts
  198                      ;; may not be currently disabled.  Don't worry about saving registers
  199                      ;; because we're about to reload them anyway.
  200  00001168  0c00b014	jal	_DisableIntrs
  201                      ;; Get our interrupt stack frame location and load it into the stack
  202                      ;; pointer.
  203  0000116c  3c010001	lhi	r1,(_currentPCB>>16)&0xffff
  204  00001170  24212018	addui	r1,r1,_currentPCB&0xffff
  205  00001174  8c210000	lw	r1,0(r1)
  206  00001178  8c3d0000	lw	r29,0(r1)
  207                      ;; Get the previous interrupt stack frame location and make it the
  208                      ;; current interrupt save frame.
  209  0000117c  8fa20028	lw	r2,40(r29)
  210  00001180  ac220000	sw	0(r1),r2
  212                      ;; Reload the registers for the new process.  We don't have to
  213                      ;; load in the exact opposite order as long as we're careful to
  214                      ;; get the right values back in.
  215  00001184  8fa30128	lw	r3,296(r29)
  216  00001188  00602030	movi2s	iar,r3
  217  0000118c  8fa3012c	lw	r3,300(r29)
  218  00001190  00601830	movi2s	isr,r3
  219  00001194  8fa30130	lw	r3,304(r29)
  220  00001198  00603030	movi2s	cause,r3
  221  0000119c  8fa30134	lw	r3,308(r29)
  222  000011a0  00604830	movi2s	fault,r3
  223  000011a4  8fa30138	lw	r3,312(r29)
  224  000011a8  00606030	movi2s	ptbase,r3
  225  000011ac  8fa3013c	lw	r3,316(r29)
  226  000011b0  00606830	movi2s	ptsize,r3
  227  000011b4  8fa30140	lw	r3,320(r29)
  228  000011b8  00607030	movi2s	ptbits,r3
  230                      ;; Reload the floating point registers
  231  000011bc  9fa000a8	ld	f0,168(r29)
  232  000011c0  9fa200b0	ld	f2,176(r29)
  233  000011c4  9fa400b8	ld	f4,184(r29)
  234  000011c8  9fa600c0	ld	f6,192(r29)
  235  000011cc  9fa800c8	ld	f8,200(r29)
  236  000011d0  9faa00d0	ld	f10,208(r29)
  237  000011d4  9fac00d8	ld	f12,216(r29)
  238  000011d8  9fae00e0	ld	f14,224(r29)
  239  000011dc  9fb000e8	ld	f16,232(r29)
  240  000011e0  9fb200f0	ld	f18,240(r29)
  241  000011e4  9fb400f8	ld	f20,248(r29)
  242  000011e8  9fb60100	ld	f22,256(r29)
  243  000011ec  9fb80108	ld	f24,264(r29)
  244  000011f0  9fba0110	ld	f26,272(r29)
  245  000011f4  9fbc0118	ld	f28,280(r29)
  246  000011f8  9fbe0120	ld	f30,288(r29)
  248                      ;; Reload the integer registers.  We don't reload r0 because it's
  249                      ;; always 0.  We won't reload r29 here because we're using it as
  250                      ;; the stack pointer.  The same goes for r1, which we'll use as
  251                      ;; scratch so we can store r29.
  252                      ;; Skip r1 - restored later
  253  000011fc  8fa20030	lw	r2,48(r29)
  254  00001200  8fa30034	lw	r3,52(r29)
  255  00001204  8fa40038	lw	r4,56(r29)
  256  00001208  8fa5003c	lw	r5,60(r29)
  257  0000120c  8fa60040	lw	r6,64(r29)
  258  00001210  8fa70044	lw	r7,68(r29)
  259  00001214  8fa80048	lw	r8,72(r29)
  260  00001218  8fa9004c	lw	r9,76(r29)
  261  0000121c  8faa0050	lw	r10,80(r29)
  262  00001220  8fab0054	lw	r11,84(r29)
  263  00001224  8fac0058	lw	r12,88(r29)
  264  00001228  8fad005c	lw	r13,92(r29)
  265  0000122c  8fae0060	lw	r14,96(r29)
  266  00001230  8faf0064	lw	r15,100(r29)
  267  00001234  8fb00068	lw	r16,104(r29)
  268  00001238  8fb1006c	lw	r17,108(r29)
  269  0000123c  8fb20070	lw	r18,112(r29)
  270  00001240  8fb30074	lw	r19,116(r29)
  271  00001244  8fb40078	lw	r20,120(r29)
  272  00001248  8fb5007c	lw	r21,124(r29)
  273  0000124c  8fb60080	lw	r22,128(r29)
  274  00001250  8fb70084	lw	r23,132(r29)
  275  00001254  8fb80088	lw	r24,136(r29)
  276  00001258  8fb9008c	lw	r25,140(r29)
  277  0000125c  8fba0090	lw	r26,144(r29)
  278  00001260  8fbb0094	lw	r27,148(r29)
  279  00001264  8fbc0098	lw	r28,152(r29)
  280                      ;; Skip r29 - restored later
  281  00001268  8fbe00a0	lw	r30,160(r29)
  282  0000126c  8fbf00a4	lw	r31,164(r29)
  284  00001270  27bd0154	addui	r29,r29,#340
  285                      ;; Save the current value of the stack pointer after adjusting it
  286                      ;; Note that this will "destroy" the stack values below this interrupt
  287                      ;; stack frame.  This is exactly what we want!
  288  00001274  ac3d0004	sw	4(r1),r29
  289  00001278  37a10000	ori	r1,r29,#0
  290  0000127c  8c3dff48	lw	r29,-184(r1); 156-340 = -184
  291  00001280  8c21fed8	lw	r1,-296(r1); 44-340 = -296
  292  00001284  40000000	rfe
  293  00001288          	.endproc _intrreturn
  295                      ;;;----------------------------------------------------------------------
  296                      ;;; SetIntrs
  297                      ;;;
  298                      ;;; This routine sets the interrupt level to the value passed (0 -> all
  299                      ;;; interrupts enabled; 0xf -> all interrupts disabled).  It returns the
  300                      ;;; former value for the interrupt flags.
  301                      ;;;----------------------------------------------------------------------
  302  00001288          	.proc _SetIntrs
  303  00001288          	.global _SetIntrs
  304  00001288          	_SetIntrs:
  305  00001288  2fbd0010	subui	r29,r29,#16
  306  0000128c  afa2000c	sw	12(r29),r2; save r2
  307  00001290  8fa20010	lw	r2,16(r29); Get the new interrupt level
  308  00001294  3042000f	andi	r2,r2,#0x0f; Mask off interrupt levels
  309  00001298  00a00831	movs2i	r1,status
  310  0000129c  afa10008	sw	8(r29),r1; Store the old interrupt values
  311  000012a0  3021fff0	andi	r1,r1,#0xfff0; Mask off old interrupt level
  312  000012a4  00410825	or	r1,r2,r1; OR in new interrupt level
  313  000012a8  00202830	movi2s	status,r1
  314  000012ac  8fa10008	lw	r1,8(r29); Get back the original interrupt level
  315  000012b0  3021000f	andi	r1,r1,#0x0f; Mask off all but interrupt levels
  316  000012b4  8fa2000c	lw	r2,12(r29); restore r2
  317  000012b8  27bd0010	addui	r29,r29,#16; restore stack pointer
  318  000012bc  4be00000	jr	r31
  319  000012c0  54000000	nop
  320  000012c4          	.endproc _SetIntrs
  322  000012c4          	.proc _CurrentIntrs
  323  000012c4          	.global _CurrentIntrs
  324  000012c4          	_CurrentIntrs:
  325  000012c4  00a00831	movs2i	r1,status
  326  000012c8  3021000f	andi	r1,r1,#0xf
  327  000012cc  4be00000	jr	r31
  328  000012d0  54000000	nop
  329  000012d4          	.endproc _CurrentIntrs
  330                      ;;;----------------------------------------------------------------------
  331                      ;;; _ProcessSleep
  332                      ;;;
  333                      ;;; If a context switch from elsewhere in the kernel is desired, take a
  334                      ;;; trap and call this routine from the trap handler.
  335                      ;;;----------------------------------------------------------------------
  336  000012d4          	.proc _ProcessSleep
  337  000012d4          	.global _ProcessSleep
  338  000012d4          	_ProcessSleep:
  339  000012d4  44000410	trap	#0x410; This is a process sleep trap
  340  000012d8  54000000	nop
  341  000012dc  4be00000	jr	r31
  342  000012e0  54000000	nop
  343  000012e4          	.endproc _ProcessSleep
  344                      ;
  345                      ; Stub functions for DLX traps.
  346                      ;
  347                      ; Aaron Sawdey 1996; released to the Public Domain.
  348                      ;
  350  000012e4          	.align 2
  351  000012e4          	.proc _random
  352  000012e4          	.global _random
  353  000012e4          	_random:
  354  000012e4  44002020	trap	#0x2020
  355  000012e8  4be00000	jr	r31
  356  000012ec  54000000	nop
  357  000012f0          	.endproc _random
  359  000012f0          	.proc _srandom
  360  000012f0          	.global _srandom
  361  000012f0          	_srandom:
  362  000012f0  44002021	trap	#0x2021
  363  000012f4  4be00000	jr	r31
  364  000012f8  54000000	nop
  365  000012fc          	.endproc _srandom
  367                      ; Compiled by GCC
  369  000012fc          	.align 2
  370  000012fc          	.proc _isspace
  371  000012fc          	.global _isspace
  372  000012fc          	_isspace:
  373                      ;  Function 'isspace'; 0 bytes of locals, 1 regs to save.
  374  000012fc  afbefffc	sw	-4(r29),r30; push fp
  375  00001300  001df020	add	r30,r0,r29; fp = sp
  376  00001304  afbffff8	sw	-8(r29),r31; push ret addr
  377  00001308  2fbd0010	subui	r29,r29,#16; alloc local storage
  378  0000130c  afa20000	sw	0(r29),r2
  379  00001310  83c20003	lb	r2,3(r30)
  380  00001314  201f0000	addi	r31,r0,#0
  381  00001318  304100ff	andi	r1,r2,#0x00ff
  382  0000131c  60210020	seqi	r1,r1,#32
  383  00001320  14200018	bnez	r1,L6_LF2
  384  00001324  54000000	nop; not filled.
  385  00001328  2041fff7	addi	r1,r2,#-9
  386  0000132c  302100ff	andi	r1,r1,#0x00ff
  387  00001330  70210001	sleui	r1,r1,#1
  388  00001334  10200008	beqz	r1,L5_LF2
  389  00001338  54000000	nop; not filled.
  390  0000133c          	L6_LF2:
  391  0000133c  201f0001	addi	r31,r0,#1
  392  00001340          	L5_LF2:
  393  00001340  001f0820	add	r1,r0,r31
  394  00001344  8fa20000	lw	r2,0(r29)
  395  00001348  8fdffff8	lw	r31,-8(r30)
  396  0000134c  001ee820	add	r29,r0,r30
  397  00001350  8fdefffc	lw	r30,-4(r30)
  398  00001354  4be00000	jr	r31
  399  00001358  54000000	nop
  400  0000135c          	.endproc _isspace
  401  0000135c          	.align 2
  402  0000135c          	.proc _isxdigit
  403  0000135c          	.global _isxdigit
  404  0000135c          	_isxdigit:
  405                      ;  Function 'isxdigit'; 0 bytes of locals, 1 regs to save.
  406  0000135c  afbefffc	sw	-4(r29),r30; push fp
  407  00001360  001df020	add	r30,r0,r29; fp = sp
  408  00001364  afbffff8	sw	-8(r29),r31; push ret addr
  409  00001368  2fbd0010	subui	r29,r29,#16; alloc local storage
  410  0000136c  afa20000	sw	0(r29),r2
  411  00001370  83df0003	lb	r31,3(r30)
  412  00001374  20020000	addi	r2,r0,#0
  413  00001378  23e1ffd0	addi	r1,r31,#-48
  414  0000137c  302100ff	andi	r1,r1,#0x00ff
  415  00001380  70210009	sleui	r1,r1,#9
  416  00001384  14200028	bnez	r1,L12_LF2
  417  00001388  54000000	nop; not filled.
  418  0000138c  23e1ff9f	addi	r1,r31,#-97
  419  00001390  302100ff	andi	r1,r1,#0x00ff
  420  00001394  70210005	sleui	r1,r1,#5
  421  00001398  14200014	bnez	r1,L12_LF2
  422  0000139c  54000000	nop; not filled.
  423  000013a0  33e100ff	andi	r1,r31,#0x00ff
  424  000013a4  64210041	snei	r1,r1,#65
  425  000013a8  14200008	bnez	r1,L11_LF2
  426  000013ac  54000000	nop; not filled.
  427  000013b0          	L12_LF2:
  428  000013b0  20020001	addi	r2,r0,#1
  429  000013b4          	L11_LF2:
  430  000013b4  00020820	add	r1,r0,r2
  431  000013b8  8fa20000	lw	r2,0(r29)
  432  000013bc  8fdffff8	lw	r31,-8(r30)
  433  000013c0  001ee820	add	r29,r0,r30
  434  000013c4  8fdefffc	lw	r30,-4(r30)
  435  000013c8  4be00000	jr	r31
  436  000013cc  54000000	nop
  437  000013d0          	.endproc _isxdigit
  438  000013d0          	.align 2
  439  000013d0          	.proc _DisableIntrs
  440  000013d0          	.global _DisableIntrs
  441  000013d0          	_DisableIntrs:
  442                      ;  Function 'DisableIntrs'; 0 bytes of locals, 1 regs to save.
  443  000013d0  afbefffc	sw	-4(r29),r30; push fp
  444  000013d4  001df020	add	r30,r0,r29; fp = sp
  445  000013d8  afbffff8	sw	-8(r29),r31; push ret addr
  446  000013dc  2fbd0010	subui	r29,r29,#16; alloc local storage
  447  000013e0  afa20000	sw	0(r29),r2
  448  000013e4  23bdfff8	addi	r29,r29,#-8
  449  000013e8  2002000f	addi	r2,r0,#15
  450  000013ec  afa20000	sw	(r29),r2
  451  000013f0  0ffffe94	jal	_SetIntrs
  452  000013f4  54000000	nop; not filled.
  453  000013f8  23bd0008	addi	r29,r29,#8
  454  000013fc  8fa20000	lw	r2,0(r29)
  455  00001400  8fdffff8	lw	r31,-8(r30)
  456  00001404  001ee820	add	r29,r0,r30
  457  00001408  8fdefffc	lw	r30,-4(r30)
  458  0000140c  4be00000	jr	r31
  459  00001410  54000000	nop
  460  00001414          	.endproc _DisableIntrs
  461  00001414          	.align 2
  462  00001414          	.proc _EnableIntrs
  463  00001414          	.global _EnableIntrs
  464  00001414          	_EnableIntrs:
  465                      ;  Function 'EnableIntrs'; 0 bytes of locals, 1 regs to save.
  466  00001414  afbefffc	sw	-4(r29),r30; push fp
  467  00001418  001df020	add	r30,r0,r29; fp = sp
  468  0000141c  afbffff8	sw	-8(r29),r31; push ret addr
  469  00001420  2fbd0010	subui	r29,r29,#16; alloc local storage
  470  00001424  afa20000	sw	0(r29),r2
  471  00001428  23bdfff8	addi	r29,r29,#-8
  472  0000142c  20020000	addi	r2,r0,#0
  473  00001430  afa20000	sw	(r29),r2
  474  00001434  0ffffe50	jal	_SetIntrs
  475  00001438  54000000	nop; not filled.
  476  0000143c  23bd0008	addi	r29,r29,#8
  477  00001440  8fa20000	lw	r2,0(r29)
  478  00001444  8fdffff8	lw	r31,-8(r30)
  479  00001448  001ee820	add	r29,r0,r30
  480  0000144c  8fdefffc	lw	r30,-4(r30)
  481  00001450  4be00000	jr	r31
  482  00001454  54000000	nop
  483  00001458          	.endproc _EnableIntrs
  484  00001458          	.align 2
  485  00001458          	.proc _RestoreIntrs
  486  00001458          	.global _RestoreIntrs
  487  00001458          	_RestoreIntrs:
  488                      ;  Function 'RestoreIntrs'; 0 bytes of locals, 1 regs to save.
  489  00001458  afbefffc	sw	-4(r29),r30; push fp
  490  0000145c  001df020	add	r30,r0,r29; fp = sp
  491  00001460  afbffff8	sw	-8(r29),r31; push ret addr
  492  00001464  2fbd0010	subui	r29,r29,#16; alloc local storage
  493  00001468  afa20000	sw	0(r29),r2
  494  0000146c  23bdfff8	addi	r29,r29,#-8
  495  00001470  8fc20000	lw	r2,(r30)
  496  00001474  afa20000	sw	(r29),r2
  497  00001478  0ffffe0c	jal	_SetIntrs
  498  0000147c  54000000	nop; not filled.
  499  00001480  23bd0008	addi	r29,r29,#8
  500  00001484  8fa20000	lw	r2,0(r29)
  501  00001488  8fdffff8	lw	r31,-8(r30)
  502  0000148c  001ee820	add	r29,r0,r30
  503  00001490  8fdefffc	lw	r30,-4(r30)
  504  00001494  4be00000	jr	r31
  505  00001498  54000000	nop
  506  0000149c          	.endproc _RestoreIntrs
  507  0000149c          	.align 2
  508  0000149c          	.proc _QueueLinkInit
  509  0000149c          	.global _QueueLinkInit
  510  0000149c          	_QueueLinkInit:
  511                      ;  Function 'QueueLinkInit'; 0 bytes of locals, 1 regs to save.
  512  0000149c  afbefffc	sw	-4(r29),r30; push fp
  513  000014a0  001df020	add	r30,r0,r29; fp = sp
  514  000014a4  afbffff8	sw	-8(r29),r31; push ret addr
  515  000014a8  2fbd0010	subui	r29,r29,#16; alloc local storage
  516  000014ac  afa20000	sw	0(r29),r2
  517  000014b0  8fc10000	lw	r1,(r30)
  518  000014b4  8fc20004	lw	r2,4(r30)
  519  000014b8  201f0000	addi	r31,r0,#0
  520  000014bc  ac3f0000	sw	(r1),r31
  521  000014c0  ac22000c	sw	12(r1),r2
  522  000014c4  8fa20000	lw	r2,0(r29)
  523  000014c8  8fdffff8	lw	r31,-8(r30)
  524  000014cc  001ee820	add	r29,r0,r30
  525  000014d0  8fdefffc	lw	r30,-4(r30)
  526  000014d4  4be00000	jr	r31
  527  000014d8  54000000	nop
  528  000014dc          	.endproc _QueueLinkInit
  529  000014dc          	.align 2
  530  000014dc          	.proc _QueueNext
  531  000014dc          	.global _QueueNext
  532  000014dc          	_QueueNext:
  533                      ;  Function 'QueueNext'; 0 bytes of locals, 0 regs to save.
  534  000014dc  afbefffc	sw	-4(r29),r30; push fp
  535  000014e0  001df020	add	r30,r0,r29; fp = sp
  536  000014e4  afbffff8	sw	-8(r29),r31; push ret addr
  537  000014e8  2fbd0008	subui	r29,r29,#8; alloc local storage
  538  000014ec  8fc10000	lw	r1,(r30)
  539  000014f0  8c210000	lw	r1,(r1)
  540  000014f4  8fdffff8	lw	r31,-8(r30)
  541  000014f8  001ee820	add	r29,r0,r30
  542  000014fc  8fdefffc	lw	r30,-4(r30)
  543  00001500  4be00000	jr	r31
  544  00001504  54000000	nop
  545  00001508          	.endproc _QueueNext
  546  00001508          	.align 2
  547  00001508          	.proc _QueuePrev
  548  00001508          	.global _QueuePrev
  549  00001508          	_QueuePrev:
  550                      ;  Function 'QueuePrev'; 0 bytes of locals, 0 regs to save.
  551  00001508  afbefffc	sw	-4(r29),r30; push fp
  552  0000150c  001df020	add	r30,r0,r29; fp = sp
  553  00001510  afbffff8	sw	-8(r29),r31; push ret addr
  554  00001514  2fbd0008	subui	r29,r29,#8; alloc local storage
  555  00001518  8fc10000	lw	r1,(r30)
  556  0000151c  8c210004	lw	r1,4(r1)
  557  00001520  8fdffff8	lw	r31,-8(r30)
  558  00001524  001ee820	add	r29,r0,r30
  559  00001528  8fdefffc	lw	r30,-4(r30)
  560  0000152c  4be00000	jr	r31
  561  00001530  54000000	nop
  562  00001534          	.endproc _QueuePrev
  563  00001534          	.align 2
  564  00001534          	.proc _QueueFirst
  565  00001534          	.global _QueueFirst
  566  00001534          	_QueueFirst:
  567                      ;  Function 'QueueFirst'; 0 bytes of locals, 0 regs to save.
  568  00001534  afbefffc	sw	-4(r29),r30; push fp
  569  00001538  001df020	add	r30,r0,r29; fp = sp
  570  0000153c  afbffff8	sw	-8(r29),r31; push ret addr
  571  00001540  2fbd0008	subui	r29,r29,#8; alloc local storage
  572  00001544  8fc10000	lw	r1,(r30)
  573  00001548  8c210000	lw	r1,(r1)
  574  0000154c  8fdffff8	lw	r31,-8(r30)
  575  00001550  001ee820	add	r29,r0,r30
  576  00001554  8fdefffc	lw	r30,-4(r30)
  577  00001558  4be00000	jr	r31
  578  0000155c  54000000	nop
  579  00001560          	.endproc _QueueFirst
  580  00001560          	.align 2
  581  00001560          	.proc _QueueLast
  582  00001560          	.global _QueueLast
  583  00001560          	_QueueLast:
  584                      ;  Function 'QueueLast'; 0 bytes of locals, 0 regs to save.
  585  00001560  afbefffc	sw	-4(r29),r30; push fp
  586  00001564  001df020	add	r30,r0,r29; fp = sp
  587  00001568  afbffff8	sw	-8(r29),r31; push ret addr
  588  0000156c  2fbd0008	subui	r29,r29,#8; alloc local storage
  589  00001570  8fc10000	lw	r1,(r30)
  590  00001574  8c210004	lw	r1,4(r1)
  591  00001578  8fdffff8	lw	r31,-8(r30)
  592  0000157c  001ee820	add	r29,r0,r30
  593  00001580  8fdefffc	lw	r30,-4(r30)
  594  00001584  4be00000	jr	r31
  595  00001588  54000000	nop
  596  0000158c          	.endproc _QueueLast
  597  0000158c          	.align 2
  598  0000158c          	.proc _QueueInsertAfter
  599  0000158c          	.global _QueueInsertAfter
  600  0000158c          	_QueueInsertAfter:
  601                      ;  Function 'QueueInsertAfter'; 0 bytes of locals, 2 regs to save.
  602  0000158c  afbefffc	sw	-4(r29),r30; push fp
  603  00001590  001df020	add	r30,r0,r29; fp = sp
  604  00001594  afbffff8	sw	-8(r29),r31; push ret addr
  605  00001598  2fbd0010	subui	r29,r29,#16; alloc local storage
  606  0000159c  afa20000	sw	0(r29),r2
  607  000015a0  afa30004	sw	4(r29),r3
  608  000015a4  8fc30000	lw	r3,(r30)
  609  000015a8  8fc20004	lw	r2,4(r30)
  610  000015ac  8fc10008	lw	r1,8(r30)
  611  000015b0  ac230008	sw	8(r1),r3
  612  000015b4  ac220004	sw	4(r1),r2
  613  000015b8  8c5f0000	lw	r31,(r2)
  614  000015bc  ac3f0000	sw	(r1),r31
  615  000015c0  ac410000	sw	(r2),r1
  616  000015c4  8c220000	lw	r2,(r1)
  617  000015c8  ac410004	sw	4(r2),r1
  618  000015cc  8c610008	lw	r1,8(r3)
  619  000015d0  20210001	addi	r1,r1,#1
  620  000015d4  ac610008	sw	8(r3),r1
  621  000015d8  8fa20000	lw	r2,0(r29)
  622  000015dc  8fa30004	lw	r3,4(r29)
  623  000015e0  8fdffff8	lw	r31,-8(r30)
  624  000015e4  001ee820	add	r29,r0,r30
  625  000015e8  8fdefffc	lw	r30,-4(r30)
  626  000015ec  4be00000	jr	r31
  627  000015f0  54000000	nop
  628  000015f4          	.endproc _QueueInsertAfter
  629  000015f4          	.align 2
  630  000015f4          	.proc _QueueInsertFirst
  631  000015f4          	.global _QueueInsertFirst
  632  000015f4          	_QueueInsertFirst:
  633                      ;  Function 'QueueInsertFirst'; 0 bytes of locals, 2 regs to save.
  634  000015f4  afbefffc	sw	-4(r29),r30; push fp
  635  000015f8  001df020	add	r30,r0,r29; fp = sp
  636  000015fc  afbffff8	sw	-8(r29),r31; push ret addr
  637  00001600  2fbd0010	subui	r29,r29,#16; alloc local storage
  638  00001604  afa20000	sw	0(r29),r2
  639  00001608  afa30004	sw	4(r29),r3
  640  0000160c  8fc30000	lw	r3,(r30)
  641  00001610  8fc10004	lw	r1,4(r30)
  642  00001614  ac230008	sw	8(r1),r3
  643  00001618  ac230004	sw	4(r1),r3
  644  0000161c  8c7f0000	lw	r31,(r3)
  645  00001620  ac3f0000	sw	(r1),r31
  646  00001624  ac610000	sw	(r3),r1
  647  00001628  8c220000	lw	r2,(r1)
  648  0000162c  ac410004	sw	4(r2),r1
  649  00001630  8c610008	lw	r1,8(r3)
  650  00001634  20210001	addi	r1,r1,#1
  651  00001638  ac610008	sw	8(r3),r1
  652  0000163c  8fa20000	lw	r2,0(r29)
  653  00001640  8fa30004	lw	r3,4(r29)
  654  00001644  8fdffff8	lw	r31,-8(r30)
  655  00001648  001ee820	add	r29,r0,r30
  656  0000164c  8fdefffc	lw	r30,-4(r30)
  657  00001650  4be00000	jr	r31
  658  00001654  54000000	nop
  659  00001658          	.endproc _QueueInsertFirst
  660  00001658          	.align 2
  661  00001658          	.proc _QueueInsertLast
  662  00001658          	.global _QueueInsertLast
  663  00001658          	_QueueInsertLast:
  664                      ;  Function 'QueueInsertLast'; 0 bytes of locals, 2 regs to save.
  665  00001658  afbefffc	sw	-4(r29),r30; push fp
  666  0000165c  001df020	add	r30,r0,r29; fp = sp
  667  00001660  afbffff8	sw	-8(r29),r31; push ret addr
  668  00001664  2fbd0010	subui	r29,r29,#16; alloc local storage
  669  00001668  afa20000	sw	0(r29),r2
  670  0000166c  afa30004	sw	4(r29),r3
  671  00001670  8fc30000	lw	r3,(r30)
  672  00001674  8fc10004	lw	r1,4(r30)
  673  00001678  8c620004	lw	r2,4(r3)
  674  0000167c  ac230008	sw	8(r1),r3
  675  00001680  ac220004	sw	4(r1),r2
  676  00001684  8c5f0000	lw	r31,(r2)
  677  00001688  ac3f0000	sw	(r1),r31
  678  0000168c  ac410000	sw	(r2),r1
  679  00001690  8c220000	lw	r2,(r1)
  680  00001694  ac410004	sw	4(r2),r1
  681  00001698  8c610008	lw	r1,8(r3)
  682  0000169c  20210001	addi	r1,r1,#1
  683  000016a0  ac610008	sw	8(r3),r1
  684  000016a4  8fa20000	lw	r2,0(r29)
  685  000016a8  8fa30004	lw	r3,4(r29)
  686  000016ac  8fdffff8	lw	r31,-8(r30)
  687  000016b0  001ee820	add	r29,r0,r30
  688  000016b4  8fdefffc	lw	r30,-4(r30)
  689  000016b8  4be00000	jr	r31
  690  000016bc  54000000	nop
  691  000016c0          	.endproc _QueueInsertLast
  692  000016c0          	.align 2
  693  000016c0          	.proc _QueueRemove
  694  000016c0          	.global _QueueRemove
  695  000016c0          	_QueueRemove:
  696                      ;  Function 'QueueRemove'; 0 bytes of locals, 2 regs to save.
  697  000016c0  afbefffc	sw	-4(r29),r30; push fp
  698  000016c4  001df020	add	r30,r0,r29; fp = sp
  699  000016c8  afbffff8	sw	-8(r29),r31; push ret addr
  700  000016cc  2fbd0010	subui	r29,r29,#16; alloc local storage
  701  000016d0  afa20000	sw	0(r29),r2
  702  000016d4  afa30004	sw	4(r29),r3
  703  000016d8  8fdf0000	lw	r31,(r30)
  704  000016dc  8fe10008	lw	r1,8(r31)
  705  000016e0  8c210008	lw	r1,8(r1)
  706  000016e4  6c210000	sgti	r1,r1,#0
  707  000016e8  1020002c	beqz	r1,L44_LF2
  708  000016ec  54000000	nop; not filled.
  709  000016f0  8fe10004	lw	r1,4(r31)
  710  000016f4  8fe30000	lw	r3,(r31)
  711  000016f8  ac230000	sw	(r1),r3
  712  000016fc  8fe10000	lw	r1,(r31)
  713  00001700  8fe30004	lw	r3,4(r31)
  714  00001704  ac230004	sw	4(r1),r3
  715  00001708  8fe20008	lw	r2,8(r31)
  716  0000170c  8c410008	lw	r1,8(r2)
  717  00001710  2021ffff	addi	r1,r1,#-1
  718  00001714  ac410008	sw	8(r2),r1
  719  00001718          	L44_LF2:
  720  00001718  20030000	addi	r3,r0,#0
  721  0000171c  afe30000	sw	(r31),r3
  722  00001720  8fa20000	lw	r2,0(r29)
  723  00001724  8fa30004	lw	r3,4(r29)
  724  00001728  8fdffff8	lw	r31,-8(r30)
  725  0000172c  001ee820	add	r29,r0,r30
  726  00001730  8fdefffc	lw	r30,-4(r30)
  727  00001734  4be00000	jr	r31
  728  00001738  54000000	nop
  729  0000173c          	.endproc _QueueRemove
  730  0000173c          	.align 2
  731  0000173c          	.proc _QueueLength
  732  0000173c          	.global _QueueLength
  733  0000173c          	_QueueLength:
  734                      ;  Function 'QueueLength'; 0 bytes of locals, 0 regs to save.
  735  0000173c  afbefffc	sw	-4(r29),r30; push fp
  736  00001740  001df020	add	r30,r0,r29; fp = sp
  737  00001744  afbffff8	sw	-8(r29),r31; push ret addr
  738  00001748  2fbd0008	subui	r29,r29,#8; alloc local storage
  739  0000174c  8fc10000	lw	r1,(r30)
  740  00001750  8c210008	lw	r1,8(r1)
  741  00001754  8fdffff8	lw	r31,-8(r30)
  742  00001758  001ee820	add	r29,r0,r30
  743  0000175c  8fdefffc	lw	r30,-4(r30)
  744  00001760  4be00000	jr	r31
  745  00001764  54000000	nop
  746  00001768          	.endproc _QueueLength
  747  00001768          	.align 2
  748  00001768          	.proc _QueueEmpty
  749  00001768          	.global _QueueEmpty
  750  00001768          	_QueueEmpty:
  751                      ;  Function 'QueueEmpty'; 0 bytes of locals, 0 regs to save.
  752  00001768  afbefffc	sw	-4(r29),r30; push fp
  753  0000176c  001df020	add	r30,r0,r29; fp = sp
  754  00001770  afbffff8	sw	-8(r29),r31; push ret addr
  755  00001774  2fbd0008	subui	r29,r29,#8; alloc local storage
  756  00001778  8fc10000	lw	r1,(r30)
  757  0000177c  8c210008	lw	r1,8(r1)
  758  00001780  60210000	seqi	r1,r1,#0
  759  00001784  8fdffff8	lw	r31,-8(r30)
  760  00001788  001ee820	add	r29,r0,r30
  761  0000178c  8fdefffc	lw	r30,-4(r30)
  762  00001790  4be00000	jr	r31
  763  00001794  54000000	nop
  764  00001798          	.endproc _QueueEmpty
  765  00001798          	.data
  766  0000d000          	.align 2
  767  0000d000          	LC0_LF2:
  768  0000d000  456e7465	.ascii "Entering ProcessModuleInit\n\000"
  768  0000d004  72696e67	
  768  0000d008  2050726f	
  768  0000d00c  63657373	
  768  0000d010  4d6f6475	
  768  0000d014  6c65496e	
  768  0000d018  69740a00	
  769  0000d01c          	.align 2
  770  0000d01c          	LC1_LF2:
  771  0000d01c  4c656176	.ascii "Leaving ProcessModuleInit\n\000"
  771  0000d020  696e6720	
  771  0000d024  50726f63	
  771  0000d028  6573734d	
  771  0000d02c  6f64756c	
  771  0000d030  65496e69	
  771  0000d034  740a00  	
  772  0000d037          	.text
  773  00001798          	.align 2
  774  00001798          	.proc _ShareModuleInit
  775  00001798          	.global _ShareModuleInit
  776  00001798          	_ShareModuleInit:
  777                      ;  Function 'ShareModuleInit'; 0 bytes of locals, 4 regs to save.
  778  00001798  afbefffc	sw	-4(r29),r30; push fp
  779  0000179c  001df020	add	r30,r0,r29; fp = sp
  780  000017a0  afbffff8	sw	-8(r29),r31; push ret addr
  781  000017a4  2fbd0018	subui	r29,r29,#24; alloc local storage
  782  000017a8  afa20000	sw	0(r29),r2
  783  000017ac  afa30004	sw	4(r29),r3
  784  000017b0  afa40008	sw	8(r29),r4
  785  000017b4  afa5000c	sw	12(r29),r5
  786  000017b8  23bdfff8	addi	r29,r29,#-8
  787  000017bc  3c020001	lhi	r2,((_debugstr)>>16)&0xffff
  788  000017c0  24421f50	addui	r2,r2,(_debugstr)&0xffff
  789  000017c4  afa20000	sw	(r29),r2
  790  000017c8  20050070	addi	r5,r0,#112
  791  000017cc  afa50004	sw	4(r29),r5
  792  000017d0  0c003264	jal	_dindex
  793  000017d4  54000000	nop; not filled.
  794  000017d8  23bd0008	addi	r29,r29,#8
  795  000017dc  64210000	snei	r1,r1,#0
  796  000017e0  1420002c	bnez	r1,L64_LF2
  797  000017e4  54000000	nop; not filled.
  798  000017e8  23bdfff8	addi	r29,r29,#-8
  799  000017ec  afa20000	sw	(r29),r2
  800  000017f0  2005002b	addi	r5,r0,#43
  801  000017f4  afa50004	sw	4(r29),r5
  802  000017f8  0c00323c	jal	_dindex
  803  000017fc  54000000	nop; not filled.
  804  00001800  23bd0008	addi	r29,r29,#8
  805  00001804  64210000	snei	r1,r1,#0
  806  00001808  10200020	beqz	r1,L63_LF2
  807  0000180c  54000000	nop; not filled.
  808  00001810          	L64_LF2:
  809  00001810  23bdfff8	addi	r29,r29,#-8
  810  00001814  3c050000	lhi	r5,((LC0_LF2)>>16)&0xffff
  811  00001818  24a5d000	addui	r5,r5,(LC0_LF2)&0xffff
  812  0000181c  afa50000	sw	(r29),r5
  813  00001820  0c00b168	jal	_printf
  814  00001824  54000000	nop; not filled.
  815  00001828  23bd0008	addi	r29,r29,#8
  816  0000182c          	L63_LF2:
  817  0000182c  3c020000	lhi	r2,((_spages_LF2)>>16)&0xffff
  818  00001830  2442d094	addui	r2,r2,(_spages_LF2)&0xffff
  819  00001834  204400f8	addi	r4,r2,#248
  820  00001838          	L68_LF2:
  821  00001838  20050000	addi	r5,r0,#0
  822  0000183c  ac450000	sw	(r2),r5
  823  00001840  0002f820	add	r31,r0,r2
  824  00001844  00021820	add	r3,r0,r2
  825  00001848          	L72_LF2:
  826  00001848  23e10004	addi	r1,r31,#4
  827  0000184c  20050000	addi	r5,r0,#0
  828  00001850  ac250000	sw	(r1),r5
  829  00001854  0001f820	add	r31,r0,r1
  830  00001858  03e3082c	sle	r1,r31,r3
  831  0000185c  1420ffe8	bnez	r1,L72_LF2
  832  00001860  54000000	nop; not filled.
  833  00001864  20420008	addi	r2,r2,#8
  834  00001868  0044082c	sle	r1,r2,r4
  835  0000186c  1420ffc8	bnez	r1,L68_LF2
  836  00001870  54000000	nop; not filled.
  837  00001874  23bdfff8	addi	r29,r29,#-8
  838  00001878  3c020001	lhi	r2,((_debugstr)>>16)&0xffff
  839  0000187c  24421f50	addui	r2,r2,(_debugstr)&0xffff
  840  00001880  afa20000	sw	(r29),r2
  841  00001884  20050070	addi	r5,r0,#112
  842  00001888  afa50004	sw	4(r29),r5
  843  0000188c  0c0031a8	jal	_dindex
  844  00001890  54000000	nop; not filled.
  845  00001894  23bd0008	addi	r29,r29,#8
  846  00001898  64210000	snei	r1,r1,#0
  847  0000189c  1420002c	bnez	r1,L76_LF2
  848  000018a0  54000000	nop; not filled.
  849  000018a4  23bdfff8	addi	r29,r29,#-8
  850  000018a8  afa20000	sw	(r29),r2
  851  000018ac  2005002b	addi	r5,r0,#43
  852  000018b0  afa50004	sw	4(r29),r5
  853  000018b4  0c003180	jal	_dindex
  854  000018b8  54000000	nop; not filled.
  855  000018bc  23bd0008	addi	r29,r29,#8
  856  000018c0  64210000	snei	r1,r1,#0
  857  000018c4  10200020	beqz	r1,L75_LF2
  858  000018c8  54000000	nop; not filled.
  859  000018cc          	L76_LF2:
  860  000018cc  23bdfff8	addi	r29,r29,#-8
  861  000018d0  3c050000	lhi	r5,((LC1_LF2)>>16)&0xffff
  862  000018d4  24a5d01c	addui	r5,r5,(LC1_LF2)&0xffff
  863  000018d8  afa50000	sw	(r29),r5
  864  000018dc  0c00b0ac	jal	_printf
  865  000018e0  54000000	nop; not filled.
  866  000018e4  23bd0008	addi	r29,r29,#8
  867  000018e8          	L75_LF2:
  868  000018e8  8fa20000	lw	r2,0(r29)
  869  000018ec  8fa30004	lw	r3,4(r29)
  870  000018f0  8fa40008	lw	r4,8(r29)
  871  000018f4  8fa5000c	lw	r5,12(r29)
  872  000018f8  8fdffff8	lw	r31,-8(r30)
  873  000018fc  001ee820	add	r29,r0,r30
  874  00001900  8fdefffc	lw	r30,-4(r30)
  875  00001904  4be00000	jr	r31
  876  00001908  54000000	nop
  877  0000190c          	.endproc _ShareModuleInit
  878  0000190c          	.data
  879  0000d037          	.align 2
  880  0000d038          	LC2_LF2:
  881  0000d038  46415441	.ascii "FATAL: couldn\'t allocate memory - no free pages!\n\000"
  881  0000d03c  4c3a2063	
  881  0000d040  6f756c64	
  881  0000d044  6e277420	
  881  0000d048  616c6c6f	
  881  0000d04c  63617465	
  881  0000d050  206d656d	
  881  0000d054  6f727920	
  881  0000d058  2d206e6f	
  881  0000d05c  20667265	
  881  0000d060  65207061	
  881  0000d064  67657321	
  881  0000d068  0a00    	
  882  0000d06a          	.text
  883  0000190c          	.align 2
  884  0000190c          	.proc _MemoryCreateSharedPage
  885  0000190c          	.global _MemoryCreateSharedPage
  886  0000190c          	_MemoryCreateSharedPage:
  887                      ;  Function 'MemoryCreateSharedPage'; 0 bytes of locals, 9 regs to save.
  888  0000190c  afbefffc	sw	-4(r29),r30; push fp
  889  00001910  001df020	add	r30,r0,r29; fp = sp
  890  00001914  afbffff8	sw	-8(r29),r31; push ret addr
  891  00001918  2fbd0030	subui	r29,r29,#48; alloc local storage
  892  0000191c  afa20000	sw	0(r29),r2
  893  00001920  afa30004	sw	4(r29),r3
  894  00001924  afa40008	sw	8(r29),r4
  895  00001928  afa5000c	sw	12(r29),r5
  896  0000192c  afa60010	sw	16(r29),r6
  897  00001930  afa70014	sw	20(r29),r7
  898  00001934  afa80018	sw	24(r29),r8
  899  00001938  afa9001c	sw	28(r29),r9
  900  0000193c  afaa0020	sw	32(r29),r10
  901  00001940  8fc60000	lw	r6,(r30)
  902  00001944  23bdfff8	addi	r29,r29,#-8
  903  00001948  afa60000	sw	(r29),r6
  904  0000194c  0c006a70	jal	_findpid
  905  00001950  54000000	nop; not filled.
  906  00001954  00012820	add	r5,r0,r1
  907  00001958  58a80005	srli	r8,r5,#0x5
  908  0000195c  51010005	slli	r1,r8,#0x5
  909  00001960  00a12822	sub	r5,r5,r1
  910  00001964  23bd0008	addi	r29,r29,#8
  911  00001968  23bdfff8	addi	r29,r29,#-8
  912  0000196c  200a000f	addi	r10,r0,#15
  913  00001970  afaa0000	sw	(r29),r10
  914  00001974  0ffff910	jal	_SetIntrs
  915  00001978  54000000	nop; not filled.
  916  0000197c  00013820	add	r7,r0,r1
  917  00001980  23bd0008	addi	r29,r29,#8
  918  00001984  8cc100a0	lw	r1,160(r6)
  919  00001988  60210010	seqi	r1,r1,#16
  920  0000198c  14200044	bnez	r1,L92_LF2
  921  00001990  54000000	nop; not filled.
  922  00001994  20030000	addi	r3,r0,#0
  923  00001998  3c090000	lhi	r9,((_spages_LF2)>>16)&0xffff
  924  0000199c  2529d094	addui	r9,r9,(_spages_LF2)&0xffff
  925  000019a0  00091020	add	r2,r0,r9
  926  000019a4          	L84_LF2:
  927  000019a4  8c410000	lw	r1,(r2)
  928  000019a8  64210000	snei	r1,r1,#0
  929  000019ac  10200018	beqz	r1,L82_LF2
  930  000019b0  54000000	nop; not filled.
  931  000019b4  20420008	addi	r2,r2,#8
  932  000019b8  20630001	addi	r3,r3,#1
  933  000019bc  7061001f	slei	r1,r3,#31
  934  000019c0  1420ffe0	bnez	r1,L84_LF2
  935  000019c4  54000000	nop; not filled.
  936  000019c8          	L82_LF2:
  937  000019c8  60610020	seqi	r1,r3,#32
  938  000019cc  10200024	beqz	r1,L87_LF2
  939  000019d0  54000000	nop; not filled.
  940  000019d4          	L92_LF2:
  941  000019d4  23bdfff8	addi	r29,r29,#-8
  942  000019d8  afa70000	sw	(r29),r7
  943  000019dc  0ffff8a8	jal	_SetIntrs
  944  000019e0  54000000	nop; not filled.
  945  000019e4  23bd0008	addi	r29,r29,#8
  946  000019e8  20010000	addi	r1,r0,#0
  947  000019ec  080000b4	j	L91_LF2
  948  000019f0  54000000	nop; not filled.
  949  000019f4          	L87_LF2:
  950  000019f4  0c002154	jal	_MemoryAllocPage
  951  000019f8  54000000	nop; not filled.
  952  000019fc  00012020	add	r4,r0,r1
  953  00001a00  64810000	snei	r1,r4,#0
  954  00001a04  14200028	bnez	r1,L89_LF2
  955  00001a08  54000000	nop; not filled.
  956  00001a0c  23bdfff8	addi	r29,r29,#-8
  957  00001a10  3c0a0000	lhi	r10,((LC2_LF2)>>16)&0xffff
  958  00001a14  254ad038	addui	r10,r10,(LC2_LF2)&0xffff
  959  00001a18  afaa0000	sw	(r29),r10
  960  00001a1c  0c00af6c	jal	_printf
  961  00001a20  54000000	nop; not filled.
  962  00001a24  0c00af4c	jal	_exitsim
  963  00001a28  54000000	nop; not filled.
  964  00001a2c  23bd0008	addi	r29,r29,#8
  965  00001a30          	L89_LF2:
  966  00001a30  50610003	slli	r1,r3,#0x3
  967  00001a34  00291020	add	r2,r1,r9
  968  00001a38  ac440000	sw	(r2),r4
  969  00001a3c  51010002	slli	r1,r8,#0x2
  970  00001a40  00221020	add	r2,r1,r2
  971  00001a44  20010001	addi	r1,r0,#1
  972  00001a48  00250804	sll	r1,r1,r5
  973  00001a4c  ac410004	sw	4(r2),r1
  974  00001a50  23bdfff8	addi	r29,r29,#-8
  975  00001a54  afa40000	sw	(r29),r4
  976  00001a58  0c002854	jal	_MemorySetupPte
  977  00001a5c  54000000	nop; not filled.
  978  00001a60  8cc200a0	lw	r2,160(r6)
  979  00001a64  50420002	slli	r2,r2,#0x2
  980  00001a68  00461020	add	r2,r2,r6
  981  00001a6c  ac410060	sw	96(r2),r1
  982  00001a70  8cc100a0	lw	r1,160(r6)
  983  00001a74  20220001	addi	r2,r1,#1
  984  00001a78  acc200a0	sw	160(r6),r2
  985  00001a7c  8cc10008	lw	r1,8(r6)
  986  00001a80  2421fe8c	addui	r1,r1,#65164
  987  00001a84  ac22013c	sw	316(r1),r2
  988  00001a88  23bd0008	addi	r29,r29,#8
  989  00001a8c  23bdfff8	addi	r29,r29,#-8
  990  00001a90  afa70000	sw	(r29),r7
  991  00001a94  0ffff7f0	jal	_SetIntrs
  992  00001a98  54000000	nop; not filled.
  993  00001a9c  23bd0008	addi	r29,r29,#8
  994  00001aa0  00040820	add	r1,r0,r4
  995  00001aa4          	L91_LF2:
  996  00001aa4  8fa20000	lw	r2,0(r29)
  997  00001aa8  8fa30004	lw	r3,4(r29)
  998  00001aac  8fa40008	lw	r4,8(r29)
  999  00001ab0  8fa5000c	lw	r5,12(r29)
 1000  00001ab4  8fa60010	lw	r6,16(r29)
 1001  00001ab8  8fa70014	lw	r7,20(r29)
 1002  00001abc  8fa80018	lw	r8,24(r29)
 1003  00001ac0  8fa9001c	lw	r9,28(r29)
 1004  00001ac4  8faa0020	lw	r10,32(r29)
 1005  00001ac8  8fdffff8	lw	r31,-8(r30)
 1006  00001acc  001ee820	add	r29,r0,r30
 1007  00001ad0  8fdefffc	lw	r30,-4(r30)
 1008  00001ad4  4be00000	jr	r31
 1009  00001ad8  54000000	nop
 1010  00001adc          	.endproc _MemoryCreateSharedPage
 1011  00001adc          	.align 2
 1012  00001adc          	.proc _mmap
 1013  00001adc          	.global _mmap
 1014  00001adc          	_mmap:
 1015                      ;  Function 'mmap'; 0 bytes of locals, 9 regs to save.
 1016  00001adc  afbefffc	sw	-4(r29),r30; push fp
 1017  00001ae0  001df020	add	r30,r0,r29; fp = sp
 1018  00001ae4  afbffff8	sw	-8(r29),r31; push ret addr
 1019  00001ae8  2fbd0030	subui	r29,r29,#48; alloc local storage
 1020  00001aec  afa20000	sw	0(r29),r2
 1021  00001af0  afa30004	sw	4(r29),r3
 1022  00001af4  afa40008	sw	8(r29),r4
 1023  00001af8  afa5000c	sw	12(r29),r5
 1024  00001afc  afa60010	sw	16(r29),r6
 1025  00001b00  afa70014	sw	20(r29),r7
 1026  00001b04  afa80018	sw	24(r29),r8
 1027  00001b08  afa9001c	sw	28(r29),r9
 1028  00001b0c  afaa0020	sw	32(r29),r10
 1029  00001b10  8fc60000	lw	r6,(r30)
 1030  00001b14  8fc70004	lw	r7,4(r30)
 1031  00001b18  64e10000	snei	r1,r7,#0
 1032  00001b1c  14200010	bnez	r1,L94_LF2
 1033  00001b20  54000000	nop; not filled.
 1034  00001b24  20010000	addi	r1,r0,#0
 1035  00001b28  08000184	j	L115_LF2
 1036  00001b2c  54000000	nop; not filled.
 1037  00001b30          	L94_LF2:
 1038  00001b30  8cc10008	lw	r1,8(r6)
 1039  00001b34  2429fe8c	addui	r9,r1,#65164
 1040  00001b38  23bdfff8	addi	r29,r29,#-8
 1041  00001b3c  200a000f	addi	r10,r0,#15
 1042  00001b40  afaa0000	sw	(r29),r10
 1043  00001b44  0ffff740	jal	_SetIntrs
 1044  00001b48  54000000	nop; not filled.
 1045  00001b4c  00014020	add	r8,r0,r1
 1046  00001b50  23bd0008	addi	r29,r29,#8
 1047  00001b54  20030000	addi	r3,r0,#0
 1048  00001b58  3c020000	lhi	r2,((_spages_LF2)>>16)&0xffff
 1049  00001b5c  2442d094	addui	r2,r2,(_spages_LF2)&0xffff
 1050  00001b60          	L99_LF2:
 1051  00001b60  8c410000	lw	r1,(r2)
 1052  00001b64  00270828	seq	r1,r1,r7
 1053  00001b68  14200018	bnez	r1,L97_LF2
 1054  00001b6c  54000000	nop; not filled.
 1055  00001b70  20420008	addi	r2,r2,#8
 1056  00001b74  20630001	addi	r3,r3,#1
 1057  00001b78  7061001f	sleui	r1,r3,#31
 1058  00001b7c  1420ffe0	bnez	r1,L99_LF2
 1059  00001b80  54000000	nop; not filled.
 1060  00001b84          	L97_LF2:
 1061  00001b84  60610020	seqi	r1,r3,#32
 1062  00001b88  14200068	bnez	r1,L116_LF2
 1063  00001b8c  54000000	nop; not filled.
 1064  00001b90  50ff0010	slli	r31,r7,#0x10
 1065  00001b94  20050000	addi	r5,r0,#0
 1066  00001b98  8cc400a0	lw	r4,160(r6)
 1067  00001b9c  00a4082a	slt	r1,r5,r4
 1068  00001ba0  10200034	beqz	r1,L105_LF2
 1069  00001ba4  54000000	nop; not filled.
 1070  00001ba8  00061020	add	r2,r0,r6
 1071  00001bac          	L107_LF2:
 1072  00001bac  8c410060	lw	r1,96(r2)
 1073  00001bb0  200afff8	addi	r10,r0,#-8
 1074  00001bb4  002a0824	and	r1,r1,r10
 1075  00001bb8  003f0828	seq	r1,r1,r31
 1076  00001bbc  14200018	bnez	r1,L105_LF2
 1077  00001bc0  54000000	nop; not filled.
 1078  00001bc4  20420004	addi	r2,r2,#4
 1079  00001bc8  20a50001	addi	r5,r5,#1
 1080  00001bcc  00a4082a	slt	r1,r5,r4
 1081  00001bd0  1420ffd8	bnez	r1,L107_LF2
 1082  00001bd4  54000000	nop; not filled.
 1083  00001bd8          	L105_LF2:
 1084  00001bd8  8cc200a0	lw	r2,160(r6)
 1085  00001bdc  00a20828	seq	r1,r5,r2
 1086  00001be0  10200064	beqz	r1,L110_LF2
 1087  00001be4  54000000	nop; not filled.
 1088  00001be8  7041000f	slei	r1,r2,#15
 1089  00001bec  14200024	bnez	r1,L111_LF2
 1090  00001bf0  54000000	nop; not filled.
 1091  00001bf4          	L116_LF2:
 1092  00001bf4  23bdfff8	addi	r29,r29,#-8
 1093  00001bf8  afa80000	sw	(r29),r8
 1094  00001bfc  0ffff688	jal	_SetIntrs
 1095  00001c00  54000000	nop; not filled.
 1096  00001c04  23bd0008	addi	r29,r29,#8
 1097  00001c08  20010000	addi	r1,r0,#0
 1098  00001c0c  080000a0	j	L115_LF2
 1099  00001c10  54000000	nop; not filled.
 1100  00001c14          	L111_LF2:
 1101  00001c14  23bdfff8	addi	r29,r29,#-8
 1102  00001c18  afa70000	sw	(r29),r7
 1103  00001c1c  0c002690	jal	_MemorySetupPte
 1104  00001c20  54000000	nop; not filled.
 1105  00001c24  8cc200a0	lw	r2,160(r6)
 1106  00001c28  50420002	slli	r2,r2,#0x2
 1107  00001c2c  00461020	add	r2,r2,r6
 1108  00001c30  ac410060	sw	96(r2),r1
 1109  00001c34  8cc100a0	lw	r1,160(r6)
 1110  00001c38  20210001	addi	r1,r1,#1
 1111  00001c3c  acc100a0	sw	160(r6),r1
 1112  00001c40  ad21013c	sw	316(r9),r1
 1113  00001c44  23bd0008	addi	r29,r29,#8
 1114  00001c48          	L110_LF2:
 1115  00001c48  23bdfff8	addi	r29,r29,#-8
 1116  00001c4c  afa60000	sw	(r29),r6
 1117  00001c50  0c00676c	jal	_findpid
 1118  00001c54  54000000	nop; not filled.
 1119  00001c58  00011020	add	r2,r0,r1
 1120  00001c5c  58440005	srli	r4,r2,#0x5
 1121  00001c60  50810005	slli	r1,r4,#0x5
 1122  00001c64  00411022	sub	r2,r2,r1
 1123  00001c68  50630003	slli	r3,r3,#0x3
 1124  00001c6c  50810002	slli	r1,r4,#0x2
 1125  00001c70  00610820	add	r1,r3,r1
 1126  00001c74  3c0a0000	lhi	r10,((_spages_LF2+4)>>16)&0xffff
 1127  00001c78  254ad098	addui	r10,r10,(_spages_LF2+4)&0xffff
 1128  00001c7c  002a1820	add	r3,r1,r10
 1129  00001c80  20010001	addi	r1,r0,#1
 1130  00001c84  00221004	sll	r2,r1,r2
 1131  00001c88  8c610000	lw	r1,(r3)
 1132  00001c8c  00220825	or	r1,r1,r2
 1133  00001c90  ac610000	sw	(r3),r1
 1134  00001c94  23bd0008	addi	r29,r29,#8
 1135  00001c98  23bdfff8	addi	r29,r29,#-8
 1136  00001c9c  afa80000	sw	(r29),r8
 1137  00001ca0  0ffff5e4	jal	_SetIntrs
 1138  00001ca4  54000000	nop; not filled.
 1139  00001ca8  23bd0008	addi	r29,r29,#8
 1140  00001cac  50a10010	slli	r1,r5,#0x10
 1141  00001cb0          	L115_LF2:
 1142  00001cb0  8fa20000	lw	r2,0(r29)
 1143  00001cb4  8fa30004	lw	r3,4(r29)
 1144  00001cb8  8fa40008	lw	r4,8(r29)
 1145  00001cbc  8fa5000c	lw	r5,12(r29)
 1146  00001cc0  8fa60010	lw	r6,16(r29)
 1147  00001cc4  8fa70014	lw	r7,20(r29)
 1148  00001cc8  8fa80018	lw	r8,24(r29)
 1149  00001ccc  8fa9001c	lw	r9,28(r29)
 1150  00001cd0  8faa0020	lw	r10,32(r29)
 1151  00001cd4  8fdffff8	lw	r31,-8(r30)
 1152  00001cd8  001ee820	add	r29,r0,r30
 1153  00001cdc  8fdefffc	lw	r30,-4(r30)
 1154  00001ce0  4be00000	jr	r31
 1155  00001ce4  54000000	nop
 1156  00001ce8          	.endproc _mmap
 1157  00001ce8          	.data
 1158  0000d06a          	.align 2
 1159  0000d06c          	LC3_LF2:
 1160  0000d06c  46415441	.ascii "FATAL: Attempted to free memory page 0\n\000"
 1160  0000d070  4c3a2041	
 1160  0000d074  7474656d	
 1160  0000d078  70746564	
 1160  0000d07c  20746f20	
 1160  0000d080  66726565	
 1160  0000d084  206d656d	
 1160  0000d088  6f727920	
 1160  0000d08c  70616765	
 1160  0000d090  20300a00	
 1161  0000d094          	.text
 1162  00001ce8          	.align 2
 1163  00001ce8          	.proc _MemoryFreeSharedPte
 1164  00001ce8          	.global _MemoryFreeSharedPte
 1165  00001ce8          	_MemoryFreeSharedPte:
 1166                      ;  Function 'MemoryFreeSharedPte'; 0 bytes of locals, 9 regs to save.
 1167  00001ce8  afbefffc	sw	-4(r29),r30; push fp
 1168  00001cec  001df020	add	r30,r0,r29; fp = sp
 1169  00001cf0  afbffff8	sw	-8(r29),r31; push ret addr
 1170  00001cf4  2fbd0030	subui	r29,r29,#48; alloc local storage
 1171  00001cf8  afa20000	sw	0(r29),r2
 1172  00001cfc  afa30004	sw	4(r29),r3
 1173  00001d00  afa40008	sw	8(r29),r4
 1174  00001d04  afa5000c	sw	12(r29),r5
 1175  00001d08  afa60010	sw	16(r29),r6
 1176  00001d0c  afa70014	sw	20(r29),r7
 1177  00001d10  afa80018	sw	24(r29),r8
 1178  00001d14  afa9001c	sw	28(r29),r9
 1179  00001d18  afaa0020	sw	32(r29),r10
 1180  00001d1c  8fc80000	lw	r8,(r30)
 1181  00001d20  8fc20004	lw	r2,4(r30)
 1182  00001d24  23bdfff8	addi	r29,r29,#-8
 1183  00001d28  200a000f	addi	r10,r0,#15
 1184  00001d2c  afaa0000	sw	(r29),r10
 1185  00001d30  0ffff554	jal	_SetIntrs
 1186  00001d34  54000000	nop; not filled.
 1187  00001d38  00014820	add	r9,r0,r1
 1188  00001d3c  23bd0008	addi	r29,r29,#8
 1189  00001d40  50410002	slli	r1,r2,#0x2
 1190  00001d44  00280820	add	r1,r1,r8
 1191  00001d48  94270060	lhu	r7,96(r1)
 1192  00001d4c  64e10000	snei	r1,r7,#0
 1193  00001d50  14200028	bnez	r1,L119_LF2
 1194  00001d54  54000000	nop; not filled.
 1195  00001d58  23bdfff8	addi	r29,r29,#-8
 1196  00001d5c  3c0a0000	lhi	r10,((LC3_LF2)>>16)&0xffff
 1197  00001d60  254ad06c	addui	r10,r10,(LC3_LF2)&0xffff
 1198  00001d64  afaa0000	sw	(r29),r10
 1199  00001d68  0c00ac20	jal	_printf
 1200  00001d6c  54000000	nop; not filled.
 1201  00001d70  0c00ac00	jal	_exitsim
 1202  00001d74  54000000	nop; not filled.
 1203  00001d78  23bd0008	addi	r29,r29,#8
 1204  00001d7c          	L119_LF2:
 1205  00001d7c  20040000	addi	r4,r0,#0
 1206  00001d80  3c050000	lhi	r5,((_spages_LF2)>>16)&0xffff
 1207  00001d84  24a5d094	addui	r5,r5,(_spages_LF2)&0xffff
 1208  00001d88  00051020	add	r2,r0,r5
 1209  00001d8c          	L123_LF2:
 1210  00001d8c  8c410000	lw	r1,(r2)
 1211  00001d90  00270828	seq	r1,r1,r7
 1212  00001d94  14200018	bnez	r1,L121_LF2
 1213  00001d98  54000000	nop; not filled.
 1214  00001d9c  20420008	addi	r2,r2,#8
 1215  00001da0  20840001	addi	r4,r4,#1
 1216  00001da4  7081001f	slei	r1,r4,#31
 1217  00001da8  1420ffe0	bnez	r1,L123_LF2
 1218  00001dac  54000000	nop; not filled.
 1219  00001db0          	L121_LF2:
 1220  00001db0  60810020	seqi	r1,r4,#32
 1221  00001db4  10200024	beqz	r1,L126_LF2
 1222  00001db8  54000000	nop; not filled.
 1223  00001dbc  23bdfff8	addi	r29,r29,#-8
 1224  00001dc0  afa90000	sw	(r29),r9
 1225  00001dc4  0ffff4c0	jal	_SetIntrs
 1226  00001dc8  54000000	nop; not filled.
 1227  00001dcc  23bd0008	addi	r29,r29,#8
 1228  00001dd0  2001ffff	addi	r1,r0,#-1
 1229  00001dd4  080000f0	j	L141_LF2
 1230  00001dd8  54000000	nop; not filled.
 1231  00001ddc          	L126_LF2:
 1232  00001ddc  23bdfff8	addi	r29,r29,#-8
 1233  00001de0  afa80000	sw	(r29),r8
 1234  00001de4  0c0065d8	jal	_findpid
 1235  00001de8  54000000	nop; not filled.
 1236  00001dec  00011020	add	r2,r0,r1
 1237  00001df0  58230005	srli	r3,r1,#0x5
 1238  00001df4  50610005	slli	r1,r3,#0x5
 1239  00001df8  00411022	sub	r2,r2,r1
 1240  00001dfc  50810003	slli	r1,r4,#0x3
 1241  00001e00  00252020	add	r4,r1,r5
 1242  00001e04  50610002	slli	r1,r3,#0x2
 1243  00001e08  00240820	add	r1,r1,r4
 1244  00001e0c  20230004	addi	r3,r1,#4
 1245  00001e10  20010001	addi	r1,r0,#1
 1246  00001e14  00220804	sll	r1,r1,r2
 1247  00001e18  200affff	addi	r10,r0,#-1
 1248  00001e1c  002a1026	xor	r2,r1,r10
 1249  00001e20  8c610000	lw	r1,(r3)
 1250  00001e24  00220824	and	r1,r1,r2
 1251  00001e28  ac610000	sw	(r3),r1
 1252  00001e2c  23bd0008	addi	r29,r29,#8
 1253  00001e30  20060000	addi	r6,r0,#0
 1254  00001e34  20050000	addi	r5,r0,#0
 1255  00001e38          	L132_LF2:
 1256  00001e38  20030001	addi	r3,r0,#1
 1257  00001e3c  20020000	addi	r2,r0,#0
 1258  00001e40  8c9f0004	lw	r31,4(r4)
 1259  00001e44          	L136_LF2:
 1260  00001e44  03e30824	and	r1,r31,r3
 1261  00001e48  64210000	snei	r1,r1,#0
 1262  00001e4c  00c13020	add	r6,r6,r1
 1263  00001e50  50630001	slli	r3,r3,#0x1
 1264  00001e54  20420001	addi	r2,r2,#1
 1265  00001e58  7041001f	slei	r1,r2,#31
 1266  00001e5c  1420ffe4	bnez	r1,L136_LF2
 1267  00001e60  54000000	nop; not filled.
 1268  00001e64  20840004	addi	r4,r4,#4
 1269  00001e68  20a50001	addi	r5,r5,#1
 1270  00001e6c  70a10000	slei	r1,r5,#0
 1271  00001e70  1420ffc4	bnez	r1,L132_LF2
 1272  00001e74  54000000	nop; not filled.
 1273  00001e78  8d0100a0	lw	r1,160(r8)
 1274  00001e7c  2022ffff	addi	r2,r1,#-1
 1275  00001e80  ad0200a0	sw	160(r8),r2
 1276  00001e84  8d010008	lw	r1,8(r8)
 1277  00001e88  2421fe8c	addui	r1,r1,#65164
 1278  00001e8c  ac22013c	sw	316(r1),r2
 1279  00001e90  64c10000	snei	r1,r6,#0
 1280  00001e94  14200018	bnez	r1,L139_LF2
 1281  00001e98  54000000	nop; not filled.
 1282  00001e9c  23bdfff8	addi	r29,r29,#-8
 1283  00001ea0  afa70000	sw	(r29),r7
 1284  00001ea4  0c001f6c	jal	_MemoryFreePage
 1285  00001ea8  54000000	nop; not filled.
 1286  00001eac  23bd0008	addi	r29,r29,#8
 1287  00001eb0          	L139_LF2:
 1288  00001eb0  23bdfff8	addi	r29,r29,#-8
 1289  00001eb4  afa90000	sw	(r29),r9
 1290  00001eb8  0ffff3cc	jal	_SetIntrs
 1291  00001ebc  54000000	nop; not filled.
 1292  00001ec0  23bd0008	addi	r29,r29,#8
 1293  00001ec4  00060820	add	r1,r0,r6
 1294  00001ec8          	L141_LF2:
 1295  00001ec8  8fa20000	lw	r2,0(r29)
 1296  00001ecc  8fa30004	lw	r3,4(r29)
 1297  00001ed0  8fa40008	lw	r4,8(r29)
 1298  00001ed4  8fa5000c	lw	r5,12(r29)
 1299  00001ed8  8fa60010	lw	r6,16(r29)
 1300  00001edc  8fa70014	lw	r7,20(r29)
 1301  00001ee0  8fa80018	lw	r8,24(r29)
 1302  00001ee4  8fa9001c	lw	r9,28(r29)
 1303  00001ee8  8faa0020	lw	r10,32(r29)
 1304  00001eec  8fdffff8	lw	r31,-8(r30)
 1305  00001ef0  001ee820	add	r29,r0,r30
 1306  00001ef4  8fdefffc	lw	r30,-4(r30)
 1307  00001ef8  4be00000	jr	r31
 1308  00001efc  54000000	nop
 1309  00001f00          	.endproc _MemoryFreeSharedPte
 1310  00001f00          	.data
 1311  0000d094          	.align 2
 1312  0000d094          	_spages_LF2:
 1313  0000d094          	.space 256
 1314                      ; Compiled by GCC
 1316  0000d194          	.align 2
 1317  0000d194          	_rcsid_LF3:
 1318  0000d194  3a206669	.ascii "$Id: filesys.c,v 1.1 2000/09/20 01:50:19 elm Exp elm $\000"
 1318  0000d198  6c657379	
 1318  0000d19c  732e632c	
 1318  0000d1a0  7620312e	
 1318  0000d1a4  31203230	
 1318  0000d1a8  30302f30	
 1318  0000d1ac  392f3230	
 1318  0000d1b0  2030313a	
 1318  0000d1b4  35303a31	
 1318  0000d1b8  3920656c	
 1318  0000d1bc  6d204578	
 1318  0000d1c0  7020656c	
 1318  0000d1c4  6d203030	
 1318  0000d1c8  30      	
 1319  0000d1c9          	.text
 1320  00001f00          	.align 2
 1321  00001f00          	.proc _isspace
 1322  00001f00          	.global _isspace
 1323  00001f00          	_isspace:
 1324                      ;  Function 'isspace'; 0 bytes of locals, 1 regs to save.
 1325  00001f00  afbefffc	sw	-4(r29),r30; push fp
 1326  00001f04  001df020	add	r30,r0,r29; fp = sp
 1327  00001f08  afbffff8	sw	-8(r29),r31; push ret addr
 1328  00001f0c  2fbd0010	subui	r29,r29,#16; alloc local storage
 1329  00001f10  afa20000	sw	0(r29),r2
 1330  00001f14  83c20003	lb	r2,3(r30)
 1331  00001f18  201f0000	addi	r31,r0,#0
 1332  00001f1c  304100ff	andi	r1,r2,#0x00ff
 1333  00001f20  60210020	seqi	r1,r1,#32
 1334  00001f24  14200018	bnez	r1,L6_LF3
 1335  00001f28  54000000	nop; not filled.
 1336  00001f2c  2041fff7	addi	r1,r2,#-9
 1337  00001f30  302100ff	andi	r1,r1,#0x00ff
 1338  00001f34  70210001	sleui	r1,r1,#1
 1339  00001f38  10200008	beqz	r1,L5_LF3
 1340  00001f3c  54000000	nop; not filled.
 1341  00001f40          	L6_LF3:
 1342  00001f40  201f0001	addi	r31,r0,#1
 1343  00001f44          	L5_LF3:
 1344  00001f44  001f0820	add	r1,r0,r31
 1345  00001f48  8fa20000	lw	r2,0(r29)
 1346  00001f4c  8fdffff8	lw	r31,-8(r30)
 1347  00001f50  001ee820	add	r29,r0,r30
 1348  00001f54  8fdefffc	lw	r30,-4(r30)
 1349  00001f58  4be00000	jr	r31
 1350  00001f5c  54000000	nop
 1351  00001f60          	.endproc _isspace
 1352  00001f60          	.align 2
 1353  00001f60          	.proc _isxdigit
 1354  00001f60          	.global _isxdigit
 1355  00001f60          	_isxdigit:
 1356                      ;  Function 'isxdigit'; 0 bytes of locals, 1 regs to save.
 1357  00001f60  afbefffc	sw	-4(r29),r30; push fp
 1358  00001f64  001df020	add	r30,r0,r29; fp = sp
 1359  00001f68  afbffff8	sw	-8(r29),r31; push ret addr
 1360  00001f6c  2fbd0010	subui	r29,r29,#16; alloc local storage
 1361  00001f70  afa20000	sw	0(r29),r2
 1362  00001f74  83df0003	lb	r31,3(r30)
 1363  00001f78  20020000	addi	r2,r0,#0
 1364  00001f7c  23e1ffd0	addi	r1,r31,#-48
 1365  00001f80  302100ff	andi	r1,r1,#0x00ff
 1366  00001f84  70210009	sleui	r1,r1,#9
 1367  00001f88  14200028	bnez	r1,L12_LF3
 1368  00001f8c  54000000	nop; not filled.
 1369  00001f90  23e1ff9f	addi	r1,r31,#-97
 1370  00001f94  302100ff	andi	r1,r1,#0x00ff
 1371  00001f98  70210005	sleui	r1,r1,#5
 1372  00001f9c  14200014	bnez	r1,L12_LF3
 1373  00001fa0  54000000	nop; not filled.
 1374  00001fa4  33e100ff	andi	r1,r31,#0x00ff
 1375  00001fa8  64210041	snei	r1,r1,#65
 1376  00001fac  14200008	bnez	r1,L11_LF3
 1377  00001fb0  54000000	nop; not filled.
 1378  00001fb4          	L12_LF3:
 1379  00001fb4  20020001	addi	r2,r0,#1
 1380  00001fb8          	L11_LF3:
 1381  00001fb8  00020820	add	r1,r0,r2
 1382  00001fbc  8fa20000	lw	r2,0(r29)
 1383  00001fc0  8fdffff8	lw	r31,-8(r30)
 1384  00001fc4  001ee820	add	r29,r0,r30
 1385  00001fc8  8fdefffc	lw	r30,-4(r30)
 1386  00001fcc  4be00000	jr	r31
 1387  00001fd0  54000000	nop
 1388  00001fd4          	.endproc _isxdigit
 1389  00001fd4          	.align 2
 1390  00001fd4          	.proc _DisableIntrs
 1391  00001fd4          	.global _DisableIntrs
 1392  00001fd4          	_DisableIntrs:
 1393                      ;  Function 'DisableIntrs'; 0 bytes of locals, 1 regs to save.
 1394  00001fd4  afbefffc	sw	-4(r29),r30; push fp
 1395  00001fd8  001df020	add	r30,r0,r29; fp = sp
 1396  00001fdc  afbffff8	sw	-8(r29),r31; push ret addr
 1397  00001fe0  2fbd0010	subui	r29,r29,#16; alloc local storage
 1398  00001fe4  afa20000	sw	0(r29),r2
 1399  00001fe8  23bdfff8	addi	r29,r29,#-8
 1400  00001fec  2002000f	addi	r2,r0,#15
 1401  00001ff0  afa20000	sw	(r29),r2
 1402  00001ff4  0ffff290	jal	_SetIntrs
 1403  00001ff8  54000000	nop; not filled.
 1404  00001ffc  23bd0008	addi	r29,r29,#8
 1405  00002000  8fa20000	lw	r2,0(r29)
 1406  00002004  8fdffff8	lw	r31,-8(r30)
 1407  00002008  001ee820	add	r29,r0,r30
 1408  0000200c  8fdefffc	lw	r30,-4(r30)
 1409  00002010  4be00000	jr	r31
 1410  00002014  54000000	nop
 1411  00002018          	.endproc _DisableIntrs
 1412  00002018          	.align 2
 1413  00002018          	.proc _EnableIntrs
 1414  00002018          	.global _EnableIntrs
 1415  00002018          	_EnableIntrs:
 1416                      ;  Function 'EnableIntrs'; 0 bytes of locals, 1 regs to save.
 1417  00002018  afbefffc	sw	-4(r29),r30; push fp
 1418  0000201c  001df020	add	r30,r0,r29; fp = sp
 1419  00002020  afbffff8	sw	-8(r29),r31; push ret addr
 1420  00002024  2fbd0010	subui	r29,r29,#16; alloc local storage
 1421  00002028  afa20000	sw	0(r29),r2
 1422  0000202c  23bdfff8	addi	r29,r29,#-8
 1423  00002030  20020000	addi	r2,r0,#0
 1424  00002034  afa20000	sw	(r29),r2
 1425  00002038  0ffff24c	jal	_SetIntrs
 1426  0000203c  54000000	nop; not filled.
 1427  00002040  23bd0008	addi	r29,r29,#8
 1428  00002044  8fa20000	lw	r2,0(r29)
 1429  00002048  8fdffff8	lw	r31,-8(r30)
 1430  0000204c  001ee820	add	r29,r0,r30
 1431  00002050  8fdefffc	lw	r30,-4(r30)
 1432  00002054  4be00000	jr	r31
 1433  00002058  54000000	nop
 1434  0000205c          	.endproc _EnableIntrs
 1435  0000205c          	.align 2
 1436  0000205c          	.proc _RestoreIntrs
 1437  0000205c          	.global _RestoreIntrs
 1438  0000205c          	_RestoreIntrs:
 1439                      ;  Function 'RestoreIntrs'; 0 bytes of locals, 1 regs to save.
 1440  0000205c  afbefffc	sw	-4(r29),r30; push fp
 1441  00002060  001df020	add	r30,r0,r29; fp = sp
 1442  00002064  afbffff8	sw	-8(r29),r31; push ret addr
 1443  00002068  2fbd0010	subui	r29,r29,#16; alloc local storage
 1444  0000206c  afa20000	sw	0(r29),r2
 1445  00002070  23bdfff8	addi	r29,r29,#-8
 1446  00002074  8fc20000	lw	r2,(r30)
 1447  00002078  afa20000	sw	(r29),r2
 1448  0000207c  0ffff208	jal	_SetIntrs
 1449  00002080  54000000	nop; not filled.
 1450  00002084  23bd0008	addi	r29,r29,#8
 1451  00002088  8fa20000	lw	r2,0(r29)
 1452  0000208c  8fdffff8	lw	r31,-8(r30)
 1453  00002090  001ee820	add	r29,r0,r30
 1454  00002094  8fdefffc	lw	r30,-4(r30)
 1455  00002098  4be00000	jr	r31
 1456  0000209c  54000000	nop
 1457  000020a0          	.endproc _RestoreIntrs
 1458  000020a0          	.align 2
 1459  000020a0          	.proc _QueueLinkInit
 1460  000020a0          	.global _QueueLinkInit
 1461  000020a0          	_QueueLinkInit:
 1462                      ;  Function 'QueueLinkInit'; 0 bytes of locals, 1 regs to save.
 1463  000020a0  afbefffc	sw	-4(r29),r30; push fp
 1464  000020a4  001df020	add	r30,r0,r29; fp = sp
 1465  000020a8  afbffff8	sw	-8(r29),r31; push ret addr
 1466  000020ac  2fbd0010	subui	r29,r29,#16; alloc local storage
 1467  000020b0  afa20000	sw	0(r29),r2
 1468  000020b4  8fc10000	lw	r1,(r30)
 1469  000020b8  8fc20004	lw	r2,4(r30)
 1470  000020bc  201f0000	addi	r31,r0,#0
 1471  000020c0  ac3f0000	sw	(r1),r31
 1472  000020c4  ac22000c	sw	12(r1),r2
 1473  000020c8  8fa20000	lw	r2,0(r29)
 1474  000020cc  8fdffff8	lw	r31,-8(r30)
 1475  000020d0  001ee820	add	r29,r0,r30
 1476  000020d4  8fdefffc	lw	r30,-4(r30)
 1477  000020d8  4be00000	jr	r31
 1478  000020dc  54000000	nop
 1479  000020e0          	.endproc _QueueLinkInit
 1480  000020e0          	.align 2
 1481  000020e0          	.proc _QueueNext
 1482  000020e0          	.global _QueueNext
 1483  000020e0          	_QueueNext:
 1484                      ;  Function 'QueueNext'; 0 bytes of locals, 0 regs to save.
 1485  000020e0  afbefffc	sw	-4(r29),r30; push fp
 1486  000020e4  001df020	add	r30,r0,r29; fp = sp
 1487  000020e8  afbffff8	sw	-8(r29),r31; push ret addr
 1488  000020ec  2fbd0008	subui	r29,r29,#8; alloc local storage
 1489  000020f0  8fc10000	lw	r1,(r30)
 1490  000020f4  8c210000	lw	r1,(r1)
 1491  000020f8  8fdffff8	lw	r31,-8(r30)
 1492  000020fc  001ee820	add	r29,r0,r30
 1493  00002100  8fdefffc	lw	r30,-4(r30)
 1494  00002104  4be00000	jr	r31
 1495  00002108  54000000	nop
 1496  0000210c          	.endproc _QueueNext
 1497  0000210c          	.align 2
 1498  0000210c          	.proc _QueuePrev
 1499  0000210c          	.global _QueuePrev
 1500  0000210c          	_QueuePrev:
 1501                      ;  Function 'QueuePrev'; 0 bytes of locals, 0 regs to save.
 1502  0000210c  afbefffc	sw	-4(r29),r30; push fp
 1503  00002110  001df020	add	r30,r0,r29; fp = sp
 1504  00002114  afbffff8	sw	-8(r29),r31; push ret addr
 1505  00002118  2fbd0008	subui	r29,r29,#8; alloc local storage
 1506  0000211c  8fc10000	lw	r1,(r30)
 1507  00002120  8c210004	lw	r1,4(r1)
 1508  00002124  8fdffff8	lw	r31,-8(r30)
 1509  00002128  001ee820	add	r29,r0,r30
 1510  0000212c  8fdefffc	lw	r30,-4(r30)
 1511  00002130  4be00000	jr	r31
 1512  00002134  54000000	nop
 1513  00002138          	.endproc _QueuePrev
 1514  00002138          	.align 2
 1515  00002138          	.proc _QueueFirst
 1516  00002138          	.global _QueueFirst
 1517  00002138          	_QueueFirst:
 1518                      ;  Function 'QueueFirst'; 0 bytes of locals, 0 regs to save.
 1519  00002138  afbefffc	sw	-4(r29),r30; push fp
 1520  0000213c  001df020	add	r30,r0,r29; fp = sp
 1521  00002140  afbffff8	sw	-8(r29),r31; push ret addr
 1522  00002144  2fbd0008	subui	r29,r29,#8; alloc local storage
 1523  00002148  8fc10000	lw	r1,(r30)
 1524  0000214c  8c210000	lw	r1,(r1)
 1525  00002150  8fdffff8	lw	r31,-8(r30)
 1526  00002154  001ee820	add	r29,r0,r30
 1527  00002158  8fdefffc	lw	r30,-4(r30)
 1528  0000215c  4be00000	jr	r31
 1529  00002160  54000000	nop
 1530  00002164          	.endproc _QueueFirst
 1531  00002164          	.align 2
 1532  00002164          	.proc _QueueLast
 1533  00002164          	.global _QueueLast
 1534  00002164          	_QueueLast:
 1535                      ;  Function 'QueueLast'; 0 bytes of locals, 0 regs to save.
 1536  00002164  afbefffc	sw	-4(r29),r30; push fp
 1537  00002168  001df020	add	r30,r0,r29; fp = sp
 1538  0000216c  afbffff8	sw	-8(r29),r31; push ret addr
 1539  00002170  2fbd0008	subui	r29,r29,#8; alloc local storage
 1540  00002174  8fc10000	lw	r1,(r30)
 1541  00002178  8c210004	lw	r1,4(r1)
 1542  0000217c  8fdffff8	lw	r31,-8(r30)
 1543  00002180  001ee820	add	r29,r0,r30
 1544  00002184  8fdefffc	lw	r30,-4(r30)
 1545  00002188  4be00000	jr	r31
 1546  0000218c  54000000	nop
 1547  00002190          	.endproc _QueueLast
 1548  00002190          	.align 2
 1549  00002190          	.proc _QueueInsertAfter
 1550  00002190          	.global _QueueInsertAfter
 1551  00002190          	_QueueInsertAfter:
 1552                      ;  Function 'QueueInsertAfter'; 0 bytes of locals, 2 regs to save.
 1553  00002190  afbefffc	sw	-4(r29),r30; push fp
 1554  00002194  001df020	add	r30,r0,r29; fp = sp
 1555  00002198  afbffff8	sw	-8(r29),r31; push ret addr
 1556  0000219c  2fbd0010	subui	r29,r29,#16; alloc local storage
 1557  000021a0  afa20000	sw	0(r29),r2
 1558  000021a4  afa30004	sw	4(r29),r3
 1559  000021a8  8fc30000	lw	r3,(r30)
 1560  000021ac  8fc20004	lw	r2,4(r30)
 1561  000021b0  8fc10008	lw	r1,8(r30)
 1562  000021b4  ac230008	sw	8(r1),r3
 1563  000021b8  ac220004	sw	4(r1),r2
 1564  000021bc  8c5f0000	lw	r31,(r2)
 1565  000021c0  ac3f0000	sw	(r1),r31
 1566  000021c4  ac410000	sw	(r2),r1
 1567  000021c8  8c220000	lw	r2,(r1)
 1568  000021cc  ac410004	sw	4(r2),r1
 1569  000021d0  8c610008	lw	r1,8(r3)
 1570  000021d4  20210001	addi	r1,r1,#1
 1571  000021d8  ac610008	sw	8(r3),r1
 1572  000021dc  8fa20000	lw	r2,0(r29)
 1573  000021e0  8fa30004	lw	r3,4(r29)
 1574  000021e4  8fdffff8	lw	r31,-8(r30)
 1575  000021e8  001ee820	add	r29,r0,r30
 1576  000021ec  8fdefffc	lw	r30,-4(r30)
 1577  000021f0  4be00000	jr	r31
 1578  000021f4  54000000	nop
 1579  000021f8          	.endproc _QueueInsertAfter
 1580  000021f8          	.align 2
 1581  000021f8          	.proc _QueueInsertFirst
 1582  000021f8          	.global _QueueInsertFirst
 1583  000021f8          	_QueueInsertFirst:
 1584                      ;  Function 'QueueInsertFirst'; 0 bytes of locals, 2 regs to save.
 1585  000021f8  afbefffc	sw	-4(r29),r30; push fp
 1586  000021fc  001df020	add	r30,r0,r29; fp = sp
 1587  00002200  afbffff8	sw	-8(r29),r31; push ret addr
 1588  00002204  2fbd0010	subui	r29,r29,#16; alloc local storage
 1589  00002208  afa20000	sw	0(r29),r2
 1590  0000220c  afa30004	sw	4(r29),r3
 1591  00002210  8fc30000	lw	r3,(r30)
 1592  00002214  8fc10004	lw	r1,4(r30)
 1593  00002218  ac230008	sw	8(r1),r3
 1594  0000221c  ac230004	sw	4(r1),r3
 1595  00002220  8c7f0000	lw	r31,(r3)
 1596  00002224  ac3f0000	sw	(r1),r31
 1597  00002228  ac610000	sw	(r3),r1
 1598  0000222c  8c220000	lw	r2,(r1)
 1599  00002230  ac410004	sw	4(r2),r1
 1600  00002234  8c610008	lw	r1,8(r3)
 1601  00002238  20210001	addi	r1,r1,#1
 1602  0000223c  ac610008	sw	8(r3),r1
 1603  00002240  8fa20000	lw	r2,0(r29)
 1604  00002244  8fa30004	lw	r3,4(r29)
 1605  00002248  8fdffff8	lw	r31,-8(r30)
 1606  0000224c  001ee820	add	r29,r0,r30
 1607  00002250  8fdefffc	lw	r30,-4(r30)
 1608  00002254  4be00000	jr	r31
 1609  00002258  54000000	nop
 1610  0000225c          	.endproc _QueueInsertFirst
 1611  0000225c          	.align 2
 1612  0000225c          	.proc _QueueInsertLast
 1613  0000225c          	.global _QueueInsertLast
 1614  0000225c          	_QueueInsertLast:
 1615                      ;  Function 'QueueInsertLast'; 0 bytes of locals, 2 regs to save.
 1616  0000225c  afbefffc	sw	-4(r29),r30; push fp
 1617  00002260  001df020	add	r30,r0,r29; fp = sp
 1618  00002264  afbffff8	sw	-8(r29),r31; push ret addr
 1619  00002268  2fbd0010	subui	r29,r29,#16; alloc local storage
 1620  0000226c  afa20000	sw	0(r29),r2
 1621  00002270  afa30004	sw	4(r29),r3
 1622  00002274  8fc30000	lw	r3,(r30)
 1623  00002278  8fc10004	lw	r1,4(r30)
 1624  0000227c  8c620004	lw	r2,4(r3)
 1625  00002280  ac230008	sw	8(r1),r3
 1626  00002284  ac220004	sw	4(r1),r2
 1627  00002288  8c5f0000	lw	r31,(r2)
 1628  0000228c  ac3f0000	sw	(r1),r31
 1629  00002290  ac410000	sw	(r2),r1
 1630  00002294  8c220000	lw	r2,(r1)
 1631  00002298  ac410004	sw	4(r2),r1
 1632  0000229c  8c610008	lw	r1,8(r3)
 1633  000022a0  20210001	addi	r1,r1,#1
 1634  000022a4  ac610008	sw	8(r3),r1
 1635  000022a8  8fa20000	lw	r2,0(r29)
 1636  000022ac  8fa30004	lw	r3,4(r29)
 1637  000022b0  8fdffff8	lw	r31,-8(r30)
 1638  000022b4  001ee820	add	r29,r0,r30
 1639  000022b8  8fdefffc	lw	r30,-4(r30)
 1640  000022bc  4be00000	jr	r31
 1641  000022c0  54000000	nop
 1642  000022c4          	.endproc _QueueInsertLast
 1643  000022c4          	.align 2
 1644  000022c4          	.proc _QueueRemove
 1645  000022c4          	.global _QueueRemove
 1646  000022c4          	_QueueRemove:
 1647                      ;  Function 'QueueRemove'; 0 bytes of locals, 2 regs to save.
 1648  000022c4  afbefffc	sw	-4(r29),r30; push fp
 1649  000022c8  001df020	add	r30,r0,r29; fp = sp
 1650  000022cc  afbffff8	sw	-8(r29),r31; push ret addr
 1651  000022d0  2fbd0010	subui	r29,r29,#16; alloc local storage
 1652  000022d4  afa20000	sw	0(r29),r2
 1653  000022d8  afa30004	sw	4(r29),r3
 1654  000022dc  8fdf0000	lw	r31,(r30)
 1655  000022e0  8fe10008	lw	r1,8(r31)
 1656  000022e4  8c210008	lw	r1,8(r1)
 1657  000022e8  6c210000	sgti	r1,r1,#0
 1658  000022ec  1020002c	beqz	r1,L44_LF3
 1659  000022f0  54000000	nop; not filled.
 1660  000022f4  8fe10004	lw	r1,4(r31)
 1661  000022f8  8fe30000	lw	r3,(r31)
 1662  000022fc  ac230000	sw	(r1),r3
 1663  00002300  8fe10000	lw	r1,(r31)
 1664  00002304  8fe30004	lw	r3,4(r31)
 1665  00002308  ac230004	sw	4(r1),r3
 1666  0000230c  8fe20008	lw	r2,8(r31)
 1667  00002310  8c410008	lw	r1,8(r2)
 1668  00002314  2021ffff	addi	r1,r1,#-1
 1669  00002318  ac410008	sw	8(r2),r1
 1670  0000231c          	L44_LF3:
 1671  0000231c  20030000	addi	r3,r0,#0
 1672  00002320  afe30000	sw	(r31),r3
 1673  00002324  8fa20000	lw	r2,0(r29)
 1674  00002328  8fa30004	lw	r3,4(r29)
 1675  0000232c  8fdffff8	lw	r31,-8(r30)
 1676  00002330  001ee820	add	r29,r0,r30
 1677  00002334  8fdefffc	lw	r30,-4(r30)
 1678  00002338  4be00000	jr	r31
 1679  0000233c  54000000	nop
 1680  00002340          	.endproc _QueueRemove
 1681  00002340          	.align 2
 1682  00002340          	.proc _QueueLength
 1683  00002340          	.global _QueueLength
 1684  00002340          	_QueueLength:
 1685                      ;  Function 'QueueLength'; 0 bytes of locals, 0 regs to save.
 1686  00002340  afbefffc	sw	-4(r29),r30; push fp
 1687  00002344  001df020	add	r30,r0,r29; fp = sp
 1688  00002348  afbffff8	sw	-8(r29),r31; push ret addr
 1689  0000234c  2fbd0008	subui	r29,r29,#8; alloc local storage
 1690  00002350  8fc10000	lw	r1,(r30)
 1691  00002354  8c210008	lw	r1,8(r1)
 1692  00002358  8fdffff8	lw	r31,-8(r30)
 1693  0000235c  001ee820	add	r29,r0,r30
 1694  00002360  8fdefffc	lw	r30,-4(r30)
 1695  00002364  4be00000	jr	r31
 1696  00002368  54000000	nop
 1697  0000236c          	.endproc _QueueLength
 1698  0000236c          	.align 2
 1699  0000236c          	.proc _QueueEmpty
 1700  0000236c          	.global _QueueEmpty
 1701  0000236c          	_QueueEmpty:
 1702                      ;  Function 'QueueEmpty'; 0 bytes of locals, 0 regs to save.
 1703  0000236c  afbefffc	sw	-4(r29),r30; push fp
 1704  00002370  001df020	add	r30,r0,r29; fp = sp
 1705  00002374  afbffff8	sw	-8(r29),r31; push ret addr
 1706  00002378  2fbd0008	subui	r29,r29,#8; alloc local storage
 1707  0000237c  8fc10000	lw	r1,(r30)
 1708  00002380  8c210008	lw	r1,8(r1)
 1709  00002384  60210000	seqi	r1,r1,#0
 1710  00002388  8fdffff8	lw	r31,-8(r30)
 1711  0000238c  001ee820	add	r29,r0,r30
 1712  00002390  8fdefffc	lw	r30,-4(r30)
 1713  00002394  4be00000	jr	r31
 1714  00002398  54000000	nop
 1715  0000239c          	.endproc _QueueEmpty
 1716  0000239c          	.data
 1717  0000d1c9          	.align 2
 1718  0000d1cc          	LC0_LF3:
 1719  0000d1cc  41747465	.ascii "Attepmting to open %s mode=%d.\n\000"
 1719  0000d1d0  706d7469	
 1719  0000d1d4  6e672074	
 1719  0000d1d8  6f206f70	
 1719  0000d1dc  656e2025	
 1719  0000d1e0  73206d6f	
 1719  0000d1e4  64653d25	
 1719  0000d1e8  642e0a00	
 1720  0000d1ec          	.align 2
 1721  0000d1ec          	LC1_LF3:
 1722  0000d1ec  646c783a	.ascii "dlx:\000"
 1722  0000d1f0  00      	
 1723  0000d1f1          	.align 2
 1724  0000d1f4          	LC2_LF3:
 1725  0000d1f4  46696c65	.ascii "File %s opening in file system %d.\n\000"
 1725  0000d1f8  20257320	
 1725  0000d1fc  6f70656e	
 1725  0000d200  696e6720	
 1725  0000d204  696e2066	
 1725  0000d208  696c6520	
 1725  0000d20c  73797374	
 1725  0000d210  656d2025	
 1725  0000d214  642e0a00	
 1726  0000d218          	.align 2
 1727  0000d218          	LC3_LF3:
 1728  0000d218  4f70656e	.ascii "Opened %s in FS %d, mode=%d slot=%d.\n\000"
 1728  0000d21c  65642025	
 1728  0000d220  7320696e	
 1728  0000d224  20465320	
 1728  0000d228  25642c20	
 1728  0000d22c  6d6f6465	
 1728  0000d230  3d256420	
 1728  0000d234  736c6f74	
 1728  0000d238  3d25642e	
 1728  0000d23c  0a00    	
 1729  0000d23e          	.text
 1730  0000239c          	.align 2
 1731  0000239c          	.proc _FsOpen
 1732  0000239c          	.global _FsOpen
 1733  0000239c          	_FsOpen:
 1734                      ;  Function 'FsOpen'; 0 bytes of locals, 7 regs to save.
 1735  0000239c  afbefffc	sw	-4(r29),r30; push fp
 1736  000023a0  001df020	add	r30,r0,r29; fp = sp
 1737  000023a4  afbffff8	sw	-8(r29),r31; push ret addr
 1738  000023a8  2fbd0028	subui	r29,r29,#40; alloc local storage
 1739  000023ac  afa20000	sw	0(r29),r2
 1740  000023b0  afa30004	sw	4(r29),r3
 1741  000023b4  afa40008	sw	8(r29),r4
 1742  000023b8  afa5000c	sw	12(r29),r5
 1743  000023bc  afa60010	sw	16(r29),r6
 1744  000023c0  afa70014	sw	20(r29),r7
 1745  000023c4  afa80018	sw	24(r29),r8
 1746  000023c8  8fc40000	lw	r4,(r30)
 1747  000023cc  8fc50004	lw	r5,4(r30)
 1748  000023d0  23bdfff8	addi	r29,r29,#-8
 1749  000023d4  3c020001	lhi	r2,((_debugstr)>>16)&0xffff
 1750  000023d8  24421f50	addui	r2,r2,(_debugstr)&0xffff
 1751  000023dc  afa20000	sw	(r29),r2
 1752  000023e0  20080066	addi	r8,r0,#102
 1753  000023e4  afa80004	sw	4(r29),r8
 1754  000023e8  0c00264c	jal	_dindex
 1755  000023ec  54000000	nop; not filled.
 1756  000023f0  23bd0008	addi	r29,r29,#8
 1757  000023f4  64210000	snei	r1,r1,#0
 1758  000023f8  1420002c	bnez	r1,L56_LF3
 1759  000023fc  54000000	nop; not filled.
 1760  00002400  23bdfff8	addi	r29,r29,#-8
 1761  00002404  afa20000	sw	(r29),r2
 1762  00002408  2008002b	addi	r8,r0,#43
 1763  0000240c  afa80004	sw	4(r29),r8
 1764  00002410  0c002624	jal	_dindex
 1765  00002414  54000000	nop; not filled.
 1766  00002418  23bd0008	addi	r29,r29,#8
 1767  0000241c  64210000	snei	r1,r1,#0
 1768  00002420  10200028	beqz	r1,L55_LF3
 1769  00002424  54000000	nop; not filled.
 1770  00002428          	L56_LF3:
 1771  00002428  23bdfff0	addi	r29,r29,#-16
 1772  0000242c  3c080000	lhi	r8,((LC0_LF3)>>16)&0xffff
 1773  00002430  2508d1cc	addui	r8,r8,(LC0_LF3)&0xffff
 1774  00002434  afa80000	sw	(r29),r8
 1775  00002438  afa40004	sw	4(r29),r4
 1776  0000243c  afa50008	sw	8(r29),r5
 1777  00002440  0c00a548	jal	_printf
 1778  00002444  54000000	nop; not filled.
 1779  00002448  23bd0010	addi	r29,r29,#16
 1780  0000244c          	L55_LF3:
 1781  0000244c  30a50003	andi	r5,r5,#3
 1782  00002450  64a10000	snei	r1,r5,#0
 1783  00002454  10200044	beqz	r1,L74_LF3
 1784  00002458  54000000	nop; not filled.
 1785  0000245c  20030000	addi	r3,r0,#0
 1786  00002460  3c060000	lhi	r6,((_openfiles_LF3)>>16)&0xffff
 1787  00002464  24c6d2a4	addui	r6,r6,(_openfiles_LF3)&0xffff
 1788  00002468  00061020	add	r2,r0,r6
 1789  0000246c          	L61_LF3:
 1790  0000246c  8c410004	lw	r1,4(r2)
 1791  00002470  64210000	snei	r1,r1,#0
 1792  00002474  10200018	beqz	r1,L59_LF3
 1793  00002478  54000000	nop; not filled.
 1794  0000247c  2042010c	addi	r2,r2,#268
 1795  00002480  20630001	addi	r3,r3,#1
 1796  00002484  7061001f	slei	r1,r3,#31
 1797  00002488  1420ffe0	bnez	r1,L61_LF3
 1798  0000248c  54000000	nop; not filled.
 1799  00002490          	L59_LF3:
 1800  00002490  6c61001f	sgti	r1,r3,#31
 1801  00002494  10200010	beqz	r1,L64_LF3
 1802  00002498  54000000	nop; not filled.
 1803  0000249c          	L74_LF3:
 1804  0000249c  2001ffff	addi	r1,r0,#-1
 1805  000024a0  08000224	j	L73_LF3
 1806  000024a4  54000000	nop; not filled.
 1807  000024a8          	L64_LF3:
 1808  000024a8  50610004	slli	r1,r3,#0x4
 1809  000024ac  00230820	add	r1,r1,r3
 1810  000024b0  50210002	slli	r1,r1,#0x2
 1811  000024b4  00230822	sub	r1,r1,r3
 1812  000024b8  50210002	slli	r1,r1,#0x2
 1813  000024bc  00261020	add	r2,r1,r6
 1814  000024c0  ac450004	sw	4(r2),r5
 1815  000024c4  23bdfff0	addi	r29,r29,#-16
 1816  000024c8  afa40000	sw	(r29),r4
 1817  000024cc  3c010000	lhi	r1,((LC1_LF3)>>16)&0xffff
 1818  000024d0  2421d1ec	addui	r1,r1,(LC1_LF3)&0xffff
 1819  000024d4  afa10004	sw	4(r29),r1
 1820  000024d8  20080004	addi	r8,r0,#4
 1821  000024dc  afa80008	sw	8(r29),r8
 1822  000024e0  0c002210	jal	_dstrncmp
 1823  000024e4  54000000	nop; not filled.
 1824  000024e8  23bd0010	addi	r29,r29,#16
 1825  000024ec  64210000	snei	r1,r1,#0
 1826  000024f0  14200014	bnez	r1,L65_LF3
 1827  000024f4  54000000	nop; not filled.
 1828  000024f8  20840004	addi	r4,r4,#4
 1829  000024fc  20080001	addi	r8,r0,#1
 1830  00002500  08000008	j	L75_LF3
 1831  00002504  54000000	nop; not filled.
 1832  00002508          	L65_LF3:
 1833  00002508  20080000	addi	r8,r0,#0
 1834  0000250c          	L75_LF3:
 1835  0000250c  ac480000	sw	(r2),r8
 1836  00002510  23bdfff8	addi	r29,r29,#-8
 1837  00002514  3c020001	lhi	r2,((_debugstr)>>16)&0xffff
 1838  00002518  24421f50	addui	r2,r2,(_debugstr)&0xffff
 1839  0000251c  afa20000	sw	(r29),r2
 1840  00002520  20080066	addi	r8,r0,#102
 1841  00002524  afa80004	sw	4(r29),r8
 1842  00002528  0c00250c	jal	_dindex
 1843  0000252c  54000000	nop; not filled.
 1844  00002530  23bd0008	addi	r29,r29,#8
 1845  00002534  64210000	snei	r1,r1,#0
 1846  00002538  1420002c	bnez	r1,L68_LF3
 1847  0000253c  54000000	nop; not filled.
 1848  00002540  23bdfff8	addi	r29,r29,#-8
 1849  00002544  afa20000	sw	(r29),r2
 1850  00002548  2008002b	addi	r8,r0,#43
 1851  0000254c  afa80004	sw	4(r29),r8
 1852  00002550  0c0024e4	jal	_dindex
 1853  00002554  54000000	nop; not filled.
 1854  00002558  23bd0008	addi	r29,r29,#8
 1855  0000255c  64210000	snei	r1,r1,#0
 1856  00002560  1020004c	beqz	r1,L67_LF3
 1857  00002564  54000000	nop; not filled.
 1858  00002568          	L68_LF3:
 1859  00002568  23bdfff0	addi	r29,r29,#-16
 1860  0000256c  3c080000	lhi	r8,((LC2_LF3)>>16)&0xffff
 1861  00002570  2508d1f4	addui	r8,r8,(LC2_LF3)&0xffff
 1862  00002574  afa80000	sw	(r29),r8
 1863  00002578  afa40004	sw	4(r29),r4
 1864  0000257c  50610004	slli	r1,r3,#0x4
 1865  00002580  00230820	add	r1,r1,r3
 1866  00002584  50210002	slli	r1,r1,#0x2
 1867  00002588  00230822	sub	r1,r1,r3
 1868  0000258c  50210002	slli	r1,r1,#0x2
 1869  00002590  3c080000	lhi	r8,((_openfiles_LF3)>>16)&0xffff
 1870  00002594  2508d2a4	addui	r8,r8,(_openfiles_LF3)&0xffff
 1871  00002598  00280820	add	r1,r1,r8
 1872  0000259c  8c210000	lw	r1,(r1)
 1873  000025a0  afa10008	sw	8(r29),r1
 1874  000025a4  0c00a3e4	jal	_printf
 1875  000025a8  54000000	nop; not filled.
 1876  000025ac  23bd0010	addi	r29,r29,#16
 1877  000025b0          	L67_LF3:
 1878  000025b0  23bdfff0	addi	r29,r29,#-16
 1879  000025b4  50610004	slli	r1,r3,#0x4
 1880  000025b8  00230820	add	r1,r1,r3
 1881  000025bc  50210002	slli	r1,r1,#0x2
 1882  000025c0  00230822	sub	r1,r1,r3
 1883  000025c4  50260002	slli	r6,r1,#0x2
 1884  000025c8  3c080000	lhi	r8,((_openfiles_LF3)>>16)&0xffff
 1885  000025cc  2508d2a4	addui	r8,r8,(_openfiles_LF3)&0xffff
 1886  000025d0  00c83820	add	r7,r6,r8
 1887  000025d4  8ce20000	lw	r2,(r7)
 1888  000025d8  50410001	slli	r1,r2,#0x1
 1889  000025dc  00220820	add	r1,r1,r2
 1890  000025e0  50210003	slli	r1,r1,#0x3
 1891  000025e4  3c080000	lhi	r8,((_fs_LF3)>>16)&0xffff
 1892  000025e8  2508d274	addui	r8,r8,(_fs_LF3)&0xffff
 1893  000025ec  00280820	add	r1,r1,r8
 1894  000025f0  afa30000	sw	(r29),r3
 1895  000025f4  afa40004	sw	4(r29),r4
 1896  000025f8  afa50008	sw	8(r29),r5
 1897  000025fc  8c210000	lw	r1,(r1)
 1898  00002600  4c200000	jalr	r1
 1899  00002604  54000000	nop; not filled.
 1900  00002608  00011020	add	r2,r0,r1
 1901  0000260c  23bd0010	addi	r29,r29,#16
 1902  00002610  68410000	slti	r1,r2,#0
 1903  00002614  10200024	beqz	r1,L69_LF3
 1904  00002618  54000000	nop; not filled.
 1905  0000261c  3c080000	lhi	r8,((_openfiles_LF3)>>16)&0xffff
 1906  00002620  2508d2a4	addui	r8,r8,(_openfiles_LF3)&0xffff
 1907  00002624  00c80820	add	r1,r6,r8
 1908  00002628  20080000	addi	r8,r0,#0
 1909  0000262c  ac280004	sw	4(r1),r8
 1910  00002630  00020820	add	r1,r0,r2
 1911  00002634  08000090	j	L73_LF3
 1912  00002638  54000000	nop; not filled.
 1913  0000263c          	L69_LF3:
 1914  0000263c  23bdfff8	addi	r29,r29,#-8
 1915  00002640  3c020001	lhi	r2,((_debugstr)>>16)&0xffff
 1916  00002644  24421f50	addui	r2,r2,(_debugstr)&0xffff
 1917  00002648  afa20000	sw	(r29),r2
 1918  0000264c  20080066	addi	r8,r0,#102
 1919  00002650  afa80004	sw	4(r29),r8
 1920  00002654  0c0023e0	jal	_dindex
 1921  00002658  54000000	nop; not filled.
 1922  0000265c  23bd0008	addi	r29,r29,#8
 1923  00002660  64210000	snei	r1,r1,#0
 1924  00002664  1420002c	bnez	r1,L72_LF3
 1925  00002668  54000000	nop; not filled.
 1926  0000266c  23bdfff8	addi	r29,r29,#-8
 1927  00002670  afa20000	sw	(r29),r2
 1928  00002674  2008002b	addi	r8,r0,#43
 1929  00002678  afa80004	sw	4(r29),r8
 1930  0000267c  0c0023b8	jal	_dindex
 1931  00002680  54000000	nop; not filled.
 1932  00002684  23bd0008	addi	r29,r29,#8
 1933  00002688  64210000	snei	r1,r1,#0
 1934  0000268c  10200034	beqz	r1,L71_LF3
 1935  00002690  54000000	nop; not filled.
 1936  00002694          	L72_LF3:
 1937  00002694  23bdffe8	addi	r29,r29,#-24
 1938  00002698  3c080000	lhi	r8,((LC3_LF3)>>16)&0xffff
 1939  0000269c  2508d218	addui	r8,r8,(LC3_LF3)&0xffff
 1940  000026a0  afa80000	sw	(r29),r8
 1941  000026a4  afa40004	sw	4(r29),r4
 1942  000026a8  8ce70000	lw	r7,(r7)
 1943  000026ac  afa70008	sw	8(r29),r7
 1944  000026b0  afa5000c	sw	12(r29),r5
 1945  000026b4  afa30010	sw	16(r29),r3
 1946  000026b8  0c00a2d0	jal	_printf
 1947  000026bc  54000000	nop; not filled.
 1948  000026c0  23bd0018	addi	r29,r29,#24
 1949  000026c4          	L71_LF3:
 1950  000026c4  00030820	add	r1,r0,r3
 1951  000026c8          	L73_LF3:
 1952  000026c8  8fa20000	lw	r2,0(r29)
 1953  000026cc  8fa30004	lw	r3,4(r29)
 1954  000026d0  8fa40008	lw	r4,8(r29)
 1955  000026d4  8fa5000c	lw	r5,12(r29)
 1956  000026d8  8fa60010	lw	r6,16(r29)
 1957  000026dc  8fa70014	lw	r7,20(r29)
 1958  000026e0  8fa80018	lw	r8,24(r29)
 1959  000026e4  8fdffff8	lw	r31,-8(r30)
 1960  000026e8  001ee820	add	r29,r0,r30
 1961  000026ec  8fdefffc	lw	r30,-4(r30)
 1962  000026f0  4be00000	jr	r31
 1963  000026f4  54000000	nop
 1964  000026f8          	.endproc _FsOpen
 1965  000026f8          	.align 2
 1966  000026f8          	.proc _FsClose
 1967  000026f8          	.global _FsClose
 1968  000026f8          	_FsClose:
 1969                      ;  Function 'FsClose'; 0 bytes of locals, 3 regs to save.
 1970  000026f8  afbefffc	sw	-4(r29),r30; push fp
 1971  000026fc  001df020	add	r30,r0,r29; fp = sp
 1972  00002700  afbffff8	sw	-8(r29),r31; push ret addr
 1973  00002704  2fbd0018	subui	r29,r29,#24; alloc local storage
 1974  00002708  afa20000	sw	0(r29),r2
 1975  0000270c  afa30004	sw	4(r29),r3
 1976  00002710  afa40008	sw	8(r29),r4
 1977  00002714  8fdf0000	lw	r31,(r30)
 1978  00002718  20020000	addi	r2,r0,#0
 1979  0000271c  23e1ffff	addi	r1,r31,#-1
 1980  00002720  7021001e	sleui	r1,r1,#30
 1981  00002724  10200038	beqz	r1,L84_LF3
 1982  00002728  54000000	nop; not filled.
 1983  0000272c  53e10004	slli	r1,r31,#0x4
 1984  00002730  003f0820	add	r1,r1,r31
 1985  00002734  50210002	slli	r1,r1,#0x2
 1986  00002738  003f0822	sub	r1,r1,r31
 1987  0000273c  50210002	slli	r1,r1,#0x2
 1988  00002740  3c040000	lhi	r4,((_openfiles_LF3)>>16)&0xffff
 1989  00002744  2484d2a4	addui	r4,r4,(_openfiles_LF3)&0xffff
 1990  00002748  00240820	add	r1,r1,r4
 1991  0000274c  8c210004	lw	r1,4(r1)
 1992  00002750  64210000	snei	r1,r1,#0
 1993  00002754  10200008	beqz	r1,L84_LF3
 1994  00002758  54000000	nop; not filled.
 1995  0000275c  20020001	addi	r2,r0,#1
 1996  00002760          	L84_LF3:
 1997  00002760  64410000	snei	r1,r2,#0
 1998  00002764  10200074	beqz	r1,L82_LF3
 1999  00002768  54000000	nop; not filled.
 2000  0000276c  23bdfff8	addi	r29,r29,#-8
 2001  00002770  53e10004	slli	r1,r31,#0x4
 2002  00002774  003f0820	add	r1,r1,r31
 2003  00002778  50210002	slli	r1,r1,#0x2
 2004  0000277c  003f0822	sub	r1,r1,r31
 2005  00002780  50230002	slli	r3,r1,#0x2
 2006  00002784  3c040000	lhi	r4,((_openfiles_LF3)>>16)&0xffff
 2007  00002788  2484d2a4	addui	r4,r4,(_openfiles_LF3)&0xffff
 2008  0000278c  00640820	add	r1,r3,r4
 2009  00002790  8c220000	lw	r2,(r1)
 2010  00002794  50410001	slli	r1,r2,#0x1
 2011  00002798  00220820	add	r1,r1,r2
 2012  0000279c  50210003	slli	r1,r1,#0x3
 2013  000027a0  3c040000	lhi	r4,((_fs_LF3)>>16)&0xffff
 2014  000027a4  2484d274	addui	r4,r4,(_fs_LF3)&0xffff
 2015  000027a8  00240820	add	r1,r1,r4
 2016  000027ac  afbf0000	sw	(r29),r31
 2017  000027b0  8c210010	lw	r1,16(r1)
 2018  000027b4  4c200000	jalr	r1
 2019  000027b8  54000000	nop; not filled.
 2020  000027bc  23bd0008	addi	r29,r29,#8
 2021  000027c0  3c040000	lhi	r4,((_openfiles_LF3)>>16)&0xffff
 2022  000027c4  2484d2a4	addui	r4,r4,(_openfiles_LF3)&0xffff
 2023  000027c8  00641020	add	r2,r3,r4
 2024  000027cc  20040000	addi	r4,r0,#0
 2025  000027d0  ac440004	sw	4(r2),r4
 2026  000027d4  08000008	j	L86_LF3
 2027  000027d8  54000000	nop; not filled.
 2028  000027dc          	L82_LF3:
 2029  000027dc  2001ffff	addi	r1,r0,#-1
 2030  000027e0          	L86_LF3:
 2031  000027e0  8fa20000	lw	r2,0(r29)
 2032  000027e4  8fa30004	lw	r3,4(r29)
 2033  000027e8  8fa40008	lw	r4,8(r29)
 2034  000027ec  8fdffff8	lw	r31,-8(r30)
 2035  000027f0  001ee820	add	r29,r0,r30
 2036  000027f4  8fdefffc	lw	r30,-4(r30)
 2037  000027f8  4be00000	jr	r31
 2038  000027fc  54000000	nop
 2039  00002800          	.endproc _FsClose
 2040  00002800          	.align 2
 2041  00002800          	.proc _FsRead
 2042  00002800          	.global _FsRead
 2043  00002800          	_FsRead:
 2044                      ;  Function 'FsRead'; 0 bytes of locals, 2 regs to save.
 2045  00002800  afbefffc	sw	-4(r29),r30; push fp
 2046  00002804  001df020	add	r30,r0,r29; fp = sp
 2047  00002808  afbffff8	sw	-8(r29),r31; push ret addr
 2048  0000280c  2fbd0010	subui	r29,r29,#16; alloc local storage
 2049  00002810  afa20000	sw	0(r29),r2
 2050  00002814  afa30004	sw	4(r29),r3
 2051  00002818  8fdf0000	lw	r31,(r30)
 2052  0000281c  20020000	addi	r2,r0,#0
 2053  00002820  23e1ffff	addi	r1,r31,#-1
 2054  00002824  7021001e	sleui	r1,r1,#30
 2055  00002828  10200038	beqz	r1,L94_LF3
 2056  0000282c  54000000	nop; not filled.
 2057  00002830  53e10004	slli	r1,r31,#0x4
 2058  00002834  003f0820	add	r1,r1,r31
 2059  00002838  50210002	slli	r1,r1,#0x2
 2060  0000283c  003f0822	sub	r1,r1,r31
 2061  00002840  50210002	slli	r1,r1,#0x2
 2062  00002844  3c030000	lhi	r3,((_openfiles_LF3)>>16)&0xffff
 2063  00002848  2463d2a4	addui	r3,r3,(_openfiles_LF3)&0xffff
 2064  0000284c  00230820	add	r1,r1,r3
 2065  00002850  8c210004	lw	r1,4(r1)
 2066  00002854  64210000	snei	r1,r1,#0
 2067  00002858  10200008	beqz	r1,L94_LF3
 2068  0000285c  54000000	nop; not filled.
 2069  00002860  20020001	addi	r2,r0,#1
 2070  00002864          	L94_LF3:
 2071  00002864  64410000	snei	r1,r2,#0
 2072  00002868  10200070	beqz	r1,L92_LF3
 2073  0000286c  54000000	nop; not filled.
 2074  00002870  23bdfff0	addi	r29,r29,#-16
 2075  00002874  53e10004	slli	r1,r31,#0x4
 2076  00002878  003f0820	add	r1,r1,r31
 2077  0000287c  50210002	slli	r1,r1,#0x2
 2078  00002880  003f0822	sub	r1,r1,r31
 2079  00002884  50210002	slli	r1,r1,#0x2
 2080  00002888  3c030000	lhi	r3,((_openfiles_LF3)>>16)&0xffff
 2081  0000288c  2463d2a4	addui	r3,r3,(_openfiles_LF3)&0xffff
 2082  00002890  00230820	add	r1,r1,r3
 2083  00002894  8c220000	lw	r2,(r1)
 2084  00002898  50410001	slli	r1,r2,#0x1
 2085  0000289c  00220820	add	r1,r1,r2
 2086  000028a0  50210003	slli	r1,r1,#0x3
 2087  000028a4  3c030000	lhi	r3,((_fs_LF3)>>16)&0xffff
 2088  000028a8  2463d274	addui	r3,r3,(_fs_LF3)&0xffff
 2089  000028ac  00230820	add	r1,r1,r3
 2090  000028b0  afbf0000	sw	(r29),r31
 2091  000028b4  8fc30004	lw	r3,4(r30)
 2092  000028b8  afa30004	sw	4(r29),r3
 2093  000028bc  8fc30008	lw	r3,8(r30)
 2094  000028c0  afa30008	sw	8(r29),r3
 2095  000028c4  8c210004	lw	r1,4(r1)
 2096  000028c8  4c200000	jalr	r1
 2097  000028cc  54000000	nop; not filled.
 2098  000028d0  23bd0010	addi	r29,r29,#16
 2099  000028d4  08000008	j	L91_LF3
 2100  000028d8  54000000	nop; not filled.
 2101  000028dc          	L92_LF3:
 2102  000028dc  2001ffff	addi	r1,r0,#-1
 2103  000028e0          	L91_LF3:
 2104  000028e0  8fa20000	lw	r2,0(r29)
 2105  000028e4  8fa30004	lw	r3,4(r29)
 2106  000028e8  8fdffff8	lw	r31,-8(r30)
 2107  000028ec  001ee820	add	r29,r0,r30
 2108  000028f0  8fdefffc	lw	r30,-4(r30)
 2109  000028f4  4be00000	jr	r31
 2110  000028f8  54000000	nop
 2111  000028fc          	.endproc _FsRead
 2112  000028fc          	.align 2
 2113  000028fc          	.proc _FsWrite
 2114  000028fc          	.global _FsWrite
 2115  000028fc          	_FsWrite:
 2116                      ;  Function 'FsWrite'; 0 bytes of locals, 2 regs to save.
 2117  000028fc  afbefffc	sw	-4(r29),r30; push fp
 2118  00002900  001df020	add	r30,r0,r29; fp = sp
 2119  00002904  afbffff8	sw	-8(r29),r31; push ret addr
 2120  00002908  2fbd0010	subui	r29,r29,#16; alloc local storage
 2121  0000290c  afa20000	sw	0(r29),r2
 2122  00002910  afa30004	sw	4(r29),r3
 2123  00002914  8fdf0000	lw	r31,(r30)
 2124  00002918  20020000	addi	r2,r0,#0
 2125  0000291c  23e1ffff	addi	r1,r31,#-1
 2126  00002920  7021001e	sleui	r1,r1,#30
 2127  00002924  10200038	beqz	r1,L103_LF3
 2128  00002928  54000000	nop; not filled.
 2129  0000292c  53e10004	slli	r1,r31,#0x4
 2130  00002930  003f0820	add	r1,r1,r31
 2131  00002934  50210002	slli	r1,r1,#0x2
 2132  00002938  003f0822	sub	r1,r1,r31
 2133  0000293c  50210002	slli	r1,r1,#0x2
 2134  00002940  3c030000	lhi	r3,((_openfiles_LF3)>>16)&0xffff
 2135  00002944  2463d2a4	addui	r3,r3,(_openfiles_LF3)&0xffff
 2136  00002948  00230820	add	r1,r1,r3
 2137  0000294c  8c210004	lw	r1,4(r1)
 2138  00002950  64210000	snei	r1,r1,#0
 2139  00002954  10200008	beqz	r1,L103_LF3
 2140  00002958  54000000	nop; not filled.
 2141  0000295c  20020001	addi	r2,r0,#1
 2142  00002960          	L103_LF3:
 2143  00002960  64410000	snei	r1,r2,#0
 2144  00002964  10200070	beqz	r1,L101_LF3
 2145  00002968  54000000	nop; not filled.
 2146  0000296c  23bdfff0	addi	r29,r29,#-16
 2147  00002970  53e10004	slli	r1,r31,#0x4
 2148  00002974  003f0820	add	r1,r1,r31
 2149  00002978  50210002	slli	r1,r1,#0x2
 2150  0000297c  003f0822	sub	r1,r1,r31
 2151  00002980  50210002	slli	r1,r1,#0x2
 2152  00002984  3c030000	lhi	r3,((_openfiles_LF3)>>16)&0xffff
 2153  00002988  2463d2a4	addui	r3,r3,(_openfiles_LF3)&0xffff
 2154  0000298c  00230820	add	r1,r1,r3
 2155  00002990  8c220000	lw	r2,(r1)
 2156  00002994  50410001	slli	r1,r2,#0x1
 2157  00002998  00220820	add	r1,r1,r2
 2158  0000299c  50210003	slli	r1,r1,#0x3
 2159  000029a0  3c030000	lhi	r3,((_fs_LF3)>>16)&0xffff
 2160  000029a4  2463d274	addui	r3,r3,(_fs_LF3)&0xffff
 2161  000029a8  00230820	add	r1,r1,r3
 2162  000029ac  afbf0000	sw	(r29),r31
 2163  000029b0  8fc30004	lw	r3,4(r30)
 2164  000029b4  afa30004	sw	4(r29),r3
 2165  000029b8  8fc30008	lw	r3,8(r30)
 2166  000029bc  afa30008	sw	8(r29),r3
 2167  000029c0  8c210008	lw	r1,8(r1)
 2168  000029c4  4c200000	jalr	r1
 2169  000029c8  54000000	nop; not filled.
 2170  000029cc  23bd0010	addi	r29,r29,#16
 2171  000029d0  08000008	j	L100_LF3
 2172  000029d4  54000000	nop; not filled.
 2173  000029d8          	L101_LF3:
 2174  000029d8  2001ffff	addi	r1,r0,#-1
 2175  000029dc          	L100_LF3:
 2176  000029dc  8fa20000	lw	r2,0(r29)
 2177  000029e0  8fa30004	lw	r3,4(r29)
 2178  000029e4  8fdffff8	lw	r31,-8(r30)
 2179  000029e8  001ee820	add	r29,r0,r30
 2180  000029ec  8fdefffc	lw	r30,-4(r30)
 2181  000029f0  4be00000	jr	r31
 2182  000029f4  54000000	nop
 2183  000029f8          	.endproc _FsWrite
 2184  000029f8          	.align 2
 2185  000029f8          	.proc _FsSeek
 2186  000029f8          	.global _FsSeek
 2187  000029f8          	_FsSeek:
 2188                      ;  Function 'FsSeek'; 0 bytes of locals, 2 regs to save.
 2189  000029f8  afbefffc	sw	-4(r29),r30; push fp
 2190  000029fc  001df020	add	r30,r0,r29; fp = sp
 2191  00002a00  afbffff8	sw	-8(r29),r31; push ret addr
 2192  00002a04  2fbd0010	subui	r29,r29,#16; alloc local storage
 2193  00002a08  afa20000	sw	0(r29),r2
 2194  00002a0c  afa30004	sw	4(r29),r3
 2195  00002a10  8fdf0000	lw	r31,(r30)
 2196  00002a14  20020000	addi	r2,r0,#0
 2197  00002a18  23e1ffff	addi	r1,r31,#-1
 2198  00002a1c  7021001e	sleui	r1,r1,#30
 2199  00002a20  10200038	beqz	r1,L112_LF3
 2200  00002a24  54000000	nop; not filled.
 2201  00002a28  53e10004	slli	r1,r31,#0x4
 2202  00002a2c  003f0820	add	r1,r1,r31
 2203  00002a30  50210002	slli	r1,r1,#0x2
 2204  00002a34  003f0822	sub	r1,r1,r31
 2205  00002a38  50210002	slli	r1,r1,#0x2
 2206  00002a3c  3c030000	lhi	r3,((_openfiles_LF3)>>16)&0xffff
 2207  00002a40  2463d2a4	addui	r3,r3,(_openfiles_LF3)&0xffff
 2208  00002a44  00230820	add	r1,r1,r3
 2209  00002a48  8c210004	lw	r1,4(r1)
 2210  00002a4c  64210000	snei	r1,r1,#0
 2211  00002a50  10200008	beqz	r1,L112_LF3
 2212  00002a54  54000000	nop; not filled.
 2213  00002a58  20020001	addi	r2,r0,#1
 2214  00002a5c          	L112_LF3:
 2215  00002a5c  64410000	snei	r1,r2,#0
 2216  00002a60  10200070	beqz	r1,L110_LF3
 2217  00002a64  54000000	nop; not filled.
 2218  00002a68  23bdfff0	addi	r29,r29,#-16
 2219  00002a6c  53e10004	slli	r1,r31,#0x4
 2220  00002a70  003f0820	add	r1,r1,r31
 2221  00002a74  50210002	slli	r1,r1,#0x2
 2222  00002a78  003f0822	sub	r1,r1,r31
 2223  00002a7c  50210002	slli	r1,r1,#0x2
 2224  00002a80  3c030000	lhi	r3,((_openfiles_LF3)>>16)&0xffff
 2225  00002a84  2463d2a4	addui	r3,r3,(_openfiles_LF3)&0xffff
 2226  00002a88  00230820	add	r1,r1,r3
 2227  00002a8c  8c220000	lw	r2,(r1)
 2228  00002a90  50410001	slli	r1,r2,#0x1
 2229  00002a94  00220820	add	r1,r1,r2
 2230  00002a98  50210003	slli	r1,r1,#0x3
 2231  00002a9c  3c030000	lhi	r3,((_fs_LF3)>>16)&0xffff
 2232  00002aa0  2463d274	addui	r3,r3,(_fs_LF3)&0xffff
 2233  00002aa4  00230820	add	r1,r1,r3
 2234  00002aa8  afbf0000	sw	(r29),r31
 2235  00002aac  8fc30004	lw	r3,4(r30)
 2236  00002ab0  afa30004	sw	4(r29),r3
 2237  00002ab4  8fc30008	lw	r3,8(r30)
 2238  00002ab8  afa30008	sw	8(r29),r3
 2239  00002abc  8c21000c	lw	r1,12(r1)
 2240  00002ac0  4c200000	jalr	r1
 2241  00002ac4  54000000	nop; not filled.
 2242  00002ac8  23bd0010	addi	r29,r29,#16
 2243  00002acc  08000008	j	L109_LF3
 2244  00002ad0  54000000	nop; not filled.
 2245  00002ad4          	L110_LF3:
 2246  00002ad4  2001ffff	addi	r1,r0,#-1
 2247  00002ad8          	L109_LF3:
 2248  00002ad8  8fa20000	lw	r2,0(r29)
 2249  00002adc  8fa30004	lw	r3,4(r29)
 2250  00002ae0  8fdffff8	lw	r31,-8(r30)
 2251  00002ae4  001ee820	add	r29,r0,r30
 2252  00002ae8  8fdefffc	lw	r30,-4(r30)
 2253  00002aec  4be00000	jr	r31
 2254  00002af0  54000000	nop
 2255  00002af4          	.endproc _FsSeek
 2256  00002af4          	.align 2
 2257  00002af4          	.proc _FsDelete
 2258  00002af4          	.global _FsDelete
 2259  00002af4          	_FsDelete:
 2260                      ;  Function 'FsDelete'; 0 bytes of locals, 2 regs to save.
 2261  00002af4  afbefffc	sw	-4(r29),r30; push fp
 2262  00002af8  001df020	add	r30,r0,r29; fp = sp
 2263  00002afc  afbffff8	sw	-8(r29),r31; push ret addr
 2264  00002b00  2fbd0010	subui	r29,r29,#16; alloc local storage
 2265  00002b04  afa20000	sw	0(r29),r2
 2266  00002b08  afa30004	sw	4(r29),r3
 2267  00002b0c  8fc20000	lw	r2,(r30)
 2268  00002b10  23bdfff0	addi	r29,r29,#-16
 2269  00002b14  afa20000	sw	(r29),r2
 2270  00002b18  3c010000	lhi	r1,((LC1_LF3)>>16)&0xffff
 2271  00002b1c  2421d1ec	addui	r1,r1,(LC1_LF3)&0xffff
 2272  00002b20  afa10004	sw	4(r29),r1
 2273  00002b24  20030004	addi	r3,r0,#4
 2274  00002b28  afa30008	sw	8(r29),r3
 2275  00002b2c  0c001bc4	jal	_dstrncmp
 2276  00002b30  54000000	nop; not filled.
 2277  00002b34  23bd0010	addi	r29,r29,#16
 2278  00002b38  64210000	snei	r1,r1,#0
 2279  00002b3c  1420001c	bnez	r1,L118_LF3
 2280  00002b40  54000000	nop; not filled.
 2281  00002b44  20420004	addi	r2,r2,#4
 2282  00002b48  23bdfff8	addi	r29,r29,#-8
 2283  00002b4c  3c010000	lhi	r1,((_fs_LF3+44)>>16)&0xffff
 2284  00002b50  2421d2a0	addui	r1,r1,(_fs_LF3+44)&0xffff
 2285  00002b54  08000010	j	L120_LF3
 2286  00002b58  54000000	nop; not filled.
 2287  00002b5c          	L118_LF3:
 2288  00002b5c  23bdfff8	addi	r29,r29,#-8
 2289  00002b60  3c010000	lhi	r1,((_fs_LF3+20)>>16)&0xffff
 2290  00002b64  2421d288	addui	r1,r1,(_fs_LF3+20)&0xffff
 2291  00002b68          	L120_LF3:
 2292  00002b68  afa20000	sw	(r29),r2
 2293  00002b6c  8c210000	lw	r1,(r1)
 2294  00002b70  4c200000	jalr	r1
 2295  00002b74  54000000	nop; not filled.
 2296  00002b78  23bd0008	addi	r29,r29,#8
 2297  00002b7c  8fa20000	lw	r2,0(r29)
 2298  00002b80  8fa30004	lw	r3,4(r29)
 2299  00002b84  8fdffff8	lw	r31,-8(r30)
 2300  00002b88  001ee820	add	r29,r0,r30
 2301  00002b8c  8fdefffc	lw	r30,-4(r30)
 2302  00002b90  4be00000	jr	r31
 2303  00002b94  54000000	nop
 2304  00002b98          	.endproc _FsDelete
 2305  00002b98          	.data
 2306  0000d23e          	.align 2
 2307  0000d240          	LC4_LF3:
 2308  0000d240  41747465	.ascii "Attempting to open file %s into desc %d, mode %d.\n\000"
 2308  0000d244  6d707469	
 2308  0000d248  6e672074	
 2308  0000d24c  6f206f70	
 2308  0000d250  656e2066	
 2308  0000d254  696c6520	
 2308  0000d258  25732069	
 2308  0000d25c  6e746f20	
 2308  0000d260  64657363	
 2308  0000d264  2025642c	
 2308  0000d268  206d6f64	
 2308  0000d26c  65202564	
 2308  0000d270  2e0a00  	
 2309  0000d273          	.text
 2310  00002b98          	.align 2
 2311  00002b98          	.proc _FsUnixOpen
 2312  00002b98          	.global _FsUnixOpen
 2313  00002b98          	_FsUnixOpen:
 2314                      ;  Function 'FsUnixOpen'; 0 bytes of locals, 5 regs to save.
 2315  00002b98  afbefffc	sw	-4(r29),r30; push fp
 2316  00002b9c  001df020	add	r30,r0,r29; fp = sp
 2317  00002ba0  afbffff8	sw	-8(r29),r31; push ret addr
 2318  00002ba4  2fbd0020	subui	r29,r29,#32; alloc local storage
 2319  00002ba8  afa20000	sw	0(r29),r2
 2320  00002bac  afa30004	sw	4(r29),r3
 2321  00002bb0  afa40008	sw	8(r29),r4
 2322  00002bb4  afa5000c	sw	12(r29),r5
 2323  00002bb8  afa60010	sw	16(r29),r6
 2324  00002bbc  8fc40000	lw	r4,(r30)
 2325  00002bc0  8fc30004	lw	r3,4(r30)
 2326  00002bc4  8fc50008	lw	r5,8(r30)
 2327  00002bc8  23bdfff8	addi	r29,r29,#-8
 2328  00002bcc  3c020001	lhi	r2,((_debugstr)>>16)&0xffff
 2329  00002bd0  24421f50	addui	r2,r2,(_debugstr)&0xffff
 2330  00002bd4  afa20000	sw	(r29),r2
 2331  00002bd8  20060066	addi	r6,r0,#102
 2332  00002bdc  afa60004	sw	4(r29),r6
 2333  00002be0  0c001e54	jal	_dindex
 2334  00002be4  54000000	nop; not filled.
 2335  00002be8  23bd0008	addi	r29,r29,#8
 2336  00002bec  64210000	snei	r1,r1,#0
 2337  00002bf0  1420002c	bnez	r1,L127_LF3
 2338  00002bf4  54000000	nop; not filled.
 2339  00002bf8  23bdfff8	addi	r29,r29,#-8
 2340  00002bfc  afa20000	sw	(r29),r2
 2341  00002c00  2006002b	addi	r6,r0,#43
 2342  00002c04  afa60004	sw	4(r29),r6
 2343  00002c08  0c001e2c	jal	_dindex
 2344  00002c0c  54000000	nop; not filled.
 2345  00002c10  23bd0008	addi	r29,r29,#8
 2346  00002c14  64210000	snei	r1,r1,#0
 2347  00002c18  1020002c	beqz	r1,L126_LF3
 2348  00002c1c  54000000	nop; not filled.
 2349  00002c20          	L127_LF3:
 2350  00002c20  23bdfff0	addi	r29,r29,#-16
 2351  00002c24  3c060000	lhi	r6,((LC4_LF3)>>16)&0xffff
 2352  00002c28  24c6d240	addui	r6,r6,(LC4_LF3)&0xffff
 2353  00002c2c  afa60000	sw	(r29),r6
 2354  00002c30  afa30004	sw	4(r29),r3
 2355  00002c34  afa40008	sw	8(r29),r4
 2356  00002c38  afa5000c	sw	12(r29),r5
 2357  00002c3c  0c009d4c	jal	_printf
 2358  00002c40  54000000	nop; not filled.
 2359  00002c44  23bd0010	addi	r29,r29,#16
 2360  00002c48          	L126_LF3:
 2361  00002c48  23bdfff8	addi	r29,r29,#-8
 2362  00002c4c  afa30000	sw	(r29),r3
 2363  00002c50  afa50004	sw	4(r29),r5
 2364  00002c54  0c009ca4	jal	_open
 2365  00002c58  54000000	nop; not filled.
 2366  00002c5c  00011820	add	r3,r0,r1
 2367  00002c60  50810004	slli	r1,r4,#0x4
 2368  00002c64  00240820	add	r1,r1,r4
 2369  00002c68  50210002	slli	r1,r1,#0x2
 2370  00002c6c  00240822	sub	r1,r1,r4
 2371  00002c70  50210002	slli	r1,r1,#0x2
 2372  00002c74  3c060000	lhi	r6,((_openfiles_LF3)>>16)&0xffff
 2373  00002c78  24c6d2a4	addui	r6,r6,(_openfiles_LF3)&0xffff
 2374  00002c7c  00260820	add	r1,r1,r6
 2375  00002c80  ac230108	sw	264(r1),r3
 2376  00002c84  23bd0008	addi	r29,r29,#8
 2377  00002c88  68620000	slti	r2,r3,#0
 2378  00002c8c  00030820	add	r1,r0,r3
 2379  00002c90  14400008	bnez	r2,L128_LF3
 2380  00002c94  54000000	nop; not filled.
 2381  00002c98  20010001	addi	r1,r0,#1
 2382  00002c9c          	L128_LF3:
 2383  00002c9c  8fa20000	lw	r2,0(r29)
 2384  00002ca0  8fa30004	lw	r3,4(r29)
 2385  00002ca4  8fa40008	lw	r4,8(r29)
 2386  00002ca8  8fa5000c	lw	r5,12(r29)
 2387  00002cac  8fa60010	lw	r6,16(r29)
 2388  00002cb0  8fdffff8	lw	r31,-8(r30)
 2389  00002cb4  001ee820	add	r29,r0,r30
 2390  00002cb8  8fdefffc	lw	r30,-4(r30)
 2391  00002cbc  4be00000	jr	r31
 2392  00002cc0  54000000	nop
 2393  00002cc4          	.endproc _FsUnixOpen
 2394  00002cc4          	.align 2
 2395  00002cc4          	.proc _FsUnixRead
 2396  00002cc4          	.global _FsUnixRead
 2397  00002cc4          	_FsUnixRead:
 2398                      ;  Function 'FsUnixRead'; 0 bytes of locals, 4 regs to save.
 2399  00002cc4  afbefffc	sw	-4(r29),r30; push fp
 2400  00002cc8  001df020	add	r30,r0,r29; fp = sp
 2401  00002ccc  afbffff8	sw	-8(r29),r31; push ret addr
 2402  00002cd0  2fbd0018	subui	r29,r29,#24; alloc local storage
 2403  00002cd4  afa20000	sw	0(r29),r2
 2404  00002cd8  afa30004	sw	4(r29),r3
 2405  00002cdc  afa40008	sw	8(r29),r4
 2406  00002ce0  afa5000c	sw	12(r29),r5
 2407  00002ce4  8fc20000	lw	r2,(r30)
 2408  00002ce8  8fc30004	lw	r3,4(r30)
 2409  00002cec  8fc40008	lw	r4,8(r30)
 2410  00002cf0  23bdfff0	addi	r29,r29,#-16
 2411  00002cf4  50410004	slli	r1,r2,#0x4
 2412  00002cf8  00220820	add	r1,r1,r2
 2413  00002cfc  50210002	slli	r1,r1,#0x2
 2414  00002d00  00220822	sub	r1,r1,r2
 2415  00002d04  50210002	slli	r1,r1,#0x2
 2416  00002d08  3c050000	lhi	r5,((_openfiles_LF3)>>16)&0xffff
 2417  00002d0c  24a5d2a4	addui	r5,r5,(_openfiles_LF3)&0xffff
 2418  00002d10  00250820	add	r1,r1,r5
 2419  00002d14  8c210108	lw	r1,264(r1)
 2420  00002d18  afa10000	sw	(r29),r1
 2421  00002d1c  afa30004	sw	4(r29),r3
 2422  00002d20  afa40008	sw	8(r29),r4
 2423  00002d24  0c009bec	jal	_read
 2424  00002d28  54000000	nop; not filled.
 2425  00002d2c  23bd0010	addi	r29,r29,#16
 2426  00002d30  8fa20000	lw	r2,0(r29)
 2427  00002d34  8fa30004	lw	r3,4(r29)
 2428  00002d38  8fa40008	lw	r4,8(r29)
 2429  00002d3c  8fa5000c	lw	r5,12(r29)
 2430  00002d40  8fdffff8	lw	r31,-8(r30)
 2431  00002d44  001ee820	add	r29,r0,r30
 2432  00002d48  8fdefffc	lw	r30,-4(r30)
 2433  00002d4c  4be00000	jr	r31
 2434  00002d50  54000000	nop
 2435  00002d54          	.endproc _FsUnixRead
 2436  00002d54          	.align 2
 2437  00002d54          	.proc _FsUnixWrite
 2438  00002d54          	.global _FsUnixWrite
 2439  00002d54          	_FsUnixWrite:
 2440                      ;  Function 'FsUnixWrite'; 0 bytes of locals, 4 regs to save.
 2441  00002d54  afbefffc	sw	-4(r29),r30; push fp
 2442  00002d58  001df020	add	r30,r0,r29; fp = sp
 2443  00002d5c  afbffff8	sw	-8(r29),r31; push ret addr
 2444  00002d60  2fbd0018	subui	r29,r29,#24; alloc local storage
 2445  00002d64  afa20000	sw	0(r29),r2
 2446  00002d68  afa30004	sw	4(r29),r3
 2447  00002d6c  afa40008	sw	8(r29),r4
 2448  00002d70  afa5000c	sw	12(r29),r5
 2449  00002d74  8fc20000	lw	r2,(r30)
 2450  00002d78  8fc30004	lw	r3,4(r30)
 2451  00002d7c  8fc40008	lw	r4,8(r30)
 2452  00002d80  23bdfff0	addi	r29,r29,#-16
 2453  00002d84  50410004	slli	r1,r2,#0x4
 2454  00002d88  00220820	add	r1,r1,r2
 2455  00002d8c  50210002	slli	r1,r1,#0x2
 2456  00002d90  00220822	sub	r1,r1,r2
 2457  00002d94  50210002	slli	r1,r1,#0x2
 2458  00002d98  3c050000	lhi	r5,((_openfiles_LF3)>>16)&0xffff
 2459  00002d9c  24a5d2a4	addui	r5,r5,(_openfiles_LF3)&0xffff
 2460  00002da0  00250820	add	r1,r1,r5
 2461  00002da4  8c210108	lw	r1,264(r1)
 2462  00002da8  afa10000	sw	(r29),r1
 2463  00002dac  afa30004	sw	4(r29),r3
 2464  00002db0  afa40008	sw	8(r29),r4
 2465  00002db4  0c009b68	jal	_write
 2466  00002db8  54000000	nop; not filled.
 2467  00002dbc  23bd0010	addi	r29,r29,#16
 2468  00002dc0  8fa20000	lw	r2,0(r29)
 2469  00002dc4  8fa30004	lw	r3,4(r29)
 2470  00002dc8  8fa40008	lw	r4,8(r29)
 2471  00002dcc  8fa5000c	lw	r5,12(r29)
 2472  00002dd0  8fdffff8	lw	r31,-8(r30)
 2473  00002dd4  001ee820	add	r29,r0,r30
 2474  00002dd8  8fdefffc	lw	r30,-4(r30)
 2475  00002ddc  4be00000	jr	r31
 2476  00002de0  54000000	nop
 2477  00002de4          	.endproc _FsUnixWrite
 2478  00002de4          	.align 2
 2479  00002de4          	.proc _FsUnixSeek
 2480  00002de4          	.global _FsUnixSeek
 2481  00002de4          	_FsUnixSeek:
 2482                      ;  Function 'FsUnixSeek'; 0 bytes of locals, 4 regs to save.
 2483  00002de4  afbefffc	sw	-4(r29),r30; push fp
 2484  00002de8  001df020	add	r30,r0,r29; fp = sp
 2485  00002dec  afbffff8	sw	-8(r29),r31; push ret addr
 2486  00002df0  2fbd0018	subui	r29,r29,#24; alloc local storage
 2487  00002df4  afa20000	sw	0(r29),r2
 2488  00002df8  afa30004	sw	4(r29),r3
 2489  00002dfc  afa40008	sw	8(r29),r4
 2490  00002e00  afa5000c	sw	12(r29),r5
 2491  00002e04  8fc20000	lw	r2,(r30)
 2492  00002e08  8fc30004	lw	r3,4(r30)
 2493  00002e0c  8fc40008	lw	r4,8(r30)
 2494  00002e10  23bdfff0	addi	r29,r29,#-16
 2495  00002e14  50410004	slli	r1,r2,#0x4
 2496  00002e18  00220820	add	r1,r1,r2
 2497  00002e1c  50210002	slli	r1,r1,#0x2
 2498  00002e20  00220822	sub	r1,r1,r2
 2499  00002e24  50210002	slli	r1,r1,#0x2
 2500  00002e28  3c050000	lhi	r5,((_openfiles_LF3)>>16)&0xffff
 2501  00002e2c  24a5d2a4	addui	r5,r5,(_openfiles_LF3)&0xffff
 2502  00002e30  00250820	add	r1,r1,r5
 2503  00002e34  8c210108	lw	r1,264(r1)
 2504  00002e38  afa10000	sw	(r29),r1
 2505  00002e3c  afa30004	sw	4(r29),r3
 2506  00002e40  afa40008	sw	8(r29),r4
 2507  00002e44  0c009ae4	jal	_lseek
 2508  00002e48  54000000	nop; not filled.
 2509  00002e4c  23bd0010	addi	r29,r29,#16
 2510  00002e50  8fa20000	lw	r2,0(r29)
 2511  00002e54  8fa30004	lw	r3,4(r29)
 2512  00002e58  8fa40008	lw	r4,8(r29)
 2513  00002e5c  8fa5000c	lw	r5,12(r29)
 2514  00002e60  8fdffff8	lw	r31,-8(r30)
 2515  00002e64  001ee820	add	r29,r0,r30
 2516  00002e68  8fdefffc	lw	r30,-4(r30)
 2517  00002e6c  4be00000	jr	r31
 2518  00002e70  54000000	nop
 2519  00002e74          	.endproc _FsUnixSeek
 2520  00002e74          	.align 2
 2521  00002e74          	.proc _FsUnixClose
 2522  00002e74          	.global _FsUnixClose
 2523  00002e74          	_FsUnixClose:
 2524                      ;  Function 'FsUnixClose'; 0 bytes of locals, 2 regs to save.
 2525  00002e74  afbefffc	sw	-4(r29),r30; push fp
 2526  00002e78  001df020	add	r30,r0,r29; fp = sp
 2527  00002e7c  afbffff8	sw	-8(r29),r31; push ret addr
 2528  00002e80  2fbd0010	subui	r29,r29,#16; alloc local storage
 2529  00002e84  afa20000	sw	0(r29),r2
 2530  00002e88  afa30004	sw	4(r29),r3
 2531  00002e8c  8fc20000	lw	r2,(r30)
 2532  00002e90  23bdfff8	addi	r29,r29,#-8
 2533  00002e94  50410004	slli	r1,r2,#0x4
 2534  00002e98  00220820	add	r1,r1,r2
 2535  00002e9c  50210002	slli	r1,r1,#0x2
 2536  00002ea0  00220822	sub	r1,r1,r2
 2537  00002ea4  50210002	slli	r1,r1,#0x2
 2538  00002ea8  3c030000	lhi	r3,((_openfiles_LF3)>>16)&0xffff
 2539  00002eac  2463d2a4	addui	r3,r3,(_openfiles_LF3)&0xffff
 2540  00002eb0  00230820	add	r1,r1,r3
 2541  00002eb4  8c210108	lw	r1,264(r1)
 2542  00002eb8  afa10000	sw	(r29),r1
 2543  00002ebc  0c009a48	jal	_close
 2544  00002ec0  54000000	nop; not filled.
 2545  00002ec4  23bd0008	addi	r29,r29,#8
 2546  00002ec8  8fa20000	lw	r2,0(r29)
 2547  00002ecc  8fa30004	lw	r3,4(r29)
 2548  00002ed0  8fdffff8	lw	r31,-8(r30)
 2549  00002ed4  001ee820	add	r29,r0,r30
 2550  00002ed8  8fdefffc	lw	r30,-4(r30)
 2551  00002edc  4be00000	jr	r31
 2552  00002ee0  54000000	nop
 2553  00002ee4          	.endproc _FsUnixClose
 2554  00002ee4          	.align 2
 2555  00002ee4          	.proc _FsUnixDelete
 2556  00002ee4          	.global _FsUnixDelete
 2557  00002ee4          	_FsUnixDelete:
 2558                      ;  Function 'FsUnixDelete'; 0 bytes of locals, 0 regs to save.
 2559  00002ee4  afbefffc	sw	-4(r29),r30; push fp
 2560  00002ee8  001df020	add	r30,r0,r29; fp = sp
 2561  00002eec  afbffff8	sw	-8(r29),r31; push ret addr
 2562  00002ef0  2fbd0008	subui	r29,r29,#8; alloc local storage
 2563  00002ef4  2001ffff	addi	r1,r0,#-1
 2564  00002ef8  8fdffff8	lw	r31,-8(r30)
 2565  00002efc  001ee820	add	r29,r0,r30
 2566  00002f00  8fdefffc	lw	r30,-4(r30)
 2567  00002f04  4be00000	jr	r31
 2568  00002f08  54000000	nop
 2569  00002f0c          	.endproc _FsUnixDelete
 2570  00002f0c          	.align 2
 2571  00002f0c          	.proc _FsDlxIo
 2572  00002f0c          	.global _FsDlxIo
 2573  00002f0c          	_FsDlxIo:
 2574                      ;  Function 'FsDlxIo'; 0 bytes of locals, 0 regs to save.
 2575  00002f0c  afbefffc	sw	-4(r29),r30; push fp
 2576  00002f10  001df020	add	r30,r0,r29; fp = sp
 2577  00002f14  afbffff8	sw	-8(r29),r31; push ret addr
 2578  00002f18  2fbd0008	subui	r29,r29,#8; alloc local storage
 2579  00002f1c  20010001	addi	r1,r0,#1
 2580  00002f20  8fdffff8	lw	r31,-8(r30)
 2581  00002f24  001ee820	add	r29,r0,r30
 2582  00002f28  8fdefffc	lw	r30,-4(r30)
 2583  00002f2c  4be00000	jr	r31
 2584  00002f30  54000000	nop
 2585  00002f34          	.endproc _FsDlxIo
 2586  00002f34          	.align 2
 2587  00002f34          	.proc _FsDlxRead
 2588  00002f34          	.global _FsDlxRead
 2589  00002f34          	_FsDlxRead:
 2590                      ;  Function 'FsDlxRead'; 0 bytes of locals, 0 regs to save.
 2591  00002f34  afbefffc	sw	-4(r29),r30; push fp
 2592  00002f38  001df020	add	r30,r0,r29; fp = sp
 2593  00002f3c  afbffff8	sw	-8(r29),r31; push ret addr
 2594  00002f40  2fbd0008	subui	r29,r29,#8; alloc local storage
 2595  00002f44  20010001	addi	r1,r0,#1
 2596  00002f48  8fdffff8	lw	r31,-8(r30)
 2597  00002f4c  001ee820	add	r29,r0,r30
 2598  00002f50  8fdefffc	lw	r30,-4(r30)
 2599  00002f54  4be00000	jr	r31
 2600  00002f58  54000000	nop
 2601  00002f5c          	.endproc _FsDlxRead
 2602  00002f5c          	.align 2
 2603  00002f5c          	.proc _FsDlxWrite
 2604  00002f5c          	.global _FsDlxWrite
 2605  00002f5c          	_FsDlxWrite:
 2606                      ;  Function 'FsDlxWrite'; 0 bytes of locals, 0 regs to save.
 2607  00002f5c  afbefffc	sw	-4(r29),r30; push fp
 2608  00002f60  001df020	add	r30,r0,r29; fp = sp
 2609  00002f64  afbffff8	sw	-8(r29),r31; push ret addr
 2610  00002f68  2fbd0008	subui	r29,r29,#8; alloc local storage
 2611  00002f6c  20010001	addi	r1,r0,#1
 2612  00002f70  8fdffff8	lw	r31,-8(r30)
 2613  00002f74  001ee820	add	r29,r0,r30
 2614  00002f78  8fdefffc	lw	r30,-4(r30)
 2615  00002f7c  4be00000	jr	r31
 2616  00002f80  54000000	nop
 2617  00002f84          	.endproc _FsDlxWrite
 2618  00002f84          	.align 2
 2619  00002f84          	.proc _FsDlxOpen
 2620  00002f84          	.global _FsDlxOpen
 2621  00002f84          	_FsDlxOpen:
 2622                      ;  Function 'FsDlxOpen'; 0 bytes of locals, 1 regs to save.
 2623  00002f84  afbefffc	sw	-4(r29),r30; push fp
 2624  00002f88  001df020	add	r30,r0,r29; fp = sp
 2625  00002f8c  afbffff8	sw	-8(r29),r31; push ret addr
 2626  00002f90  2fbd0010	subui	r29,r29,#16; alloc local storage
 2627  00002f94  afa20000	sw	0(r29),r2
 2628  00002f98  8fc10000	lw	r1,(r30)
 2629  00002f9c  50220004	slli	r2,r1,#0x4
 2630  00002fa0  00411020	add	r2,r2,r1
 2631  00002fa4  50420002	slli	r2,r2,#0x2
 2632  00002fa8  00410822	sub	r1,r2,r1
 2633  00002fac  50210002	slli	r1,r1,#0x2
 2634  00002fb0  3c1f0000	lhi	r31,((_openfiles_LF3)>>16)&0xffff
 2635  00002fb4  27ffd2a4	addui	r31,r31,(_openfiles_LF3)&0xffff
 2636  00002fb8  003f0820	add	r1,r1,r31
 2637  00002fbc  201f0000	addi	r31,r0,#0
 2638  00002fc0  ac3f0108	sw	264(r1),r31
 2639  00002fc4  20010001	addi	r1,r0,#1
 2640  00002fc8  8fa20000	lw	r2,0(r29)
 2641  00002fcc  8fdffff8	lw	r31,-8(r30)
 2642  00002fd0  001ee820	add	r29,r0,r30
 2643  00002fd4  8fdefffc	lw	r30,-4(r30)
 2644  00002fd8  4be00000	jr	r31
 2645  00002fdc  54000000	nop
 2646  00002fe0          	.endproc _FsDlxOpen
 2647  00002fe0          	.align 2
 2648  00002fe0          	.proc _FsDlxSeek
 2649  00002fe0          	.global _FsDlxSeek
 2650  00002fe0          	_FsDlxSeek:
 2651                      ;  Function 'FsDlxSeek'; 0 bytes of locals, 1 regs to save.
 2652  00002fe0  afbefffc	sw	-4(r29),r30; push fp
 2653  00002fe4  001df020	add	r30,r0,r29; fp = sp
 2654  00002fe8  afbffff8	sw	-8(r29),r31; push ret addr
 2655  00002fec  2fbd0010	subui	r29,r29,#16; alloc local storage
 2656  00002ff0  afa20000	sw	0(r29),r2
 2657  00002ff4  8fc10000	lw	r1,(r30)
 2658  00002ff8  50220004	slli	r2,r1,#0x4
 2659  00002ffc  00411020	add	r2,r2,r1
 2660  00003000  50420002	slli	r2,r2,#0x2
 2661  00003004  00410822	sub	r1,r2,r1
 2662  00003008  50210002	slli	r1,r1,#0x2
 2663  0000300c  3c1f0000	lhi	r31,((_openfiles_LF3)>>16)&0xffff
 2664  00003010  27ffd2a4	addui	r31,r31,(_openfiles_LF3)&0xffff
 2665  00003014  003f0820	add	r1,r1,r31
 2666  00003018  8c210108	lw	r1,264(r1)
 2667  0000301c  8fa20000	lw	r2,0(r29)
 2668  00003020  8fdffff8	lw	r31,-8(r30)
 2669  00003024  001ee820	add	r29,r0,r30
 2670  00003028  8fdefffc	lw	r30,-4(r30)
 2671  0000302c  4be00000	jr	r31
 2672  00003030  54000000	nop
 2673  00003034          	.endproc _FsDlxSeek
 2674  00003034          	.align 2
 2675  00003034          	.proc _FsDlxClose
 2676  00003034          	.global _FsDlxClose
 2677  00003034          	_FsDlxClose:
 2678                      ;  Function 'FsDlxClose'; 0 bytes of locals, 0 regs to save.
 2679  00003034  afbefffc	sw	-4(r29),r30; push fp
 2680  00003038  001df020	add	r30,r0,r29; fp = sp
 2681  0000303c  afbffff8	sw	-8(r29),r31; push ret addr
 2682  00003040  2fbd0008	subui	r29,r29,#8; alloc local storage
 2683  00003044  20010001	addi	r1,r0,#1
 2684  00003048  8fdffff8	lw	r31,-8(r30)
 2685  0000304c  001ee820	add	r29,r0,r30
 2686  00003050  8fdefffc	lw	r30,-4(r30)
 2687  00003054  4be00000	jr	r31
 2688  00003058  54000000	nop
 2689  0000305c          	.endproc _FsDlxClose
 2690  0000305c          	.align 2
 2691  0000305c          	.proc _FsDlxDelete
 2692  0000305c          	.global _FsDlxDelete
 2693  0000305c          	_FsDlxDelete:
 2694                      ;  Function 'FsDlxDelete'; 0 bytes of locals, 0 regs to save.
 2695  0000305c  afbefffc	sw	-4(r29),r30; push fp
 2696  00003060  001df020	add	r30,r0,r29; fp = sp
 2697  00003064  afbffff8	sw	-8(r29),r31; push ret addr
 2698  00003068  2fbd0008	subui	r29,r29,#8; alloc local storage
 2699  0000306c  20010001	addi	r1,r0,#1
 2700  00003070  8fdffff8	lw	r31,-8(r30)
 2701  00003074  001ee820	add	r29,r0,r30
 2702  00003078  8fdefffc	lw	r30,-4(r30)
 2703  0000307c  4be00000	jr	r31
 2704  00003080  54000000	nop
 2705  00003084          	.endproc _FsDlxDelete
 2706  00003084          	.align 2
 2707  00003084          	.proc _FsModuleInit
 2708  00003084          	.global _FsModuleInit
 2709  00003084          	_FsModuleInit:
 2710                      ;  Function 'FsModuleInit'; 0 bytes of locals, 2 regs to save.
 2711  00003084  afbefffc	sw	-4(r29),r30; push fp
 2712  00003088  001df020	add	r30,r0,r29; fp = sp
 2713  0000308c  afbffff8	sw	-8(r29),r31; push ret addr
 2714  00003090  2fbd0010	subui	r29,r29,#16; alloc local storage
 2715  00003094  afa20000	sw	0(r29),r2
 2716  00003098  afa30004	sw	4(r29),r3
 2717  0000309c  3c1f0000	lhi	r31,((_openfiles_LF3)>>16)&0xffff
 2718  000030a0  27ffd2a4	addui	r31,r31,(_openfiles_LF3)&0xffff
 2719  000030a4  23e22074	addi	r2,r31,#8308
 2720  000030a8          	L182_LF3:
 2721  000030a8  20030000	addi	r3,r0,#0
 2722  000030ac  afe30004	sw	4(r31),r3
 2723  000030b0  23ff010c	addi	r31,r31,#268
 2724  000030b4  03e2082c	sle	r1,r31,r2
 2725  000030b8  1420ffec	bnez	r1,L182_LF3
 2726  000030bc  54000000	nop; not filled.
 2727  000030c0  3c010000	lhi	r1,((_fs_LF3)>>16)&0xffff
 2728  000030c4  2421d274	addui	r1,r1,(_fs_LF3)&0xffff
 2729  000030c8  3c030000	lhi	r3,((_FsUnixOpen)>>16)&0xffff
 2730  000030cc  24632b98	addui	r3,r3,(_FsUnixOpen)&0xffff
 2731  000030d0  ac230000	sw	(r1),r3
 2732  000030d4  3c030000	lhi	r3,((_FsUnixClose)>>16)&0xffff
 2733  000030d8  24632e74	addui	r3,r3,(_FsUnixClose)&0xffff
 2734  000030dc  ac230010	sw	16(r1),r3
 2735  000030e0  3c030000	lhi	r3,((_FsUnixRead)>>16)&0xffff
 2736  000030e4  24632cc4	addui	r3,r3,(_FsUnixRead)&0xffff
 2737  000030e8  ac230004	sw	4(r1),r3
 2738  000030ec  3c030000	lhi	r3,((_FsUnixWrite)>>16)&0xffff
 2739  000030f0  24632d54	addui	r3,r3,(_FsUnixWrite)&0xffff
 2740  000030f4  ac230008	sw	8(r1),r3
 2741  000030f8  3c030000	lhi	r3,((_FsUnixSeek)>>16)&0xffff
 2742  000030fc  24632de4	addui	r3,r3,(_FsUnixSeek)&0xffff
 2743  00003100  ac23000c	sw	12(r1),r3
 2744  00003104  3c030000	lhi	r3,((_FsUnixDelete)>>16)&0xffff
 2745  00003108  24632ee4	addui	r3,r3,(_FsUnixDelete)&0xffff
 2746  0000310c  ac230014	sw	20(r1),r3
 2747  00003110  3c030000	lhi	r3,((_FsDlxOpen)>>16)&0xffff
 2748  00003114  24632f84	addui	r3,r3,(_FsDlxOpen)&0xffff
 2749  00003118  ac230018	sw	24(r1),r3
 2750  0000311c  3c030000	lhi	r3,((_FsDlxClose)>>16)&0xffff
 2751  00003120  24633034	addui	r3,r3,(_FsDlxClose)&0xffff
 2752  00003124  ac230028	sw	40(r1),r3
 2753  00003128  3c030000	lhi	r3,((_FsDlxRead)>>16)&0xffff
 2754  0000312c  24632f34	addui	r3,r3,(_FsDlxRead)&0xffff
 2755  00003130  ac23001c	sw	28(r1),r3
 2756  00003134  3c030000	lhi	r3,((_FsDlxWrite)>>16)&0xffff
 2757  00003138  24632f5c	addui	r3,r3,(_FsDlxWrite)&0xffff
 2758  0000313c  ac230020	sw	32(r1),r3
 2759  00003140  3c030000	lhi	r3,((_FsDlxSeek)>>16)&0xffff
 2760  00003144  24632fe0	addui	r3,r3,(_FsDlxSeek)&0xffff
 2761  00003148  ac230024	sw	36(r1),r3
 2762  0000314c  3c030000	lhi	r3,((_FsDlxDelete)>>16)&0xffff
 2763  00003150  2463305c	addui	r3,r3,(_FsDlxDelete)&0xffff
 2764  00003154  ac23002c	sw	44(r1),r3
 2765  00003158  8fa20000	lw	r2,0(r29)
 2766  0000315c  8fa30004	lw	r3,4(r29)
 2767  00003160  8fdffff8	lw	r31,-8(r30)
 2768  00003164  001ee820	add	r29,r0,r30
 2769  00003168  8fdefffc	lw	r30,-4(r30)
 2770  0000316c  4be00000	jr	r31
 2771  00003170  54000000	nop
 2772  00003174          	.endproc _FsModuleInit
 2773  00003174          	.data
 2774  0000d273          	.align 2
 2775  0000d274          	_fs_LF3:
 2776  0000d274          	.space 48
 2777  0000d2a4          	.align 2
 2778  0000d2a4          	_openfiles_LF3:
 2779  0000d2a4          	.space 8576
 2780                      ; Compiled by GCC
 2782  0000f424          	.align 2
 2783  0000f424          	_rcsid_LF4:
 2784  0000f424  3a206d65	.ascii "$Id: memory.c,v 1.1 2000/09/20 01:50:19 elm Exp elm $\000"
 2784  0000f428  6d6f7279	
 2784  0000f42c  2e632c76	
 2784  0000f430  20312e31	
 2784  0000f434  20323030	
 2784  0000f438  302f3039	
 2784  0000f43c  2f323020	
 2784  0000f440  30313a35	
 2784  0000f444  303a3139	
 2784  0000f448  20656c6d	
 2784  0000f44c  20457870	
 2784  0000f450  20656c6d	
 2784  0000f454  20303030	
 2785  0000f458          	.text
 2786  00003174          	.align 2
 2787  00003174          	.proc _isspace
 2788  00003174          	.global _isspace
 2789  00003174          	_isspace:
 2790                      ;  Function 'isspace'; 0 bytes of locals, 1 regs to save.
 2791  00003174  afbefffc	sw	-4(r29),r30; push fp
 2792  00003178  001df020	add	r30,r0,r29; fp = sp
 2793  0000317c  afbffff8	sw	-8(r29),r31; push ret addr
 2794  00003180  2fbd0010	subui	r29,r29,#16; alloc local storage
 2795  00003184  afa20000	sw	0(r29),r2
 2796  00003188  83c20003	lb	r2,3(r30)
 2797  0000318c  201f0000	addi	r31,r0,#0
 2798  00003190  304100ff	andi	r1,r2,#0x00ff
 2799  00003194  60210020	seqi	r1,r1,#32
 2800  00003198  14200018	bnez	r1,L6_LF4
 2801  0000319c  54000000	nop; not filled.
 2802  000031a0  2041fff7	addi	r1,r2,#-9
 2803  000031a4  302100ff	andi	r1,r1,#0x00ff
 2804  000031a8  70210001	sleui	r1,r1,#1
 2805  000031ac  10200008	beqz	r1,L5_LF4
 2806  000031b0  54000000	nop; not filled.
 2807  000031b4          	L6_LF4:
 2808  000031b4  201f0001	addi	r31,r0,#1
 2809  000031b8          	L5_LF4:
 2810  000031b8  001f0820	add	r1,r0,r31
 2811  000031bc  8fa20000	lw	r2,0(r29)
 2812  000031c0  8fdffff8	lw	r31,-8(r30)
 2813  000031c4  001ee820	add	r29,r0,r30
 2814  000031c8  8fdefffc	lw	r30,-4(r30)
 2815  000031cc  4be00000	jr	r31
 2816  000031d0  54000000	nop
 2817  000031d4          	.endproc _isspace
 2818  000031d4          	.align 2
 2819  000031d4          	.proc _isxdigit
 2820  000031d4          	.global _isxdigit
 2821  000031d4          	_isxdigit:
 2822                      ;  Function 'isxdigit'; 0 bytes of locals, 1 regs to save.
 2823  000031d4  afbefffc	sw	-4(r29),r30; push fp
 2824  000031d8  001df020	add	r30,r0,r29; fp = sp
 2825  000031dc  afbffff8	sw	-8(r29),r31; push ret addr
 2826  000031e0  2fbd0010	subui	r29,r29,#16; alloc local storage
 2827  000031e4  afa20000	sw	0(r29),r2
 2828  000031e8  83df0003	lb	r31,3(r30)
 2829  000031ec  20020000	addi	r2,r0,#0
 2830  000031f0  23e1ffd0	addi	r1,r31,#-48
 2831  000031f4  302100ff	andi	r1,r1,#0x00ff
 2832  000031f8  70210009	sleui	r1,r1,#9
 2833  000031fc  14200028	bnez	r1,L12_LF4
 2834  00003200  54000000	nop; not filled.
 2835  00003204  23e1ff9f	addi	r1,r31,#-97
 2836  00003208  302100ff	andi	r1,r1,#0x00ff
 2837  0000320c  70210005	sleui	r1,r1,#5
 2838  00003210  14200014	bnez	r1,L12_LF4
 2839  00003214  54000000	nop; not filled.
 2840  00003218  33e100ff	andi	r1,r31,#0x00ff
 2841  0000321c  64210041	snei	r1,r1,#65
 2842  00003220  14200008	bnez	r1,L11_LF4
 2843  00003224  54000000	nop; not filled.
 2844  00003228          	L12_LF4:
 2845  00003228  20020001	addi	r2,r0,#1
 2846  0000322c          	L11_LF4:
 2847  0000322c  00020820	add	r1,r0,r2
 2848  00003230  8fa20000	lw	r2,0(r29)
 2849  00003234  8fdffff8	lw	r31,-8(r30)
 2850  00003238  001ee820	add	r29,r0,r30
 2851  0000323c  8fdefffc	lw	r30,-4(r30)
 2852  00003240  4be00000	jr	r31
 2853  00003244  54000000	nop
 2854  00003248          	.endproc _isxdigit
 2855  00003248          	.align 2
 2856  00003248          	.proc _DisableIntrs
 2857  00003248          	.global _DisableIntrs
 2858  00003248          	_DisableIntrs:
 2859                      ;  Function 'DisableIntrs'; 0 bytes of locals, 1 regs to save.
 2860  00003248  afbefffc	sw	-4(r29),r30; push fp
 2861  0000324c  001df020	add	r30,r0,r29; fp = sp
 2862  00003250  afbffff8	sw	-8(r29),r31; push ret addr
 2863  00003254  2fbd0010	subui	r29,r29,#16; alloc local storage
 2864  00003258  afa20000	sw	0(r29),r2
 2865  0000325c  23bdfff8	addi	r29,r29,#-8
 2866  00003260  2002000f	addi	r2,r0,#15
 2867  00003264  afa20000	sw	(r29),r2
 2868  00003268  0fffe01c	jal	_SetIntrs
 2869  0000326c  54000000	nop; not filled.
 2870  00003270  23bd0008	addi	r29,r29,#8
 2871  00003274  8fa20000	lw	r2,0(r29)
 2872  00003278  8fdffff8	lw	r31,-8(r30)
 2873  0000327c  001ee820	add	r29,r0,r30
 2874  00003280  8fdefffc	lw	r30,-4(r30)
 2875  00003284  4be00000	jr	r31
 2876  00003288  54000000	nop
 2877  0000328c          	.endproc _DisableIntrs
 2878  0000328c          	.align 2
 2879  0000328c          	.proc _EnableIntrs
 2880  0000328c          	.global _EnableIntrs
 2881  0000328c          	_EnableIntrs:
 2882                      ;  Function 'EnableIntrs'; 0 bytes of locals, 1 regs to save.
 2883  0000328c  afbefffc	sw	-4(r29),r30; push fp
 2884  00003290  001df020	add	r30,r0,r29; fp = sp
 2885  00003294  afbffff8	sw	-8(r29),r31; push ret addr
 2886  00003298  2fbd0010	subui	r29,r29,#16; alloc local storage
 2887  0000329c  afa20000	sw	0(r29),r2
 2888  000032a0  23bdfff8	addi	r29,r29,#-8
 2889  000032a4  20020000	addi	r2,r0,#0
 2890  000032a8  afa20000	sw	(r29),r2
 2891  000032ac  0fffdfd8	jal	_SetIntrs
 2892  000032b0  54000000	nop; not filled.
 2893  000032b4  23bd0008	addi	r29,r29,#8
 2894  000032b8  8fa20000	lw	r2,0(r29)
 2895  000032bc  8fdffff8	lw	r31,-8(r30)
 2896  000032c0  001ee820	add	r29,r0,r30
 2897  000032c4  8fdefffc	lw	r30,-4(r30)
 2898  000032c8  4be00000	jr	r31
 2899  000032cc  54000000	nop
 2900  000032d0          	.endproc _EnableIntrs
 2901  000032d0          	.align 2
 2902  000032d0          	.proc _RestoreIntrs
 2903  000032d0          	.global _RestoreIntrs
 2904  000032d0          	_RestoreIntrs:
 2905                      ;  Function 'RestoreIntrs'; 0 bytes of locals, 1 regs to save.
 2906  000032d0  afbefffc	sw	-4(r29),r30; push fp
 2907  000032d4  001df020	add	r30,r0,r29; fp = sp
 2908  000032d8  afbffff8	sw	-8(r29),r31; push ret addr
 2909  000032dc  2fbd0010	subui	r29,r29,#16; alloc local storage
 2910  000032e0  afa20000	sw	0(r29),r2
 2911  000032e4  23bdfff8	addi	r29,r29,#-8
 2912  000032e8  8fc20000	lw	r2,(r30)
 2913  000032ec  afa20000	sw	(r29),r2
 2914  000032f0  0fffdf94	jal	_SetIntrs
 2915  000032f4  54000000	nop; not filled.
 2916  000032f8  23bd0008	addi	r29,r29,#8
 2917  000032fc  8fa20000	lw	r2,0(r29)
 2918  00003300  8fdffff8	lw	r31,-8(r30)
 2919  00003304  001ee820	add	r29,r0,r30
 2920  00003308  8fdefffc	lw	r30,-4(r30)
 2921  0000330c  4be00000	jr	r31
 2922  00003310  54000000	nop
 2923  00003314          	.endproc _RestoreIntrs
 2924  00003314          	.align 2
 2925  00003314          	.proc _QueueLinkInit
 2926  00003314          	.global _QueueLinkInit
 2927  00003314          	_QueueLinkInit:
 2928                      ;  Function 'QueueLinkInit'; 0 bytes of locals, 1 regs to save.
 2929  00003314  afbefffc	sw	-4(r29),r30; push fp
 2930  00003318  001df020	add	r30,r0,r29; fp = sp
 2931  0000331c  afbffff8	sw	-8(r29),r31; push ret addr
 2932  00003320  2fbd0010	subui	r29,r29,#16; alloc local storage
 2933  00003324  afa20000	sw	0(r29),r2
 2934  00003328  8fc10000	lw	r1,(r30)
 2935  0000332c  8fc20004	lw	r2,4(r30)
 2936  00003330  201f0000	addi	r31,r0,#0
 2937  00003334  ac3f0000	sw	(r1),r31
 2938  00003338  ac22000c	sw	12(r1),r2
 2939  0000333c  8fa20000	lw	r2,0(r29)
 2940  00003340  8fdffff8	lw	r31,-8(r30)
 2941  00003344  001ee820	add	r29,r0,r30
 2942  00003348  8fdefffc	lw	r30,-4(r30)
 2943  0000334c  4be00000	jr	r31
 2944  00003350  54000000	nop
 2945  00003354          	.endproc _QueueLinkInit
 2946  00003354          	.align 2
 2947  00003354          	.proc _QueueNext
 2948  00003354          	.global _QueueNext
 2949  00003354          	_QueueNext:
 2950                      ;  Function 'QueueNext'; 0 bytes of locals, 0 regs to save.
 2951  00003354  afbefffc	sw	-4(r29),r30; push fp
 2952  00003358  001df020	add	r30,r0,r29; fp = sp
 2953  0000335c  afbffff8	sw	-8(r29),r31; push ret addr
 2954  00003360  2fbd0008	subui	r29,r29,#8; alloc local storage
 2955  00003364  8fc10000	lw	r1,(r30)
 2956  00003368  8c210000	lw	r1,(r1)
 2957  0000336c  8fdffff8	lw	r31,-8(r30)
 2958  00003370  001ee820	add	r29,r0,r30
 2959  00003374  8fdefffc	lw	r30,-4(r30)
 2960  00003378  4be00000	jr	r31
 2961  0000337c  54000000	nop
 2962  00003380          	.endproc _QueueNext
 2963  00003380          	.align 2
 2964  00003380          	.proc _QueuePrev
 2965  00003380          	.global _QueuePrev
 2966  00003380          	_QueuePrev:
 2967                      ;  Function 'QueuePrev'; 0 bytes of locals, 0 regs to save.
 2968  00003380  afbefffc	sw	-4(r29),r30; push fp
 2969  00003384  001df020	add	r30,r0,r29; fp = sp
 2970  00003388  afbffff8	sw	-8(r29),r31; push ret addr
 2971  0000338c  2fbd0008	subui	r29,r29,#8; alloc local storage
 2972  00003390  8fc10000	lw	r1,(r30)
 2973  00003394  8c210004	lw	r1,4(r1)
 2974  00003398  8fdffff8	lw	r31,-8(r30)
 2975  0000339c  001ee820	add	r29,r0,r30
 2976  000033a0  8fdefffc	lw	r30,-4(r30)
 2977  000033a4  4be00000	jr	r31
 2978  000033a8  54000000	nop
 2979  000033ac          	.endproc _QueuePrev
 2980  000033ac          	.align 2
 2981  000033ac          	.proc _QueueFirst
 2982  000033ac          	.global _QueueFirst
 2983  000033ac          	_QueueFirst:
 2984                      ;  Function 'QueueFirst'; 0 bytes of locals, 0 regs to save.
 2985  000033ac  afbefffc	sw	-4(r29),r30; push fp
 2986  000033b0  001df020	add	r30,r0,r29; fp = sp
 2987  000033b4  afbffff8	sw	-8(r29),r31; push ret addr
 2988  000033b8  2fbd0008	subui	r29,r29,#8; alloc local storage
 2989  000033bc  8fc10000	lw	r1,(r30)
 2990  000033c0  8c210000	lw	r1,(r1)
 2991  000033c4  8fdffff8	lw	r31,-8(r30)
 2992  000033c8  001ee820	add	r29,r0,r30
 2993  000033cc  8fdefffc	lw	r30,-4(r30)
 2994  000033d0  4be00000	jr	r31
 2995  000033d4  54000000	nop
 2996  000033d8          	.endproc _QueueFirst
 2997  000033d8          	.align 2
 2998  000033d8          	.proc _QueueLast
 2999  000033d8          	.global _QueueLast
 3000  000033d8          	_QueueLast:
 3001                      ;  Function 'QueueLast'; 0 bytes of locals, 0 regs to save.
 3002  000033d8  afbefffc	sw	-4(r29),r30; push fp
 3003  000033dc  001df020	add	r30,r0,r29; fp = sp
 3004  000033e0  afbffff8	sw	-8(r29),r31; push ret addr
 3005  000033e4  2fbd0008	subui	r29,r29,#8; alloc local storage
 3006  000033e8  8fc10000	lw	r1,(r30)
 3007  000033ec  8c210004	lw	r1,4(r1)
 3008  000033f0  8fdffff8	lw	r31,-8(r30)
 3009  000033f4  001ee820	add	r29,r0,r30
 3010  000033f8  8fdefffc	lw	r30,-4(r30)
 3011  000033fc  4be00000	jr	r31
 3012  00003400  54000000	nop
 3013  00003404          	.endproc _QueueLast
 3014  00003404          	.align 2
 3015  00003404          	.proc _QueueInsertAfter
 3016  00003404          	.global _QueueInsertAfter
 3017  00003404          	_QueueInsertAfter:
 3018                      ;  Function 'QueueInsertAfter'; 0 bytes of locals, 2 regs to save.
 3019  00003404  afbefffc	sw	-4(r29),r30; push fp
 3020  00003408  001df020	add	r30,r0,r29; fp = sp
 3021  0000340c  afbffff8	sw	-8(r29),r31; push ret addr
 3022  00003410  2fbd0010	subui	r29,r29,#16; alloc local storage
 3023  00003414  afa20000	sw	0(r29),r2
 3024  00003418  afa30004	sw	4(r29),r3
 3025  0000341c  8fc30000	lw	r3,(r30)
 3026  00003420  8fc20004	lw	r2,4(r30)
 3027  00003424  8fc10008	lw	r1,8(r30)
 3028  00003428  ac230008	sw	8(r1),r3
 3029  0000342c  ac220004	sw	4(r1),r2
 3030  00003430  8c5f0000	lw	r31,(r2)
 3031  00003434  ac3f0000	sw	(r1),r31
 3032  00003438  ac410000	sw	(r2),r1
 3033  0000343c  8c220000	lw	r2,(r1)
 3034  00003440  ac410004	sw	4(r2),r1
 3035  00003444  8c610008	lw	r1,8(r3)
 3036  00003448  20210001	addi	r1,r1,#1
 3037  0000344c  ac610008	sw	8(r3),r1
 3038  00003450  8fa20000	lw	r2,0(r29)
 3039  00003454  8fa30004	lw	r3,4(r29)
 3040  00003458  8fdffff8	lw	r31,-8(r30)
 3041  0000345c  001ee820	add	r29,r0,r30
 3042  00003460  8fdefffc	lw	r30,-4(r30)
 3043  00003464  4be00000	jr	r31
 3044  00003468  54000000	nop
 3045  0000346c          	.endproc _QueueInsertAfter
 3046  0000346c          	.align 2
 3047  0000346c          	.proc _QueueInsertFirst
 3048  0000346c          	.global _QueueInsertFirst
 3049  0000346c          	_QueueInsertFirst:
 3050                      ;  Function 'QueueInsertFirst'; 0 bytes of locals, 2 regs to save.
 3051  0000346c  afbefffc	sw	-4(r29),r30; push fp
 3052  00003470  001df020	add	r30,r0,r29; fp = sp
 3053  00003474  afbffff8	sw	-8(r29),r31; push ret addr
 3054  00003478  2fbd0010	subui	r29,r29,#16; alloc local storage
 3055  0000347c  afa20000	sw	0(r29),r2
 3056  00003480  afa30004	sw	4(r29),r3
 3057  00003484  8fc30000	lw	r3,(r30)
 3058  00003488  8fc10004	lw	r1,4(r30)
 3059  0000348c  ac230008	sw	8(r1),r3
 3060  00003490  ac230004	sw	4(r1),r3
 3061  00003494  8c7f0000	lw	r31,(r3)
 3062  00003498  ac3f0000	sw	(r1),r31
 3063  0000349c  ac610000	sw	(r3),r1
 3064  000034a0  8c220000	lw	r2,(r1)
 3065  000034a4  ac410004	sw	4(r2),r1
 3066  000034a8  8c610008	lw	r1,8(r3)
 3067  000034ac  20210001	addi	r1,r1,#1
 3068  000034b0  ac610008	sw	8(r3),r1
 3069  000034b4  8fa20000	lw	r2,0(r29)
 3070  000034b8  8fa30004	lw	r3,4(r29)
 3071  000034bc  8fdffff8	lw	r31,-8(r30)
 3072  000034c0  001ee820	add	r29,r0,r30
 3073  000034c4  8fdefffc	lw	r30,-4(r30)
 3074  000034c8  4be00000	jr	r31
 3075  000034cc  54000000	nop
 3076  000034d0          	.endproc _QueueInsertFirst
 3077  000034d0          	.align 2
 3078  000034d0          	.proc _QueueInsertLast
 3079  000034d0          	.global _QueueInsertLast
 3080  000034d0          	_QueueInsertLast:
 3081                      ;  Function 'QueueInsertLast'; 0 bytes of locals, 2 regs to save.
 3082  000034d0  afbefffc	sw	-4(r29),r30; push fp
 3083  000034d4  001df020	add	r30,r0,r29; fp = sp
 3084  000034d8  afbffff8	sw	-8(r29),r31; push ret addr
 3085  000034dc  2fbd0010	subui	r29,r29,#16; alloc local storage
 3086  000034e0  afa20000	sw	0(r29),r2
 3087  000034e4  afa30004	sw	4(r29),r3
 3088  000034e8  8fc30000	lw	r3,(r30)
 3089  000034ec  8fc10004	lw	r1,4(r30)
 3090  000034f0  8c620004	lw	r2,4(r3)
 3091  000034f4  ac230008	sw	8(r1),r3
 3092  000034f8  ac220004	sw	4(r1),r2
 3093  000034fc  8c5f0000	lw	r31,(r2)
 3094  00003500  ac3f0000	sw	(r1),r31
 3095  00003504  ac410000	sw	(r2),r1
 3096  00003508  8c220000	lw	r2,(r1)
 3097  0000350c  ac410004	sw	4(r2),r1
 3098  00003510  8c610008	lw	r1,8(r3)
 3099  00003514  20210001	addi	r1,r1,#1
 3100  00003518  ac610008	sw	8(r3),r1
 3101  0000351c  8fa20000	lw	r2,0(r29)
 3102  00003520  8fa30004	lw	r3,4(r29)
 3103  00003524  8fdffff8	lw	r31,-8(r30)
 3104  00003528  001ee820	add	r29,r0,r30
 3105  0000352c  8fdefffc	lw	r30,-4(r30)
 3106  00003530  4be00000	jr	r31
 3107  00003534  54000000	nop
 3108  00003538          	.endproc _QueueInsertLast
 3109  00003538          	.align 2
 3110  00003538          	.proc _QueueRemove
 3111  00003538          	.global _QueueRemove
 3112  00003538          	_QueueRemove:
 3113                      ;  Function 'QueueRemove'; 0 bytes of locals, 2 regs to save.
 3114  00003538  afbefffc	sw	-4(r29),r30; push fp
 3115  0000353c  001df020	add	r30,r0,r29; fp = sp
 3116  00003540  afbffff8	sw	-8(r29),r31; push ret addr
 3117  00003544  2fbd0010	subui	r29,r29,#16; alloc local storage
 3118  00003548  afa20000	sw	0(r29),r2
 3119  0000354c  afa30004	sw	4(r29),r3
 3120  00003550  8fdf0000	lw	r31,(r30)
 3121  00003554  8fe10008	lw	r1,8(r31)
 3122  00003558  8c210008	lw	r1,8(r1)
 3123  0000355c  6c210000	sgti	r1,r1,#0
 3124  00003560  1020002c	beqz	r1,L44_LF4
 3125  00003564  54000000	nop; not filled.
 3126  00003568  8fe10004	lw	r1,4(r31)
 3127  0000356c  8fe30000	lw	r3,(r31)
 3128  00003570  ac230000	sw	(r1),r3
 3129  00003574  8fe10000	lw	r1,(r31)
 3130  00003578  8fe30004	lw	r3,4(r31)
 3131  0000357c  ac230004	sw	4(r1),r3
 3132  00003580  8fe20008	lw	r2,8(r31)
 3133  00003584  8c410008	lw	r1,8(r2)
 3134  00003588  2021ffff	addi	r1,r1,#-1
 3135  0000358c  ac410008	sw	8(r2),r1
 3136  00003590          	L44_LF4:
 3137  00003590  20030000	addi	r3,r0,#0
 3138  00003594  afe30000	sw	(r31),r3
 3139  00003598  8fa20000	lw	r2,0(r29)
 3140  0000359c  8fa30004	lw	r3,4(r29)
 3141  000035a0  8fdffff8	lw	r31,-8(r30)
 3142  000035a4  001ee820	add	r29,r0,r30
 3143  000035a8  8fdefffc	lw	r30,-4(r30)
 3144  000035ac  4be00000	jr	r31
 3145  000035b0  54000000	nop
 3146  000035b4          	.endproc _QueueRemove
 3147  000035b4          	.align 2
 3148  000035b4          	.proc _QueueLength
 3149  000035b4          	.global _QueueLength
 3150  000035b4          	_QueueLength:
 3151                      ;  Function 'QueueLength'; 0 bytes of locals, 0 regs to save.
 3152  000035b4  afbefffc	sw	-4(r29),r30; push fp
 3153  000035b8  001df020	add	r30,r0,r29; fp = sp
 3154  000035bc  afbffff8	sw	-8(r29),r31; push ret addr
 3155  000035c0  2fbd0008	subui	r29,r29,#8; alloc local storage
 3156  000035c4  8fc10000	lw	r1,(r30)
 3157  000035c8  8c210008	lw	r1,8(r1)
 3158  000035cc  8fdffff8	lw	r31,-8(r30)
 3159  000035d0  001ee820	add	r29,r0,r30
 3160  000035d4  8fdefffc	lw	r30,-4(r30)
 3161  000035d8  4be00000	jr	r31
 3162  000035dc  54000000	nop
 3163  000035e0          	.endproc _QueueLength
 3164  000035e0          	.align 2
 3165  000035e0          	.proc _QueueEmpty
 3166  000035e0          	.global _QueueEmpty
 3167  000035e0          	_QueueEmpty:
 3168                      ;  Function 'QueueEmpty'; 0 bytes of locals, 0 regs to save.
 3169  000035e0  afbefffc	sw	-4(r29),r30; push fp
 3170  000035e4  001df020	add	r30,r0,r29; fp = sp
 3171  000035e8  afbffff8	sw	-8(r29),r31; push ret addr
 3172  000035ec  2fbd0008	subui	r29,r29,#8; alloc local storage
 3173  000035f0  8fc10000	lw	r1,(r30)
 3174  000035f4  8c210008	lw	r1,8(r1)
 3175  000035f8  60210000	seqi	r1,r1,#0
 3176  000035fc  8fdffff8	lw	r31,-8(r30)
 3177  00003600  001ee820	add	r29,r0,r30
 3178  00003604  8fdefffc	lw	r30,-4(r30)
 3179  00003608  4be00000	jr	r31
 3180  0000360c  54000000	nop
 3181  00003610          	.endproc _QueueEmpty
 3182  00003610          	.data
 3183  0000f458          	.align 2
 3184  0000f458          	_negativeone_LF4:
 3185  0000f458  ffffffff	.word -1
 3186  0000f45c          	.text
 3187  00003610          	.align 2
 3188  00003610          	.proc _MemoryGetSize
 3189  00003610          	.global _MemoryGetSize
 3190  00003610          	_MemoryGetSize:
 3191                      ;  Function 'MemoryGetSize'; 0 bytes of locals, 0 regs to save.
 3192  00003610  afbefffc	sw	-4(r29),r30; push fp
 3193  00003614  001df020	add	r30,r0,r29; fp = sp
 3194  00003618  afbffff8	sw	-8(r29),r31; push ret addr
 3195  0000361c  2fbd0008	subui	r29,r29,#8; alloc local storage
 3196  00003620  3c01ffff	lhi	r1,#-1
 3197  00003624  24210000	addui	r1,r1,#0
 3198  00003628  8c210000	lw	r1,(r1)
 3199  0000362c  8fdffff8	lw	r31,-8(r30)
 3200  00003630  001ee820	add	r29,r0,r30
 3201  00003634  8fdefffc	lw	r30,-4(r30)
 3202  00003638  4be00000	jr	r31
 3203  0000363c  54000000	nop
 3204  00003640          	.endproc _MemoryGetSize
 3205  00003640          	.data
 3206  0000f45c          	.align 2
 3207  0000f45c          	LC0_LF4:
 3208  0000f45c  53657420	.ascii "Set freemap entry %d to 0x%x.\n\000"
 3208  0000f460  66726565	
 3208  0000f464  6d617020	
 3208  0000f468  656e7472	
 3208  0000f46c  79202564	
 3208  0000f470  20746f20	
 3208  0000f474  30782578	
 3208  0000f478  2e0a00  	
 3209  0000f47b          	.text
 3210  00003640          	.align 2
 3211  00003640          	.proc _MemorySetFreemap
 3212  00003640          	.global _MemorySetFreemap
 3213  00003640          	_MemorySetFreemap:
 3214                      ;  Function 'MemorySetFreemap'; 0 bytes of locals, 5 regs to save.
 3215  00003640  afbefffc	sw	-4(r29),r30; push fp
 3216  00003644  001df020	add	r30,r0,r29; fp = sp
 3217  00003648  afbffff8	sw	-8(r29),r31; push ret addr
 3218  0000364c  2fbd0020	subui	r29,r29,#32; alloc local storage
 3219  00003650  afa20000	sw	0(r29),r2
 3220  00003654  afa30004	sw	4(r29),r3
 3221  00003658  afa40008	sw	8(r29),r4
 3222  0000365c  afa5000c	sw	12(r29),r5
 3223  00003660  afa60010	sw	16(r29),r6
 3224  00003664  8fc30000	lw	r3,(r30)
 3225  00003668  8fdf0004	lw	r31,4(r30)
 3226  0000366c  00031020	add	r2,r0,r3
 3227  00003670  74610000	sgei	r1,r3,#0
 3228  00003674  14200008	bnez	r1,L61_LF4
 3229  00003678  54000000	nop; not filled.
 3230  0000367c  2062001f	addi	r2,r3,#31
 3231  00003680          	L61_LF4:
 3232  00003680  5c450005	srai	r5,r2,#0x5
 3233  00003684  50a10005	slli	r1,r5,#0x5
 3234  00003688  00611822	sub	r3,r3,r1
 3235  0000368c  20010001	addi	r1,r0,#1
 3236  00003690  00231004	sll	r2,r1,r3
 3237  00003694  3c010000	lhi	r1,((_negativeone_LF4)>>16)&0xffff
 3238  00003698  2421f458	addui	r1,r1,(_negativeone_LF4)&0xffff
 3239  0000369c  8c210000	lw	r1,(r1)
 3240  000036a0  00411026	xor	r2,r2,r1
 3241  000036a4  50a10002	slli	r1,r5,#0x2
 3242  000036a8  3c060000	lhi	r6,((_freepages_LF4)>>16)&0xffff
 3243  000036ac  24c6f5cc	addui	r6,r6,(_freepages_LF4)&0xffff
 3244  000036b0  00262020	add	r4,r1,r6
 3245  000036b4  8c810000	lw	r1,(r4)
 3246  000036b8  00221024	and	r2,r1,r2
 3247  000036bc  03e30804	sll	r1,r31,r3
 3248  000036c0  00410825	or	r1,r2,r1
 3249  000036c4  ac810000	sw	(r4),r1
 3250  000036c8  23bdfff8	addi	r29,r29,#-8
 3251  000036cc  3c020001	lhi	r2,((_debugstr)>>16)&0xffff
 3252  000036d0  24421f50	addui	r2,r2,(_debugstr)&0xffff
 3253  000036d4  afa20000	sw	(r29),r2
 3254  000036d8  2006006d	addi	r6,r0,#109
 3255  000036dc  afa60004	sw	4(r29),r6
 3256  000036e0  0c001354	jal	_dindex
 3257  000036e4  54000000	nop; not filled.
 3258  000036e8  23bd0008	addi	r29,r29,#8
 3259  000036ec  64210000	snei	r1,r1,#0
 3260  000036f0  1420002c	bnez	r1,L65_LF4
 3261  000036f4  54000000	nop; not filled.
 3262  000036f8  23bdfff8	addi	r29,r29,#-8
 3263  000036fc  afa20000	sw	(r29),r2
 3264  00003700  2006002b	addi	r6,r0,#43
 3265  00003704  afa60004	sw	4(r29),r6
 3266  00003708  0c00132c	jal	_dindex
 3267  0000370c  54000000	nop; not filled.
 3268  00003710  23bd0008	addi	r29,r29,#8
 3269  00003714  64210000	snei	r1,r1,#0
 3270  00003718  1020002c	beqz	r1,L64_LF4
 3271  0000371c  54000000	nop; not filled.
 3272  00003720          	L65_LF4:
 3273  00003720  23bdfff0	addi	r29,r29,#-16
 3274  00003724  3c060000	lhi	r6,((LC0_LF4)>>16)&0xffff
 3275  00003728  24c6f45c	addui	r6,r6,(LC0_LF4)&0xffff
 3276  0000372c  afa60000	sw	(r29),r6
 3277  00003730  afa50004	sw	4(r29),r5
 3278  00003734  8c840000	lw	r4,(r4)
 3279  00003738  afa40008	sw	8(r29),r4
 3280  0000373c  0c00924c	jal	_printf
 3281  00003740  54000000	nop; not filled.
 3282  00003744  23bd0010	addi	r29,r29,#16
 3283  00003748          	L64_LF4:
 3284  00003748  8fa20000	lw	r2,0(r29)
 3285  0000374c  8fa30004	lw	r3,4(r29)
 3286  00003750  8fa40008	lw	r4,8(r29)
 3287  00003754  8fa5000c	lw	r5,12(r29)
 3288  00003758  8fa60010	lw	r6,16(r29)
 3289  0000375c  8fdffff8	lw	r31,-8(r30)
 3290  00003760  001ee820	add	r29,r0,r30
 3291  00003764  8fdefffc	lw	r30,-4(r30)
 3292  00003768  4be00000	jr	r31
 3293  0000376c  54000000	nop
 3294  00003770          	.endproc _MemorySetFreemap
 3295  00003770          	.data
 3296  0000f47b          	.align 2
 3297  0000f47c          	LC1_LF4:
 3298  0000f47c  4d617020	.ascii "Map has %d entries, memory size is 0x%x.\n\000"
 3298  0000f480  68617320	
 3298  0000f484  25642065	
 3298  0000f488  6e747269	
 3298  0000f48c  65732c20	
 3298  0000f490  6d656d6f	
 3298  0000f494  72792073	
 3298  0000f498  697a6520	
 3298  0000f49c  69732030	
 3298  0000f4a0  7825782e	
 3298  0000f4a4  0a00    	
 3299  0000f4a6          	.align 2
 3300  0000f4a8          	LC2_LF4:
 3301  0000f4a8  46726565	.ascii "Free pages start with page # 0x%x.\n\000"
 3301  0000f4ac  20706167	
 3301  0000f4b0  65732073	
 3301  0000f4b4  74617274	
 3301  0000f4b8  20776974	
 3301  0000f4bc  68207061	
 3301  0000f4c0  67652023	
 3301  0000f4c4  20307825	
 3301  0000f4c8  782e0a00	
 3302  0000f4cc          	.align 2
 3303  0000f4cc          	LC3_LF4:
 3304  0000f4cc  496e6974	.ascii "Initialized %d free pages.\n\000"
 3304  0000f4d0  69616c69	
 3304  0000f4d4  7a656420	
 3304  0000f4d8  25642066	
 3304  0000f4dc  72656520	
 3304  0000f4e0  70616765	
 3304  0000f4e4  732e0a00	
 3305  0000f4e8          	.text
 3306  00003770          	.align 2
 3307  00003770          	.proc _MemoryModuleInit
 3308  00003770          	.global _MemoryModuleInit
 3309  00003770          	_MemoryModuleInit:
 3310                      ;  Function 'MemoryModuleInit'; 0 bytes of locals, 10 regs to save.
 3311  00003770  afbefffc	sw	-4(r29),r30; push fp
 3312  00003774  001df020	add	r30,r0,r29; fp = sp
 3313  00003778  afbffff8	sw	-8(r29),r31; push ret addr
 3314  0000377c  2fbd0030	subui	r29,r29,#48; alloc local storage
 3315  00003780  afa20000	sw	0(r29),r2
 3316  00003784  afa30004	sw	4(r29),r3
 3317  00003788  afa40008	sw	8(r29),r4
 3318  0000378c  afa5000c	sw	12(r29),r5
 3319  00003790  afa60010	sw	16(r29),r6
 3320  00003794  afa70014	sw	20(r29),r7
 3321  00003798  afa80018	sw	24(r29),r8
 3322  0000379c  afa9001c	sw	28(r29),r9
 3323  000037a0  afaa0020	sw	32(r29),r10
 3324  000037a4  afab0024	sw	36(r29),r11
 3325  000037a8  3c01ffff	lhi	r1,#-1
 3326  000037ac  24210000	addui	r1,r1,#0
 3327  000037b0  8c220000	lw	r2,(r1)
 3328  000037b4  74410000	sgei	r1,r2,#0
 3329  000037b8  14200008	bnez	r1,L68_LF4
 3330  000037bc  54000000	nop; not filled.
 3331  000037c0  2442ffff	addui	r2,r2,#65535
 3332  000037c4          	L68_LF4:
 3333  000037c4  5c480010	srai	r8,r2,#0x10
 3334  000037c8  3c030000	lhi	r3,((_pagestart_LF4)>>16)&0xffff
 3335  000037cc  2463f5c0	addui	r3,r3,(_pagestart_LF4)&0xffff
 3336  000037d0  3c010001	lhi	r1,((_lastosaddress)>>16)&0xffff
 3337  000037d4  24216004	addui	r1,r1,(_lastosaddress)&0xffff
 3338  000037d8  8c210000	lw	r1,(r1)
 3339  000037dc  2422fffc	addui	r2,r1,#65532
 3340  000037e0  74410000	sgei	r1,r2,#0
 3341  000037e4  14200008	bnez	r1,L69_LF4
 3342  000037e8  54000000	nop; not filled.
 3343  000037ec  2442ffff	addui	r2,r2,#65535
 3344  000037f0          	L69_LF4:
 3345  000037f0  5c410010	srai	r1,r2,#0x10
 3346  000037f4  ac610000	sw	(r3),r1
 3347  000037f8  3c030000	lhi	r3,((_freemapmax_LF4)>>16)&0xffff
 3348  000037fc  2463f5c4	addui	r3,r3,(_freemapmax_LF4)&0xffff
 3349  00003800  2102001f	addi	r2,r8,#31
 3350  00003804  74410000	sgei	r1,r2,#0
 3351  00003808  14200008	bnez	r1,L70_LF4
 3352  0000380c  54000000	nop; not filled.
 3353  00003810  2102003e	addi	r2,r8,#62
 3354  00003814          	L70_LF4:
 3355  00003814  5c410005	srai	r1,r2,#0x5
 3356  00003818  ac610000	sw	(r3),r1
 3357  0000381c  23bdfff8	addi	r29,r29,#-8
 3358  00003820  3c020001	lhi	r2,((_debugstr)>>16)&0xffff
 3359  00003824  24421f50	addui	r2,r2,(_debugstr)&0xffff
 3360  00003828  afa20000	sw	(r29),r2
 3361  0000382c  200b006d	addi	r11,r0,#109
 3362  00003830  afab0004	sw	4(r29),r11
 3363  00003834  0c001200	jal	_dindex
 3364  00003838  54000000	nop; not filled.
 3365  0000383c  23bd0008	addi	r29,r29,#8
 3366  00003840  64210000	snei	r1,r1,#0
 3367  00003844  1420002c	bnez	r1,L72_LF4
 3368  00003848  54000000	nop; not filled.
 3369  0000384c  23bdfff8	addi	r29,r29,#-8
 3370  00003850  afa20000	sw	(r29),r2
 3371  00003854  200b002b	addi	r11,r0,#43
 3372  00003858  afab0004	sw	4(r29),r11
 3373  0000385c  0c0011d8	jal	_dindex
 3374  00003860  54000000	nop; not filled.
 3375  00003864  23bd0008	addi	r29,r29,#8
 3376  00003868  64210000	snei	r1,r1,#0
 3377  0000386c  1020002c	beqz	r1,L71_LF4
 3378  00003870  54000000	nop; not filled.
 3379  00003874          	L72_LF4:
 3380  00003874  23bdfff0	addi	r29,r29,#-16
 3381  00003878  3c0b0000	lhi	r11,((LC1_LF4)>>16)&0xffff
 3382  0000387c  256bf47c	addui	r11,r11,(LC1_LF4)&0xffff
 3383  00003880  afab0000	sw	(r29),r11
 3384  00003884  8c610000	lw	r1,(r3)
 3385  00003888  afa10004	sw	4(r29),r1
 3386  0000388c  afa80008	sw	8(r29),r8
 3387  00003890  0c0090f8	jal	_printf
 3388  00003894  54000000	nop; not filled.
 3389  00003898  23bd0010	addi	r29,r29,#16
 3390  0000389c          	L71_LF4:
 3391  0000389c  23bdfff8	addi	r29,r29,#-8
 3392  000038a0  3c020001	lhi	r2,((_debugstr)>>16)&0xffff
 3393  000038a4  24421f50	addui	r2,r2,(_debugstr)&0xffff
 3394  000038a8  afa20000	sw	(r29),r2
 3395  000038ac  200b006d	addi	r11,r0,#109
 3396  000038b0  afab0004	sw	4(r29),r11
 3397  000038b4  0c001180	jal	_dindex
 3398  000038b8  54000000	nop; not filled.
 3399  000038bc  23bd0008	addi	r29,r29,#8
 3400  000038c0  64210000	snei	r1,r1,#0
 3401  000038c4  1420002c	bnez	r1,L74_LF4
 3402  000038c8  54000000	nop; not filled.
 3403  000038cc  23bdfff8	addi	r29,r29,#-8
 3404  000038d0  afa20000	sw	(r29),r2
 3405  000038d4  200b002b	addi	r11,r0,#43
 3406  000038d8  afab0004	sw	4(r29),r11
 3407  000038dc  0c001158	jal	_dindex
 3408  000038e0  54000000	nop; not filled.
 3409  000038e4  23bd0008	addi	r29,r29,#8
 3410  000038e8  64210000	snei	r1,r1,#0
 3411  000038ec  10200030	beqz	r1,L73_LF4
 3412  000038f0  54000000	nop; not filled.
 3413  000038f4          	L74_LF4:
 3414  000038f4  23bdfff8	addi	r29,r29,#-8
 3415  000038f8  3c0b0000	lhi	r11,((LC2_LF4)>>16)&0xffff
 3416  000038fc  256bf4a8	addui	r11,r11,(LC2_LF4)&0xffff
 3417  00003900  afab0000	sw	(r29),r11
 3418  00003904  3c010000	lhi	r1,((_pagestart_LF4)>>16)&0xffff
 3419  00003908  2421f5c0	addui	r1,r1,(_pagestart_LF4)&0xffff
 3420  0000390c  8c210000	lw	r1,(r1)
 3421  00003910  afa10004	sw	4(r29),r1
 3422  00003914  0c009074	jal	_printf
 3423  00003918  54000000	nop; not filled.
 3424  0000391c  23bd0008	addi	r29,r29,#8
 3425  00003920          	L73_LF4:
 3426  00003920  20020000	addi	r2,r0,#0
 3427  00003924  3c040000	lhi	r4,((_freemapmax_LF4)>>16)&0xffff
 3428  00003928  2484f5c4	addui	r4,r4,(_freemapmax_LF4)&0xffff
 3429  0000392c  8c810000	lw	r1,(r4)
 3430  00003930  0041082a	slt	r1,r2,r1
 3431  00003934  1020002c	beqz	r1,L76_LF4
 3432  00003938  54000000	nop; not filled.
 3433  0000393c  3c030000	lhi	r3,((_freepages_LF4)>>16)&0xffff
 3434  00003940  2463f5cc	addui	r3,r3,(_freepages_LF4)&0xffff
 3435  00003944          	L78_LF4:
 3436  00003944  200b0000	addi	r11,r0,#0
 3437  00003948  ac6b0000	sw	(r3),r11
 3438  0000394c  20630004	addi	r3,r3,#4
 3439  00003950  20420001	addi	r2,r2,#1
 3440  00003954  8c810000	lw	r1,(r4)
 3441  00003958  0041082a	slt	r1,r2,r1
 3442  0000395c  1420ffe4	bnez	r1,L78_LF4
 3443  00003960  54000000	nop; not filled.
 3444  00003964          	L76_LF4:
 3445  00003964  3c020000	lhi	r2,((_nfreepages_LF4)>>16)&0xffff
 3446  00003968  2442f5c8	addui	r2,r2,(_nfreepages_LF4)&0xffff
 3447  0000396c  200b0000	addi	r11,r0,#0
 3448  00003970  ac4b0000	sw	(r2),r11
 3449  00003974  3c010000	lhi	r1,((_pagestart_LF4)>>16)&0xffff
 3450  00003978  2421f5c0	addui	r1,r1,(_pagestart_LF4)&0xffff
 3451  0000397c  8c240000	lw	r4,(r1)
 3452  00003980  0088082a	slt	r1,r4,r8
 3453  00003984  10200104	beqz	r1,L81_LF4
 3454  00003988  54000000	nop; not filled.
 3455  0000398c  00023820	add	r7,r0,r2
 3456  00003990  200a0001	addi	r10,r0,#1
 3457  00003994  3c090000	lhi	r9,((_negativeone_LF4)>>16)&0xffff
 3458  00003998  2529f458	addui	r9,r9,(_negativeone_LF4)&0xffff
 3459  0000399c          	L83_LF4:
 3460  0000399c  8ce10000	lw	r1,(r7)
 3461  000039a0  20210001	addi	r1,r1,#1
 3462  000039a4  ace10000	sw	(r7),r1
 3463  000039a8  00041020	add	r2,r0,r4
 3464  000039ac  74810000	sgei	r1,r4,#0
 3465  000039b0  14200008	bnez	r1,L85_LF4
 3466  000039b4  54000000	nop; not filled.
 3467  000039b8  2082001f	addi	r2,r4,#31
 3468  000039bc          	L85_LF4:
 3469  000039bc  5c460005	srai	r6,r2,#0x5
 3470  000039c0  50c10005	slli	r1,r6,#0x5
 3471  000039c4  00810822	sub	r1,r4,r1
 3472  000039c8  01411804	sll	r3,r10,r1
 3473  000039cc  8d210000	lw	r1,(r9)
 3474  000039d0  00611026	xor	r2,r3,r1
 3475  000039d4  50c10002	slli	r1,r6,#0x2
 3476  000039d8  3c0b0000	lhi	r11,((_freepages_LF4)>>16)&0xffff
 3477  000039dc  256bf5cc	addui	r11,r11,(_freepages_LF4)&0xffff
 3478  000039e0  002b2820	add	r5,r1,r11
 3479  000039e4  8ca10000	lw	r1,(r5)
 3480  000039e8  00220824	and	r1,r1,r2
 3481  000039ec  00230825	or	r1,r1,r3
 3482  000039f0  aca10000	sw	(r5),r1
 3483  000039f4  23bdfff8	addi	r29,r29,#-8
 3484  000039f8  3c0b0001	lhi	r11,((_debugstr)>>16)&0xffff
 3485  000039fc  256b1f50	addui	r11,r11,(_debugstr)&0xffff
 3486  00003a00  afab0000	sw	(r29),r11
 3487  00003a04  200b006d	addi	r11,r0,#109
 3488  00003a08  afab0004	sw	4(r29),r11
 3489  00003a0c  0c001028	jal	_dindex
 3490  00003a10  54000000	nop; not filled.
 3491  00003a14  23bd0008	addi	r29,r29,#8
 3492  00003a18  64210000	snei	r1,r1,#0
 3493  00003a1c  14200034	bnez	r1,L89_LF4
 3494  00003a20  54000000	nop; not filled.
 3495  00003a24  23bdfff8	addi	r29,r29,#-8
 3496  00003a28  3c0b0001	lhi	r11,((_debugstr)>>16)&0xffff
 3497  00003a2c  256b1f50	addui	r11,r11,(_debugstr)&0xffff
 3498  00003a30  afab0000	sw	(r29),r11
 3499  00003a34  200b002b	addi	r11,r0,#43
 3500  00003a38  afab0004	sw	4(r29),r11
 3501  00003a3c  0c000ff8	jal	_dindex
 3502  00003a40  54000000	nop; not filled.
 3503  00003a44  23bd0008	addi	r29,r29,#8
 3504  00003a48  64210000	snei	r1,r1,#0
 3505  00003a4c  1020002c	beqz	r1,L82_LF4
 3506  00003a50  54000000	nop; not filled.
 3507  00003a54          	L89_LF4:
 3508  00003a54  23bdfff0	addi	r29,r29,#-16
 3509  00003a58  3c0b0000	lhi	r11,((LC0_LF4)>>16)&0xffff
 3510  00003a5c  256bf45c	addui	r11,r11,(LC0_LF4)&0xffff
 3511  00003a60  afab0000	sw	(r29),r11
 3512  00003a64  afa60004	sw	4(r29),r6
 3513  00003a68  8ca50000	lw	r5,(r5)
 3514  00003a6c  afa50008	sw	8(r29),r5
 3515  00003a70  0c008f18	jal	_printf
 3516  00003a74  54000000	nop; not filled.
 3517  00003a78  23bd0010	addi	r29,r29,#16
 3518  00003a7c          	L82_LF4:
 3519  00003a7c  20840001	addi	r4,r4,#1
 3520  00003a80  0088082a	slt	r1,r4,r8
 3521  00003a84  1420ff14	bnez	r1,L83_LF4
 3522  00003a88  54000000	nop; not filled.
 3523  00003a8c          	L81_LF4:
 3524  00003a8c  23bdfff8	addi	r29,r29,#-8
 3525  00003a90  3c020001	lhi	r2,((_debugstr)>>16)&0xffff
 3526  00003a94  24421f50	addui	r2,r2,(_debugstr)&0xffff
 3527  00003a98  afa20000	sw	(r29),r2
 3528  00003a9c  200b006d	addi	r11,r0,#109
 3529  00003aa0  afab0004	sw	4(r29),r11
 3530  00003aa4  0c000f90	jal	_dindex
 3531  00003aa8  54000000	nop; not filled.
 3532  00003aac  23bd0008	addi	r29,r29,#8
 3533  00003ab0  64210000	snei	r1,r1,#0
 3534  00003ab4  1420002c	bnez	r1,L92_LF4
 3535  00003ab8  54000000	nop; not filled.
 3536  00003abc  23bdfff8	addi	r29,r29,#-8
 3537  00003ac0  afa20000	sw	(r29),r2
 3538  00003ac4  200b002b	addi	r11,r0,#43
 3539  00003ac8  afab0004	sw	4(r29),r11
 3540  00003acc  0c000f68	jal	_dindex
 3541  00003ad0  54000000	nop; not filled.
 3542  00003ad4  23bd0008	addi	r29,r29,#8
 3543  00003ad8  64210000	snei	r1,r1,#0
 3544  00003adc  10200030	beqz	r1,L91_LF4
 3545  00003ae0  54000000	nop; not filled.
 3546  00003ae4          	L92_LF4:
 3547  00003ae4  23bdfff8	addi	r29,r29,#-8
 3548  00003ae8  3c0b0000	lhi	r11,((LC3_LF4)>>16)&0xffff
 3549  00003aec  256bf4cc	addui	r11,r11,(LC3_LF4)&0xffff
 3550  00003af0  afab0000	sw	(r29),r11
 3551  00003af4  3c010000	lhi	r1,((_nfreepages_LF4)>>16)&0xffff
 3552  00003af8  2421f5c8	addui	r1,r1,(_nfreepages_LF4)&0xffff
 3553  00003afc  8c210000	lw	r1,(r1)
 3554  00003b00  afa10004	sw	4(r29),r1
 3555  00003b04  0c008e84	jal	_printf
 3556  00003b08  54000000	nop; not filled.
 3557  00003b0c  23bd0008	addi	r29,r29,#8
 3558  00003b10          	L91_LF4:
 3559  00003b10  8fa20000	lw	r2,0(r29)
 3560  00003b14  8fa30004	lw	r3,4(r29)
 3561  00003b18  8fa40008	lw	r4,8(r29)
 3562  00003b1c  8fa5000c	lw	r5,12(r29)
 3563  00003b20  8fa60010	lw	r6,16(r29)
 3564  00003b24  8fa70014	lw	r7,20(r29)
 3565  00003b28  8fa80018	lw	r8,24(r29)
 3566  00003b2c  8fa9001c	lw	r9,28(r29)
 3567  00003b30  8faa0020	lw	r10,32(r29)
 3568  00003b34  8fab0024	lw	r11,36(r29)
 3569  00003b38  8fdffff8	lw	r31,-8(r30)
 3570  00003b3c  001ee820	add	r29,r0,r30
 3571  00003b40  8fdefffc	lw	r30,-4(r30)
 3572  00003b44  4be00000	jr	r31
 3573  00003b48  54000000	nop
 3574  00003b4c          	.endproc _MemoryModuleInit
 3575  00003b4c          	.data
 3576  0000f4e8          	.align 2
 3577  0000f4e8          	_mapnum42_LF4:
 3578  0000f4e8  00000000	.word 0
 3579  0000f4ec          	.align 2
 3580  0000f4ec          	LC4_LF4:
 3581  0000f4ec  4552524f	.ascii "ERROR AT THIS POINT\n\000"
 3581  0000f4f0  52204154	
 3581  0000f4f4  20544849	
 3581  0000f4f8  5320504f	
 3581  0000f4fc  494e540a	
 3581  0000f500  00      	
 3582  0000f501          	.align 2
 3583  0000f504          	LC5_LF4:
 3584  0000f504  416c6c6f	.ascii "Allocating memory, starting with page %d\n\000"
 3584  0000f508  63617469	
 3584  0000f50c  6e67206d	
 3584  0000f510  656d6f72	
 3584  0000f514  792c2073	
 3584  0000f518  74617274	
 3584  0000f51c  696e6720	
 3584  0000f520  77697468	
 3584  0000f524  20706167	
 3584  0000f528  65202564	
 3584  0000f52c  0a00    	
 3585  0000f52e          	.align 2
 3586  0000f530          	LC6_LF4:
 3587  0000f530  416c6c6f	.ascii "Allocated memory, from map %d, page %d, map=0x%x.\n\000"
 3587  0000f534  63617465	
 3587  0000f538  64206d65	
 3587  0000f53c  6d6f7279	
 3587  0000f540  2c206672	
 3587  0000f544  6f6d206d	
 3587  0000f548  61702025	
 3587  0000f54c  642c2070	
 3587  0000f550  61676520	
 3587  0000f554  25642c20	
 3587  0000f558  6d61703d	
 3587  0000f55c  30782578	
 3587  0000f560  2e0a00  	
 3588  0000f563          	.text
 3589  00003b4c          	.align 2
 3590  00003b4c          	.proc _MemoryAllocPage
 3591  00003b4c          	.global _MemoryAllocPage
 3592  00003b4c          	_MemoryAllocPage:
 3593                      ;  Function 'MemoryAllocPage'; 0 bytes of locals, 6 regs to save.
 3594  00003b4c  afbefffc	sw	-4(r29),r30; push fp
 3595  00003b50  001df020	add	r30,r0,r29; fp = sp
 3596  00003b54  afbffff8	sw	-8(r29),r31; push ret addr
 3597  00003b58  2fbd0020	subui	r29,r29,#32; alloc local storage
 3598  00003b5c  afa20000	sw	0(r29),r2
 3599  00003b60  afa30004	sw	4(r29),r3
 3600  00003b64  afa40008	sw	8(r29),r4
 3601  00003b68  afa5000c	sw	12(r29),r5
 3602  00003b6c  afa60010	sw	16(r29),r6
 3603  00003b70  afa70014	sw	20(r29),r7
 3604  00003b74  3c010000	lhi	r1,((_nfreepages_LF4)>>16)&0xffff
 3605  00003b78  2421f5c8	addui	r1,r1,(_nfreepages_LF4)&0xffff
 3606  00003b7c  8c210000	lw	r1,(r1)
 3607  00003b80  64210000	snei	r1,r1,#0
 3608  00003b84  1420002c	bnez	r1,L111_LF4
 3609  00003b88  54000000	nop; not filled.
 3610  00003b8c  23bdfff8	addi	r29,r29,#-8
 3611  00003b90  3c070000	lhi	r7,((LC4_LF4)>>16)&0xffff
 3612  00003b94  24e7f4ec	addui	r7,r7,(LC4_LF4)&0xffff
 3613  00003b98  afa70000	sw	(r29),r7
 3614  00003b9c  0c008dec	jal	_printf
 3615  00003ba0  54000000	nop; not filled.
 3616  00003ba4  20010000	addi	r1,r0,#0
 3617  00003ba8  23bd0008	addi	r29,r29,#8
 3618  00003bac  08000238	j	L110_LF4
 3619  00003bb0  54000000	nop; not filled.
 3620  00003bb4          	L111_LF4:
 3621  00003bb4  23bdfff8	addi	r29,r29,#-8
 3622  00003bb8  3c020001	lhi	r2,((_debugstr)>>16)&0xffff
 3623  00003bbc  24421f50	addui	r2,r2,(_debugstr)&0xffff
 3624  00003bc0  afa20000	sw	(r29),r2
 3625  00003bc4  2007006d	addi	r7,r0,#109
 3626  00003bc8  afa70004	sw	4(r29),r7
 3627  00003bcc  0c000e68	jal	_dindex
 3628  00003bd0  54000000	nop; not filled.
 3629  00003bd4  23bd0008	addi	r29,r29,#8
 3630  00003bd8  64210000	snei	r1,r1,#0
 3631  00003bdc  1420002c	bnez	r1,L113_LF4
 3632  00003be0  54000000	nop; not filled.
 3633  00003be4  23bdfff8	addi	r29,r29,#-8
 3634  00003be8  afa20000	sw	(r29),r2
 3635  00003bec  2007002b	addi	r7,r0,#43
 3636  00003bf0  afa70004	sw	4(r29),r7
 3637  00003bf4  0c000e40	jal	_dindex
 3638  00003bf8  54000000	nop; not filled.
 3639  00003bfc  23bd0008	addi	r29,r29,#8
 3640  00003c00  64210000	snei	r1,r1,#0
 3641  00003c04  10200030	beqz	r1,L112_LF4
 3642  00003c08  54000000	nop; not filled.
 3643  00003c0c          	L113_LF4:
 3644  00003c0c  23bdfff8	addi	r29,r29,#-8
 3645  00003c10  3c070000	lhi	r7,((LC5_LF4)>>16)&0xffff
 3646  00003c14  24e7f504	addui	r7,r7,(LC5_LF4)&0xffff
 3647  00003c18  afa70000	sw	(r29),r7
 3648  00003c1c  3c010000	lhi	r1,((_mapnum42_LF4)>>16)&0xffff
 3649  00003c20  2421f4e8	addui	r1,r1,(_mapnum42_LF4)&0xffff
 3650  00003c24  8c210000	lw	r1,(r1)
 3651  00003c28  afa10004	sw	4(r29),r1
 3652  00003c2c  0c008d5c	jal	_printf
 3653  00003c30  54000000	nop; not filled.
 3654  00003c34  23bd0008	addi	r29,r29,#8
 3655  00003c38          	L112_LF4:
 3656  00003c38  3c020000	lhi	r2,((_mapnum42_LF4)>>16)&0xffff
 3657  00003c3c  2442f4e8	addui	r2,r2,(_mapnum42_LF4)&0xffff
 3658  00003c40  8c410000	lw	r1,(r2)
 3659  00003c44  3c040000	lhi	r4,((_freepages_LF4)>>16)&0xffff
 3660  00003c48  2484f5cc	addui	r4,r4,(_freepages_LF4)&0xffff
 3661  00003c4c  50210002	slli	r1,r1,#0x2
 3662  00003c50  00240820	add	r1,r1,r4
 3663  00003c54  8c210000	lw	r1,(r1)
 3664  00003c58  64210000	snei	r1,r1,#0
 3665  00003c5c  1420004c	bnez	r1,L115_LF4
 3666  00003c60  54000000	nop; not filled.
 3667  00003c64  3c010000	lhi	r1,((_freemapmax_LF4)>>16)&0xffff
 3668  00003c68  2421f5c4	addui	r1,r1,(_freemapmax_LF4)&0xffff
 3669  00003c6c  8c230000	lw	r3,(r1)
 3670  00003c70          	L116_LF4:
 3671  00003c70  8c410000	lw	r1,(r2)
 3672  00003c74  20210001	addi	r1,r1,#1
 3673  00003c78  ac410000	sw	(r2),r1
 3674  00003c7c  0023082d	sge	r1,r1,r3
 3675  00003c80  1020000c	beqz	r1,L114_LF4
 3676  00003c84  54000000	nop; not filled.
 3677  00003c88  20070000	addi	r7,r0,#0
 3678  00003c8c  ac470000	sw	(r2),r7
 3679  00003c90          	L114_LF4:
 3680  00003c90  8c410000	lw	r1,(r2)
 3681  00003c94  50210002	slli	r1,r1,#0x2
 3682  00003c98  00240820	add	r1,r1,r4
 3683  00003c9c  8c210000	lw	r1,(r1)
 3684  00003ca0  64210000	snei	r1,r1,#0
 3685  00003ca4  1020ffc8	beqz	r1,L116_LF4
 3686  00003ca8  54000000	nop; not filled.
 3687  00003cac          	L115_LF4:
 3688  00003cac  3c010000	lhi	r1,((_mapnum42_LF4)>>16)&0xffff
 3689  00003cb0  2421f4e8	addui	r1,r1,(_mapnum42_LF4)&0xffff
 3690  00003cb4  8c210000	lw	r1,(r1)
 3691  00003cb8  50210002	slli	r1,r1,#0x2
 3692  00003cbc  3c070000	lhi	r7,((_freepages_LF4)>>16)&0xffff
 3693  00003cc0  24e7f5cc	addui	r7,r7,(_freepages_LF4)&0xffff
 3694  00003cc4  00270820	add	r1,r1,r7
 3695  00003cc8  8c230000	lw	r3,(r1)
 3696  00003ccc  201f0000	addi	r31,r0,#0
 3697  00003cd0  30610001	andi	r1,r3,#1
 3698  00003cd4  14200020	bnez	r1,L120_LF4
 3699  00003cd8  54000000	nop; not filled.
 3700  00003cdc  20020001	addi	r2,r0,#1
 3701  00003ce0          	L121_LF4:
 3702  00003ce0  23ff0001	addi	r31,r31,#1
 3703  00003ce4  005f0804	sll	r1,r2,r31
 3704  00003ce8  00610824	and	r1,r3,r1
 3705  00003cec  64210000	snei	r1,r1,#0
 3706  00003cf0  1020ffec	beqz	r1,L121_LF4
 3707  00003cf4  54000000	nop; not filled.
 3708  00003cf8          	L120_LF4:
 3709  00003cf8  20010001	addi	r1,r0,#1
 3710  00003cfc  003f1004	sll	r2,r1,r31
 3711  00003d00  3c010000	lhi	r1,((_negativeone_LF4)>>16)&0xffff
 3712  00003d04  2421f458	addui	r1,r1,(_negativeone_LF4)&0xffff
 3713  00003d08  8c210000	lw	r1,(r1)
 3714  00003d0c  00412026	xor	r4,r2,r1
 3715  00003d10  3c050000	lhi	r5,((_mapnum42_LF4)>>16)&0xffff
 3716  00003d14  24a5f4e8	addui	r5,r5,(_mapnum42_LF4)&0xffff
 3717  00003d18  8ca30000	lw	r3,(r5)
 3718  00003d1c  3c060000	lhi	r6,((_freepages_LF4)>>16)&0xffff
 3719  00003d20  24c6f5cc	addui	r6,r6,(_freepages_LF4)&0xffff
 3720  00003d24  50610002	slli	r1,r3,#0x2
 3721  00003d28  00261020	add	r2,r1,r6
 3722  00003d2c  8c410000	lw	r1,(r2)
 3723  00003d30  00240824	and	r1,r1,r4
 3724  00003d34  ac410000	sw	(r2),r1
 3725  00003d38  50610005	slli	r1,r3,#0x5
 3726  00003d3c  003f1820	add	r3,r1,r31
 3727  00003d40  23bdfff8	addi	r29,r29,#-8
 3728  00003d44  3c020001	lhi	r2,((_debugstr)>>16)&0xffff
 3729  00003d48  24421f50	addui	r2,r2,(_debugstr)&0xffff
 3730  00003d4c  afa20000	sw	(r29),r2
 3731  00003d50  2007006d	addi	r7,r0,#109
 3732  00003d54  afa70004	sw	4(r29),r7
 3733  00003d58  0c000cdc	jal	_dindex
 3734  00003d5c  54000000	nop; not filled.
 3735  00003d60  23bd0008	addi	r29,r29,#8
 3736  00003d64  64210000	snei	r1,r1,#0
 3737  00003d68  1420002c	bnez	r1,L126_LF4
 3738  00003d6c  54000000	nop; not filled.
 3739  00003d70  23bdfff8	addi	r29,r29,#-8
 3740  00003d74  afa20000	sw	(r29),r2
 3741  00003d78  2007002b	addi	r7,r0,#43
 3742  00003d7c  afa70004	sw	4(r29),r7
 3743  00003d80  0c000cb4	jal	_dindex
 3744  00003d84  54000000	nop; not filled.
 3745  00003d88  23bd0008	addi	r29,r29,#8
 3746  00003d8c  64210000	snei	r1,r1,#0
 3747  00003d90  1020003c	beqz	r1,L125_LF4
 3748  00003d94  54000000	nop; not filled.
 3749  00003d98          	L126_LF4:
 3750  00003d98  23bdfff0	addi	r29,r29,#-16
 3751  00003d9c  3c070000	lhi	r7,((LC6_LF4)>>16)&0xffff
 3752  00003da0  24e7f530	addui	r7,r7,(LC6_LF4)&0xffff
 3753  00003da4  afa70000	sw	(r29),r7
 3754  00003da8  8ca10000	lw	r1,(r5)
 3755  00003dac  afa10004	sw	4(r29),r1
 3756  00003db0  afa30008	sw	8(r29),r3
 3757  00003db4  50210002	slli	r1,r1,#0x2
 3758  00003db8  00260820	add	r1,r1,r6
 3759  00003dbc  8c210000	lw	r1,(r1)
 3760  00003dc0  afa1000c	sw	12(r29),r1
 3761  00003dc4  0c008bc4	jal	_printf
 3762  00003dc8  54000000	nop; not filled.
 3763  00003dcc  23bd0010	addi	r29,r29,#16
 3764  00003dd0          	L125_LF4:
 3765  00003dd0  3c010000	lhi	r1,((_nfreepages_LF4)>>16)&0xffff
 3766  00003dd4  2421f5c8	addui	r1,r1,(_nfreepages_LF4)&0xffff
 3767  00003dd8  8c220000	lw	r2,(r1)
 3768  00003ddc  2042ffff	addi	r2,r2,#-1
 3769  00003de0  ac220000	sw	(r1),r2
 3770  00003de4  00030820	add	r1,r0,r3
 3771  00003de8          	L110_LF4:
 3772  00003de8  8fa20000	lw	r2,0(r29)
 3773  00003dec  8fa30004	lw	r3,4(r29)
 3774  00003df0  8fa40008	lw	r4,8(r29)
 3775  00003df4  8fa5000c	lw	r5,12(r29)
 3776  00003df8  8fa60010	lw	r6,16(r29)
 3777  00003dfc  8fa70014	lw	r7,20(r29)
 3778  00003e00  8fdffff8	lw	r31,-8(r30)
 3779  00003e04  001ee820	add	r29,r0,r30
 3780  00003e08  8fdefffc	lw	r30,-4(r30)
 3781  00003e0c  4be00000	jr	r31
 3782  00003e10  54000000	nop
 3783  00003e14          	.endproc _MemoryAllocPage
 3784  00003e14          	.data
 3785  0000f563          	.align 2
 3786  0000f564          	LC7_LF4:
 3787  0000f564  46726565	.ascii "Freed page 0x%x, %d remaining.\n\000"
 3787  0000f568  64207061	
 3787  0000f56c  67652030	
 3787  0000f570  7825782c	
 3787  0000f574  20256420	
 3787  0000f578  72656d61	
 3787  0000f57c  696e696e	
 3787  0000f580  672e0a00	
 3788  0000f584          	.text
 3789  00003e14          	.align 2
 3790  00003e14          	.proc _MemoryFreePage
 3791  00003e14          	.global _MemoryFreePage
 3792  00003e14          	_MemoryFreePage:
 3793                      ;  Function 'MemoryFreePage'; 0 bytes of locals, 6 regs to save.
 3794  00003e14  afbefffc	sw	-4(r29),r30; push fp
 3795  00003e18  001df020	add	r30,r0,r29; fp = sp
 3796  00003e1c  afbffff8	sw	-8(r29),r31; push ret addr
 3797  00003e20  2fbd0020	subui	r29,r29,#32; alloc local storage
 3798  00003e24  afa20000	sw	0(r29),r2
 3799  00003e28  afa30004	sw	4(r29),r3
 3800  00003e2c  afa40008	sw	8(r29),r4
 3801  00003e30  afa5000c	sw	12(r29),r5
 3802  00003e34  afa60010	sw	16(r29),r6
 3803  00003e38  afa70014	sw	20(r29),r7
 3804  00003e3c  8fc60000	lw	r6,(r30)
 3805  00003e40  20030001	addi	r3,r0,#1
 3806  00003e44  00061020	add	r2,r0,r6
 3807  00003e48  74c10000	sgei	r1,r6,#0
 3808  00003e4c  14200008	bnez	r1,L129_LF4
 3809  00003e50  54000000	nop; not filled.
 3810  00003e54  20c2001f	addi	r2,r6,#31
 3811  00003e58          	L129_LF4:
 3812  00003e58  5c450005	srai	r5,r2,#0x5
 3813  00003e5c  50a10005	slli	r1,r5,#0x5
 3814  00003e60  00c10822	sub	r1,r6,r1
 3815  00003e64  00611804	sll	r3,r3,r1
 3816  00003e68  3c010000	lhi	r1,((_negativeone_LF4)>>16)&0xffff
 3817  00003e6c  2421f458	addui	r1,r1,(_negativeone_LF4)&0xffff
 3818  00003e70  8c210000	lw	r1,(r1)
 3819  00003e74  00611026	xor	r2,r3,r1
 3820  00003e78  50a10002	slli	r1,r5,#0x2
 3821  00003e7c  3c070000	lhi	r7,((_freepages_LF4)>>16)&0xffff
 3822  00003e80  24e7f5cc	addui	r7,r7,(_freepages_LF4)&0xffff
 3823  00003e84  00272020	add	r4,r1,r7
 3824  00003e88  8c810000	lw	r1,(r4)
 3825  00003e8c  00220824	and	r1,r1,r2
 3826  00003e90  00230825	or	r1,r1,r3
 3827  00003e94  ac810000	sw	(r4),r1
 3828  00003e98  23bdfff8	addi	r29,r29,#-8
 3829  00003e9c  3c070001	lhi	r7,((_debugstr)>>16)&0xffff
 3830  00003ea0  24e71f50	addui	r7,r7,(_debugstr)&0xffff
 3831  00003ea4  afa70000	sw	(r29),r7
 3832  00003ea8  2007006d	addi	r7,r0,#109
 3833  00003eac  afa70004	sw	4(r29),r7
 3834  00003eb0  0c000b84	jal	_dindex
 3835  00003eb4  54000000	nop; not filled.
 3836  00003eb8  23bd0008	addi	r29,r29,#8
 3837  00003ebc  64210000	snei	r1,r1,#0
 3838  00003ec0  14200034	bnez	r1,L133_LF4
 3839  00003ec4  54000000	nop; not filled.
 3840  00003ec8  23bdfff8	addi	r29,r29,#-8
 3841  00003ecc  3c070001	lhi	r7,((_debugstr)>>16)&0xffff
 3842  00003ed0  24e71f50	addui	r7,r7,(_debugstr)&0xffff
 3843  00003ed4  afa70000	sw	(r29),r7
 3844  00003ed8  2007002b	addi	r7,r0,#43
 3845  00003edc  afa70004	sw	4(r29),r7
 3846  00003ee0  0c000b54	jal	_dindex
 3847  00003ee4  54000000	nop; not filled.
 3848  00003ee8  23bd0008	addi	r29,r29,#8
 3849  00003eec  64210000	snei	r1,r1,#0
 3850  00003ef0  1020002c	beqz	r1,L128_LF4
 3851  00003ef4  54000000	nop; not filled.
 3852  00003ef8          	L133_LF4:
 3853  00003ef8  23bdfff0	addi	r29,r29,#-16
 3854  00003efc  3c070000	lhi	r7,((LC0_LF4)>>16)&0xffff
 3855  00003f00  24e7f45c	addui	r7,r7,(LC0_LF4)&0xffff
 3856  00003f04  afa70000	sw	(r29),r7
 3857  00003f08  afa50004	sw	4(r29),r5
 3858  00003f0c  8c840000	lw	r4,(r4)
 3859  00003f10  afa40008	sw	8(r29),r4
 3860  00003f14  0c008a74	jal	_printf
 3861  00003f18  54000000	nop; not filled.
 3862  00003f1c  23bd0010	addi	r29,r29,#16
 3863  00003f20          	L128_LF4:
 3864  00003f20  3c020000	lhi	r2,((_nfreepages_LF4)>>16)&0xffff
 3865  00003f24  2442f5c8	addui	r2,r2,(_nfreepages_LF4)&0xffff
 3866  00003f28  8c410000	lw	r1,(r2)
 3867  00003f2c  20210001	addi	r1,r1,#1
 3868  00003f30  ac410000	sw	(r2),r1
 3869  00003f34  23bdfff8	addi	r29,r29,#-8
 3870  00003f38  3c030001	lhi	r3,((_debugstr)>>16)&0xffff
 3871  00003f3c  24631f50	addui	r3,r3,(_debugstr)&0xffff
 3872  00003f40  afa30000	sw	(r29),r3
 3873  00003f44  2007006d	addi	r7,r0,#109
 3874  00003f48  afa70004	sw	4(r29),r7
 3875  00003f4c  0c000ae8	jal	_dindex
 3876  00003f50  54000000	nop; not filled.
 3877  00003f54  23bd0008	addi	r29,r29,#8
 3878  00003f58  64210000	snei	r1,r1,#0
 3879  00003f5c  1420002c	bnez	r1,L135_LF4
 3880  00003f60  54000000	nop; not filled.
 3881  00003f64  23bdfff8	addi	r29,r29,#-8
 3882  00003f68  afa30000	sw	(r29),r3
 3883  00003f6c  2007002b	addi	r7,r0,#43
 3884  00003f70  afa70004	sw	4(r29),r7
 3885  00003f74  0c000ac0	jal	_dindex
 3886  00003f78  54000000	nop; not filled.
 3887  00003f7c  23bd0008	addi	r29,r29,#8
 3888  00003f80  64210000	snei	r1,r1,#0
 3889  00003f84  1020002c	beqz	r1,L134_LF4
 3890  00003f88  54000000	nop; not filled.
 3891  00003f8c          	L135_LF4:
 3892  00003f8c  23bdfff0	addi	r29,r29,#-16
 3893  00003f90  3c070000	lhi	r7,((LC7_LF4)>>16)&0xffff
 3894  00003f94  24e7f564	addui	r7,r7,(LC7_LF4)&0xffff
 3895  00003f98  afa70000	sw	(r29),r7
 3896  00003f9c  afa60004	sw	4(r29),r6
 3897  00003fa0  8c420000	lw	r2,(r2)
 3898  00003fa4  afa20008	sw	8(r29),r2
 3899  00003fa8  0c0089e0	jal	_printf
 3900  00003fac  54000000	nop; not filled.
 3901  00003fb0  23bd0010	addi	r29,r29,#16
 3902  00003fb4          	L134_LF4:
 3903  00003fb4  8fa20000	lw	r2,0(r29)
 3904  00003fb8  8fa30004	lw	r3,4(r29)
 3905  00003fbc  8fa40008	lw	r4,8(r29)
 3906  00003fc0  8fa5000c	lw	r5,12(r29)
 3907  00003fc4  8fa60010	lw	r6,16(r29)
 3908  00003fc8  8fa70014	lw	r7,20(r29)
 3909  00003fcc  8fdffff8	lw	r31,-8(r30)
 3910  00003fd0  001ee820	add	r29,r0,r30
 3911  00003fd4  8fdefffc	lw	r30,-4(r30)
 3912  00003fd8  4be00000	jr	r31
 3913  00003fdc  54000000	nop
 3914  00003fe0          	.endproc _MemoryFreePage
 3915  00003fe0          	.align 2
 3916  00003fe0          	.proc _MemoryTranslateUserToSystem
 3917  00003fe0          	.global _MemoryTranslateUserToSystem
 3918  00003fe0          	_MemoryTranslateUserToSystem:
 3919                      ;  Function 'MemoryTranslateUserToSystem'; 0 bytes of locals, 3 regs to save.
 3920  00003fe0  afbefffc	sw	-4(r29),r30; push fp
 3921  00003fe4  001df020	add	r30,r0,r29; fp = sp
 3922  00003fe8  afbffff8	sw	-8(r29),r31; push ret addr
 3923  00003fec  2fbd0018	subui	r29,r29,#24; alloc local storage
 3924  00003ff0  afa20000	sw	0(r29),r2
 3925  00003ff4  afa30004	sw	4(r29),r3
 3926  00003ff8  afa40008	sw	8(r29),r4
 3927  00003ffc  8fc30000	lw	r3,(r30)
 3928  00004000  8fc10004	lw	r1,4(r30)
 3929  00004004  583f0010	srli	r31,r1,#0x10
 3930  00004008  3022ffff	andi	r2,r1,#0xffff
 3931  0000400c  8c6100a0	lw	r1,160(r3)
 3932  00004010  03e1082b	sgt	r1,r31,r1
 3933  00004014  14200024	bnez	r1,L139_LF4
 3934  00004018  54000000	nop; not filled.
 3935  0000401c  53e10002	slli	r1,r31,#0x2
 3936  00004020  00230820	add	r1,r1,r3
 3937  00004024  8c210060	lw	r1,96(r1)
 3938  00004028  2004fff8	addi	r4,r0,#-8
 3939  0000402c  00240824	and	r1,r1,r4
 3940  00004030  00220820	add	r1,r1,r2
 3941  00004034  08000008	j	L140_LF4
 3942  00004038  54000000	nop; not filled.
 3943  0000403c          	L139_LF4:
 3944  0000403c  20010000	addi	r1,r0,#0
 3945  00004040          	L140_LF4:
 3946  00004040  8fa20000	lw	r2,0(r29)
 3947  00004044  8fa30004	lw	r3,4(r29)
 3948  00004048  8fa40008	lw	r4,8(r29)
 3949  0000404c  8fdffff8	lw	r31,-8(r30)
 3950  00004050  001ee820	add	r29,r0,r30
 3951  00004054  8fdefffc	lw	r30,-4(r30)
 3952  00004058  4be00000	jr	r31
 3953  0000405c  54000000	nop
 3954  00004060          	.endproc _MemoryTranslateUserToSystem
 3955  00004060          	.align 2
 3956  00004060          	.proc _MemoryCopySystemToUser
 3957  00004060          	.global _MemoryCopySystemToUser
 3958  00004060          	_MemoryCopySystemToUser:
 3959                      ;  Function 'MemoryCopySystemToUser'; 0 bytes of locals, 8 regs to save.
 3960  00004060  afbefffc	sw	-4(r29),r30; push fp
 3961  00004064  001df020	add	r30,r0,r29; fp = sp
 3962  00004068  afbffff8	sw	-8(r29),r31; push ret addr
 3963  0000406c  2fbd0028	subui	r29,r29,#40; alloc local storage
 3964  00004070  afa20000	sw	0(r29),r2
 3965  00004074  afa30004	sw	4(r29),r3
 3966  00004078  afa40008	sw	8(r29),r4
 3967  0000407c  afa5000c	sw	12(r29),r5
 3968  00004080  afa60010	sw	16(r29),r6
 3969  00004084  afa70014	sw	20(r29),r7
 3970  00004088  afa80018	sw	24(r29),r8
 3971  0000408c  afa9001c	sw	28(r29),r9
 3972  00004090  8fc70000	lw	r7,(r30)
 3973  00004094  8fc50004	lw	r5,4(r30)
 3974  00004098  8fc40008	lw	r4,8(r30)
 3975  0000409c  8fc3000c	lw	r3,12(r30)
 3976  000040a0  20060000	addi	r6,r0,#0
 3977  000040a4  6c610000	sgti	r1,r3,#0
 3978  000040a8  102000a4	beqz	r1,L167_LF4
 3979  000040ac  54000000	nop; not filled.
 3980  000040b0  3c080001	lhi	r8,#1
 3981  000040b4  25080000	addui	r8,r8,#0
 3982  000040b8          	L168_LF4:
 3983  000040b8  58820010	srli	r2,r4,#0x10
 3984  000040bc  309fffff	andi	r31,r4,#0xffff
 3985  000040c0  8ce100a0	lw	r1,160(r7)
 3986  000040c4  0041082b	sgt	r1,r2,r1
 3987  000040c8  10200010	beqz	r1,L170_LF4
 3988  000040cc  54000000	nop; not filled.
 3989  000040d0  201f0000	addi	r31,r0,#0
 3990  000040d4  0800001c	j	L169_LF4
 3991  000040d8  54000000	nop; not filled.
 3992  000040dc          	L170_LF4:
 3993  000040dc  50410002	slli	r1,r2,#0x2
 3994  000040e0  00270820	add	r1,r1,r7
 3995  000040e4  8c210060	lw	r1,96(r1)
 3996  000040e8  2009fff8	addi	r9,r0,#-8
 3997  000040ec  00290824	and	r1,r1,r9
 3998  000040f0  003ff820	add	r31,r1,r31
 3999  000040f4          	L169_LF4:
 4000  000040f4  67e10000	snei	r1,r31,#0
 4001  000040f8  10200054	beqz	r1,L167_LF4
 4002  000040fc  54000000	nop; not filled.
 4003  00004100  33e1ffff	andi	r1,r31,#65535
 4004  00004104  01011022	sub	r2,r8,r1
 4005  00004108  0043082b	sgt	r1,r2,r3
 4006  0000410c  10200008	beqz	r1,L172_LF4
 4007  00004110  54000000	nop; not filled.
 4008  00004114  00031020	add	r2,r0,r3
 4009  00004118          	L172_LF4:
 4010  00004118  23bdfff0	addi	r29,r29,#-16
 4011  0000411c  afa50000	sw	(r29),r5
 4012  00004120  afbf0004	sw	4(r29),r31
 4013  00004124  afa20008	sw	8(r29),r2
 4014  00004128  0c000c9c	jal	_bcopy
 4015  0000412c  54000000	nop; not filled.
 4016  00004130  23bd0010	addi	r29,r29,#16
 4017  00004134  00621822	sub	r3,r3,r2
 4018  00004138  00c23020	add	r6,r6,r2
 4019  0000413c  00a22820	add	r5,r5,r2
 4020  00004140  00822020	add	r4,r4,r2
 4021  00004144  6c610000	sgti	r1,r3,#0
 4022  00004148  1420ff6c	bnez	r1,L168_LF4
 4023  0000414c  54000000	nop; not filled.
 4024  00004150          	L167_LF4:
 4025  00004150  00060820	add	r1,r0,r6
 4026  00004154  8fa20000	lw	r2,0(r29)
 4027  00004158  8fa30004	lw	r3,4(r29)
 4028  0000415c  8fa40008	lw	r4,8(r29)
 4029  00004160  8fa5000c	lw	r5,12(r29)
 4030  00004164  8fa60010	lw	r6,16(r29)
 4031  00004168  8fa70014	lw	r7,20(r29)
 4032  0000416c  8fa80018	lw	r8,24(r29)
 4033  00004170  8fa9001c	lw	r9,28(r29)
 4034  00004174  8fdffff8	lw	r31,-8(r30)
 4035  00004178  001ee820	add	r29,r0,r30
 4036  0000417c  8fdefffc	lw	r30,-4(r30)
 4037  00004180  4be00000	jr	r31
 4038  00004184  54000000	nop
 4039  00004188          	.endproc _MemoryCopySystemToUser
 4040  00004188          	.align 2
 4041  00004188          	.proc _MemoryCopyUserToSystem
 4042  00004188          	.global _MemoryCopyUserToSystem
 4043  00004188          	_MemoryCopyUserToSystem:
 4044                      ;  Function 'MemoryCopyUserToSystem'; 0 bytes of locals, 8 regs to save.
 4045  00004188  afbefffc	sw	-4(r29),r30; push fp
 4046  0000418c  001df020	add	r30,r0,r29; fp = sp
 4047  00004190  afbffff8	sw	-8(r29),r31; push ret addr
 4048  00004194  2fbd0028	subui	r29,r29,#40; alloc local storage
 4049  00004198  afa20000	sw	0(r29),r2
 4050  0000419c  afa30004	sw	4(r29),r3
 4051  000041a0  afa40008	sw	8(r29),r4
 4052  000041a4  afa5000c	sw	12(r29),r5
 4053  000041a8  afa60010	sw	16(r29),r6
 4054  000041ac  afa70014	sw	20(r29),r7
 4055  000041b0  afa80018	sw	24(r29),r8
 4056  000041b4  afa9001c	sw	28(r29),r9
 4057  000041b8  8fc70000	lw	r7,(r30)
 4058  000041bc  8fc50008	lw	r5,8(r30)
 4059  000041c0  8fc40004	lw	r4,4(r30)
 4060  000041c4  8fc3000c	lw	r3,12(r30)
 4061  000041c8  20060000	addi	r6,r0,#0
 4062  000041cc  6c610000	sgti	r1,r3,#0
 4063  000041d0  102000a4	beqz	r1,L191_LF4
 4064  000041d4  54000000	nop; not filled.
 4065  000041d8  3c080001	lhi	r8,#1
 4066  000041dc  25080000	addui	r8,r8,#0
 4067  000041e0          	L192_LF4:
 4068  000041e0  58820010	srli	r2,r4,#0x10
 4069  000041e4  309fffff	andi	r31,r4,#0xffff
 4070  000041e8  8ce100a0	lw	r1,160(r7)
 4071  000041ec  0041082b	sgt	r1,r2,r1
 4072  000041f0  10200010	beqz	r1,L194_LF4
 4073  000041f4  54000000	nop; not filled.
 4074  000041f8  201f0000	addi	r31,r0,#0
 4075  000041fc  0800001c	j	L193_LF4
 4076  00004200  54000000	nop; not filled.
 4077  00004204          	L194_LF4:
 4078  00004204  50410002	slli	r1,r2,#0x2
 4079  00004208  00270820	add	r1,r1,r7
 4080  0000420c  8c210060	lw	r1,96(r1)
 4081  00004210  2009fff8	addi	r9,r0,#-8
 4082  00004214  00290824	and	r1,r1,r9
 4083  00004218  003ff820	add	r31,r1,r31
 4084  0000421c          	L193_LF4:
 4085  0000421c  67e10000	snei	r1,r31,#0
 4086  00004220  10200054	beqz	r1,L191_LF4
 4087  00004224  54000000	nop; not filled.
 4088  00004228  33e1ffff	andi	r1,r31,#65535
 4089  0000422c  01011022	sub	r2,r8,r1
 4090  00004230  0043082b	sgt	r1,r2,r3
 4091  00004234  10200008	beqz	r1,L197_LF4
 4092  00004238  54000000	nop; not filled.
 4093  0000423c  00031020	add	r2,r0,r3
 4094  00004240          	L197_LF4:
 4095  00004240  23bdfff0	addi	r29,r29,#-16
 4096  00004244  afbf0000	sw	(r29),r31
 4097  00004248  afa50004	sw	4(r29),r5
 4098  0000424c  afa20008	sw	8(r29),r2
 4099  00004250  0c000b74	jal	_bcopy
 4100  00004254  54000000	nop; not filled.
 4101  00004258  23bd0010	addi	r29,r29,#16
 4102  0000425c  00621822	sub	r3,r3,r2
 4103  00004260  00c23020	add	r6,r6,r2
 4104  00004264  00a22820	add	r5,r5,r2
 4105  00004268  00822020	add	r4,r4,r2
 4106  0000426c  6c610000	sgti	r1,r3,#0
 4107  00004270  1420ff6c	bnez	r1,L192_LF4
 4108  00004274  54000000	nop; not filled.
 4109  00004278          	L191_LF4:
 4110  00004278  00060820	add	r1,r0,r6
 4111  0000427c  8fa20000	lw	r2,0(r29)
 4112  00004280  8fa30004	lw	r3,4(r29)
 4113  00004284  8fa40008	lw	r4,8(r29)
 4114  00004288  8fa5000c	lw	r5,12(r29)
 4115  0000428c  8fa60010	lw	r6,16(r29)
 4116  00004290  8fa70014	lw	r7,20(r29)
 4117  00004294  8fa80018	lw	r8,24(r29)
 4118  00004298  8fa9001c	lw	r9,28(r29)
 4119  0000429c  8fdffff8	lw	r31,-8(r30)
 4120  000042a0  001ee820	add	r29,r0,r30
 4121  000042a4  8fdefffc	lw	r30,-4(r30)
 4122  000042a8  4be00000	jr	r31
 4123  000042ac  54000000	nop
 4124  000042b0          	.endproc _MemoryCopyUserToSystem
 4125  000042b0          	.align 2
 4126  000042b0          	.proc _MemorySetupPte
 4127  000042b0          	.global _MemorySetupPte
 4128  000042b0          	_MemorySetupPte:
 4129                      ;  Function 'MemorySetupPte'; 0 bytes of locals, 0 regs to save.
 4130  000042b0  afbefffc	sw	-4(r29),r30; push fp
 4131  000042b4  001df020	add	r30,r0,r29; fp = sp
 4132  000042b8  afbffff8	sw	-8(r29),r31; push ret addr
 4133  000042bc  2fbd0008	subui	r29,r29,#8; alloc local storage
 4134  000042c0  8fc10000	lw	r1,(r30)
 4135  000042c4  50210010	slli	r1,r1,#0x10
 4136  000042c8  34210001	ori	r1,r1,#1
 4137  000042cc  8fdffff8	lw	r31,-8(r30)
 4138  000042d0  001ee820	add	r29,r0,r30
 4139  000042d4  8fdefffc	lw	r30,-4(r30)
 4140  000042d8  4be00000	jr	r31
 4141  000042dc  54000000	nop
 4142  000042e0          	.endproc _MemorySetupPte
 4143  000042e0          	.align 2
 4144  000042e0          	.proc _MemoryFreePte
 4145  000042e0          	.global _MemoryFreePte
 4146  000042e0          	_MemoryFreePte:
 4147                      ;  Function 'MemoryFreePte'; 0 bytes of locals, 0 regs to save.
 4148  000042e0  afbefffc	sw	-4(r29),r30; push fp
 4149  000042e4  001df020	add	r30,r0,r29; fp = sp
 4150  000042e8  afbffff8	sw	-8(r29),r31; push ret addr
 4151  000042ec  2fbd0008	subui	r29,r29,#8; alloc local storage
 4152  000042f0  23bdfff8	addi	r29,r29,#-8
 4153  000042f4  97c10000	lhu	r1,(r30)
 4154  000042f8  afa10000	sw	(r29),r1
 4155  000042fc  0ffffb14	jal	_MemoryFreePage
 4156  00004300  54000000	nop; not filled.
 4157  00004304  23bd0008	addi	r29,r29,#8
 4158  00004308  8fdffff8	lw	r31,-8(r30)
 4159  0000430c  001ee820	add	r29,r0,r30
 4160  00004310  8fdefffc	lw	r30,-4(r30)
 4161  00004314  4be00000	jr	r31
 4162  00004318  54000000	nop
 4163  0000431c          	.endproc _MemoryFreePte
 4164  0000431c          	.align 2
 4165  0000431c          	.proc _MemoryPteToPage
 4166  0000431c          	.global _MemoryPteToPage
 4167  0000431c          	_MemoryPteToPage:
 4168                      ;  Function 'MemoryPteToPage'; 0 bytes of locals, 0 regs to save.
 4169  0000431c  afbefffc	sw	-4(r29),r30; push fp
 4170  00004320  001df020	add	r30,r0,r29; fp = sp
 4171  00004324  afbffff8	sw	-8(r29),r31; push ret addr
 4172  00004328  2fbd0008	subui	r29,r29,#8; alloc local storage
 4173  0000432c  8fc10000	lw	r1,(r30)
 4174  00004330  201ffff8	addi	r31,r0,#-8
 4175  00004334  003f0824	and	r1,r1,r31
 4176  00004338  8fdffff8	lw	r31,-8(r30)
 4177  0000433c  001ee820	add	r29,r0,r30
 4178  00004340  8fdefffc	lw	r30,-4(r30)
 4179  00004344  4be00000	jr	r31
 4180  00004348  54000000	nop
 4181  0000434c          	.endproc _MemoryPteToPage
 4182  0000434c          	.data
 4183  0000f584          	.align 2
 4184  0000f584          	_invalidOps61_LF4:
 4185  0000f584  00003404	.word 13316
 4186  0000f588          	.align 2
 4187  0000f588          	LC8_LF4:
 4188  0000f588  4f706572	.ascii "Operand for instruction %08x is 0x%x (reg=<%d,0x%x>)\n\000"
 4188  0000f58c  616e6420	
 4188  0000f590  666f7220	
 4188  0000f594  696e7374	
 4188  0000f598  72756374	
 4188  0000f59c  696f6e20	
 4188  0000f5a0  25303878	
 4188  0000f5a4  20697320	
 4188  0000f5a8  30782578	
 4188  0000f5ac  20287265	
 4188  0000f5b0  673d3c25	
 4188  0000f5b4  642c3078	
 4188  0000f5b8  25783e29	
 4188  0000f5bc  0a00    	
 4189  0000f5be          	.text
 4190  0000434c          	.align 2
 4191  0000434c          	.proc _MemoryGetOperandAddress
 4192  0000434c          	.global _MemoryGetOperandAddress
 4193  0000434c          	_MemoryGetOperandAddress:
 4194                      ;  Function 'MemoryGetOperandAddress'; 0 bytes of locals, 6 regs to save.
 4195  0000434c  afbefffc	sw	-4(r29),r30; push fp
 4196  00004350  001df020	add	r30,r0,r29; fp = sp
 4197  00004354  afbffff8	sw	-8(r29),r31; push ret addr
 4198  00004358  2fbd0020	subui	r29,r29,#32; alloc local storage
 4199  0000435c  afa20000	sw	0(r29),r2
 4200  00004360  afa30004	sw	4(r29),r3
 4201  00004364  afa40008	sw	8(r29),r4
 4202  00004368  afa5000c	sw	12(r29),r5
 4203  0000436c  afa60010	sw	16(r29),r6
 4204  00004370  afa70014	sw	20(r29),r7
 4205  00004374  8fc20000	lw	r2,(r30)
 4206  00004378  8fc50004	lw	r5,4(r30)
 4207  0000437c  58a1001a	srli	r1,r5,#0x1a
 4208  00004380  203fffe0	addi	r31,r1,#-32
 4209  00004384  6fe1000f	sgtui	r1,r31,#15
 4210  00004388  14200020	bnez	r1,L214_LF4
 4211  0000438c  54000000	nop; not filled.
 4212  00004390  3c010000	lhi	r1,((_invalidOps61_LF4)>>16)&0xffff
 4213  00004394  2421f584	addui	r1,r1,(_invalidOps61_LF4)&0xffff
 4214  00004398  8c210000	lw	r1,(r1)
 4215  0000439c  003f0806	srl	r1,r1,r31
 4216  000043a0  30210001	andi	r1,r1,#1
 4217  000043a4  10200010	beqz	r1,L213_LF4
 4218  000043a8  54000000	nop; not filled.
 4219  000043ac          	L214_LF4:
 4220  000043ac  2001ffff	addi	r1,r0,#-1
 4221  000043b0  080000c4	j	L218_LF4
 4222  000043b4  54000000	nop; not filled.
 4223  000043b8          	L213_LF4:
 4224  000043b8  58a10015	srli	r1,r5,#0x15
 4225  000043bc  3026001f	andi	r6,r1,#31
 4226  000043c0  30bfffff	andi	r31,r5,#0xffff
 4227  000043c4  5be1000f	srli	r1,r31,#0xf
 4228  000043c8  10200010	beqz	r1,L215_LF4
 4229  000043cc  54000000	nop; not filled.
 4230  000043d0  3c07ffff	lhi	r7,#-1
 4231  000043d4  24e70000	addui	r7,r7,#0
 4232  000043d8  03e7f825	or	r31,r31,r7
 4233  000043dc          	L215_LF4:
 4234  000043dc  8c420000	lw	r2,(r2)
 4235  000043e0  50c10002	slli	r1,r6,#0x2
 4236  000043e4  00220820	add	r1,r1,r2
 4237  000043e8  8c230028	lw	r3,40(r1)
 4238  000043ec  007f2020	add	r4,r3,r31
 4239  000043f0  23bdfff8	addi	r29,r29,#-8
 4240  000043f4  3c020001	lhi	r2,((_debugstr)>>16)&0xffff
 4241  000043f8  24421f50	addui	r2,r2,(_debugstr)&0xffff
 4242  000043fc  afa20000	sw	(r29),r2
 4243  00004400  2007006d	addi	r7,r0,#109
 4244  00004404  afa70004	sw	4(r29),r7
 4245  00004408  0c00062c	jal	_dindex
 4246  0000440c  54000000	nop; not filled.
 4247  00004410  23bd0008	addi	r29,r29,#8
 4248  00004414  64210000	snei	r1,r1,#0
 4249  00004418  1420002c	bnez	r1,L217_LF4
 4250  0000441c  54000000	nop; not filled.
 4251  00004420  23bdfff8	addi	r29,r29,#-8
 4252  00004424  afa20000	sw	(r29),r2
 4253  00004428  2007002b	addi	r7,r0,#43
 4254  0000442c  afa70004	sw	4(r29),r7
 4255  00004430  0c000604	jal	_dindex
 4256  00004434  54000000	nop; not filled.
 4257  00004438  23bd0008	addi	r29,r29,#8
 4258  0000443c  64210000	snei	r1,r1,#0
 4259  00004440  10200030	beqz	r1,L216_LF4
 4260  00004444  54000000	nop; not filled.
 4261  00004448          	L217_LF4:
 4262  00004448  23bdffe8	addi	r29,r29,#-24
 4263  0000444c  3c070000	lhi	r7,((LC8_LF4)>>16)&0xffff
 4264  00004450  24e7f588	addui	r7,r7,(LC8_LF4)&0xffff
 4265  00004454  afa70000	sw	(r29),r7
 4266  00004458  afa50004	sw	4(r29),r5
 4267  0000445c  afa40008	sw	8(r29),r4
 4268  00004460  afa6000c	sw	12(r29),r6
 4269  00004464  afa30010	sw	16(r29),r3
 4270  00004468  0c008520	jal	_printf
 4271  0000446c  54000000	nop; not filled.
 4272  00004470  23bd0018	addi	r29,r29,#24
 4273  00004474          	L216_LF4:
 4274  00004474  00040820	add	r1,r0,r4
 4275  00004478          	L218_LF4:
 4276  00004478  8fa20000	lw	r2,0(r29)
 4277  0000447c  8fa30004	lw	r3,4(r29)
 4278  00004480  8fa40008	lw	r4,8(r29)
 4279  00004484  8fa5000c	lw	r5,12(r29)
 4280  00004488  8fa60010	lw	r6,16(r29)
 4281  0000448c  8fa70014	lw	r7,20(r29)
 4282  00004490  8fdffff8	lw	r31,-8(r30)
 4283  00004494  001ee820	add	r29,r0,r30
 4284  00004498  8fdefffc	lw	r30,-4(r30)
 4285  0000449c  4be00000	jr	r31
 4286  000044a0  54000000	nop
 4287  000044a4          	.endproc _MemoryGetOperandAddress
 4288  000044a4          	.data
 4289  0000f5be          	.align 2
 4290  0000f5c0          	_pagestart_LF4:
 4291  0000f5c0          	.space 4
 4292  0000f5c4          	.align 2
 4293  0000f5c4          	_freemapmax_LF4:
 4294  0000f5c4          	.space 4
 4295  0000f5c8          	.align 2
 4296  0000f5c8          	_nfreepages_LF4:
 4297  0000f5c8          	.space 4
 4298  0000f5cc          	.align 2
 4299  0000f5cc          	_freepages_LF4:
 4300  0000f5cc          	.space 8192
 4301                      ; Compiled by GCC
 4302  000115cc          	.text
 4303  000044a4          	.align 2
 4304  000044a4          	.proc _isspace
 4305  000044a4          	.global _isspace
 4306  000044a4          	_isspace:
 4307                      ;  Function 'isspace'; 0 bytes of locals, 1 regs to save.
 4308  000044a4  afbefffc	sw	-4(r29),r30; push fp
 4309  000044a8  001df020	add	r30,r0,r29; fp = sp
 4310  000044ac  afbffff8	sw	-8(r29),r31; push ret addr
 4311  000044b0  2fbd0010	subui	r29,r29,#16; alloc local storage
 4312  000044b4  afa20000	sw	0(r29),r2
 4313  000044b8  83c20003	lb	r2,3(r30)
 4314  000044bc  201f0000	addi	r31,r0,#0
 4315  000044c0  304100ff	andi	r1,r2,#0x00ff
 4316  000044c4  60210020	seqi	r1,r1,#32
 4317  000044c8  14200018	bnez	r1,L6_LF5
 4318  000044cc  54000000	nop; not filled.
 4319  000044d0  2041fff7	addi	r1,r2,#-9
 4320  000044d4  302100ff	andi	r1,r1,#0x00ff
 4321  000044d8  70210001	sleui	r1,r1,#1
 4322  000044dc  10200008	beqz	r1,L5_LF5
 4323  000044e0  54000000	nop; not filled.
 4324  000044e4          	L6_LF5:
 4325  000044e4  201f0001	addi	r31,r0,#1
 4326  000044e8          	L5_LF5:
 4327  000044e8  001f0820	add	r1,r0,r31
 4328  000044ec  8fa20000	lw	r2,0(r29)
 4329  000044f0  8fdffff8	lw	r31,-8(r30)
 4330  000044f4  001ee820	add	r29,r0,r30
 4331  000044f8  8fdefffc	lw	r30,-4(r30)
 4332  000044fc  4be00000	jr	r31
 4333  00004500  54000000	nop
 4334  00004504          	.endproc _isspace
 4335  00004504          	.align 2
 4336  00004504          	.proc _isxdigit
 4337  00004504          	.global _isxdigit
 4338  00004504          	_isxdigit:
 4339                      ;  Function 'isxdigit'; 0 bytes of locals, 1 regs to save.
 4340  00004504  afbefffc	sw	-4(r29),r30; push fp
 4341  00004508  001df020	add	r30,r0,r29; fp = sp
 4342  0000450c  afbffff8	sw	-8(r29),r31; push ret addr
 4343  00004510  2fbd0010	subui	r29,r29,#16; alloc local storage
 4344  00004514  afa20000	sw	0(r29),r2
 4345  00004518  83df0003	lb	r31,3(r30)
 4346  0000451c  20020000	addi	r2,r0,#0
 4347  00004520  23e1ffd0	addi	r1,r31,#-48
 4348  00004524  302100ff	andi	r1,r1,#0x00ff
 4349  00004528  70210009	sleui	r1,r1,#9
 4350  0000452c  14200028	bnez	r1,L12_LF5
 4351  00004530  54000000	nop; not filled.
 4352  00004534  23e1ff9f	addi	r1,r31,#-97
 4353  00004538  302100ff	andi	r1,r1,#0x00ff
 4354  0000453c  70210005	sleui	r1,r1,#5
 4355  00004540  14200014	bnez	r1,L12_LF5
 4356  00004544  54000000	nop; not filled.
 4357  00004548  33e100ff	andi	r1,r31,#0x00ff
 4358  0000454c  64210041	snei	r1,r1,#65
 4359  00004550  14200008	bnez	r1,L11_LF5
 4360  00004554  54000000	nop; not filled.
 4361  00004558          	L12_LF5:
 4362  00004558  20020001	addi	r2,r0,#1
 4363  0000455c          	L11_LF5:
 4364  0000455c  00020820	add	r1,r0,r2
 4365  00004560  8fa20000	lw	r2,0(r29)
 4366  00004564  8fdffff8	lw	r31,-8(r30)
 4367  00004568  001ee820	add	r29,r0,r30
 4368  0000456c  8fdefffc	lw	r30,-4(r30)
 4369  00004570  4be00000	jr	r31
 4370  00004574  54000000	nop
 4371  00004578          	.endproc _isxdigit
 4372  00004578          	.align 2
 4373  00004578          	.proc _dstrcpy
 4374  00004578          	.global _dstrcpy
 4375  00004578          	_dstrcpy:
 4376                      ;  Function 'dstrcpy'; 0 bytes of locals, 2 regs to save.
 4377  00004578  afbefffc	sw	-4(r29),r30; push fp
 4378  0000457c  001df020	add	r30,r0,r29; fp = sp
 4379  00004580  afbffff8	sw	-8(r29),r31; push ret addr
 4380  00004584  2fbd0010	subui	r29,r29,#16; alloc local storage
 4381  00004588  afa20000	sw	0(r29),r2
 4382  0000458c  afa30004	sw	4(r29),r3
 4383  00004590  8fdf0000	lw	r31,(r30)
 4384  00004594  8fc20004	lw	r2,4(r30)
 4385  00004598  001f1820	add	r3,r0,r31
 4386  0000459c          	L19_LF5:
 4387  0000459c  80410000	lb	r1,(r2)
 4388  000045a0  a3e10000	sb	(r31),r1
 4389  000045a4  20420001	addi	r2,r2,#1
 4390  000045a8  23ff0001	addi	r31,r31,#1
 4391  000045ac  302100ff	andi	r1,r1,#0x00ff
 4392  000045b0  64210000	snei	r1,r1,#0
 4393  000045b4  1420ffe4	bnez	r1,L19_LF5
 4394  000045b8  54000000	nop; not filled.
 4395  000045bc  00030820	add	r1,r0,r3
 4396  000045c0  8fa20000	lw	r2,0(r29)
 4397  000045c4  8fa30004	lw	r3,4(r29)
 4398  000045c8  8fdffff8	lw	r31,-8(r30)
 4399  000045cc  001ee820	add	r29,r0,r30
 4400  000045d0  8fdefffc	lw	r30,-4(r30)
 4401  000045d4  4be00000	jr	r31
 4402  000045d8  54000000	nop
 4403  000045dc          	.endproc _dstrcpy
 4404  000045dc          	.align 2
 4405  000045dc          	.proc _dstrncpy
 4406  000045dc          	.global _dstrncpy
 4407  000045dc          	_dstrncpy:
 4408                      ;  Function 'dstrncpy'; 0 bytes of locals, 3 regs to save.
 4409  000045dc  afbefffc	sw	-4(r29),r30; push fp
 4410  000045e0  001df020	add	r30,r0,r29; fp = sp
 4411  000045e4  afbffff8	sw	-8(r29),r31; push ret addr
 4412  000045e8  2fbd0018	subui	r29,r29,#24; alloc local storage
 4413  000045ec  afa20000	sw	0(r29),r2
 4414  000045f0  afa30004	sw	4(r29),r3
 4415  000045f4  afa40008	sw	8(r29),r4
 4416  000045f8  8fc20000	lw	r2,(r30)
 4417  000045fc  8fc30004	lw	r3,4(r30)
 4418  00004600  8fdf0008	lw	r31,8(r30)
 4419  00004604  00022020	add	r4,r0,r2
 4420  00004608  08000024	j	L37_LF5
 4421  0000460c  54000000	nop; not filled.
 4422  00004610          	L34_LF5:
 4423  00004610  80610000	lb	r1,(r3)
 4424  00004614  a0410000	sb	(r2),r1
 4425  00004618  20630001	addi	r3,r3,#1
 4426  0000461c  20420001	addi	r2,r2,#1
 4427  00004620  302100ff	andi	r1,r1,#0x00ff
 4428  00004624  64210000	snei	r1,r1,#0
 4429  00004628  10200018	beqz	r1,L32_LF5
 4430  0000462c  54000000	nop; not filled.
 4431  00004630          	L37_LF5:
 4432  00004630  001f0820	add	r1,r0,r31
 4433  00004634  23ffffff	addi	r31,r31,#-1
 4434  00004638  70210000	slei	r1,r1,#0
 4435  0000463c  1020ffd0	beqz	r1,L34_LF5
 4436  00004640  54000000	nop; not filled.
 4437  00004644          	L32_LF5:
 4438  00004644  00040820	add	r1,r0,r4
 4439  00004648  8fa20000	lw	r2,0(r29)
 4440  0000464c  8fa30004	lw	r3,4(r29)
 4441  00004650  8fa40008	lw	r4,8(r29)
 4442  00004654  8fdffff8	lw	r31,-8(r30)
 4443  00004658  001ee820	add	r29,r0,r30
 4444  0000465c  8fdefffc	lw	r30,-4(r30)
 4445  00004660  4be00000	jr	r31
 4446  00004664  54000000	nop
 4447  00004668          	.endproc _dstrncpy
 4448  00004668          	.align 2
 4449  00004668          	.proc _dstrcat
 4450  00004668          	.global _dstrcat
 4451  00004668          	_dstrcat:
 4452                      ;  Function 'dstrcat'; 0 bytes of locals, 2 regs to save.
 4453  00004668  afbefffc	sw	-4(r29),r30; push fp
 4454  0000466c  001df020	add	r30,r0,r29; fp = sp
 4455  00004670  afbffff8	sw	-8(r29),r31; push ret addr
 4456  00004674  2fbd0010	subui	r29,r29,#16; alloc local storage
 4457  00004678  afa20000	sw	0(r29),r2
 4458  0000467c  afa30004	sw	4(r29),r3
 4459  00004680  8fdf0000	lw	r31,(r30)
 4460  00004684  001f1820	add	r3,r0,r31
 4461  00004688  90610000	lbu	r1,(r3)
 4462  0000468c  64210000	snei	r1,r1,#0
 4463  00004690  10200018	beqz	r1,L50_LF5
 4464  00004694  54000000	nop; not filled.
 4465  00004698          	L51_LF5:
 4466  00004698  23ff0001	addi	r31,r31,#1
 4467  0000469c  93e10000	lbu	r1,(r31)
 4468  000046a0  64210000	snei	r1,r1,#0
 4469  000046a4  1420fff0	bnez	r1,L51_LF5
 4470  000046a8  54000000	nop; not filled.
 4471  000046ac          	L50_LF5:
 4472  000046ac  001f1020	add	r2,r0,r31
 4473  000046b0  8fdf0004	lw	r31,4(r30)
 4474  000046b4          	L54_LF5:
 4475  000046b4  83e10000	lb	r1,(r31)
 4476  000046b8  a0410000	sb	(r2),r1
 4477  000046bc  23ff0001	addi	r31,r31,#1
 4478  000046c0  20420001	addi	r2,r2,#1
 4479  000046c4  302100ff	andi	r1,r1,#0x00ff
 4480  000046c8  64210000	snei	r1,r1,#0
 4481  000046cc  1420ffe4	bnez	r1,L54_LF5
 4482  000046d0  54000000	nop; not filled.
 4483  000046d4  00030820	add	r1,r0,r3
 4484  000046d8  8fa20000	lw	r2,0(r29)
 4485  000046dc  8fa30004	lw	r3,4(r29)
 4486  000046e0  8fdffff8	lw	r31,-8(r30)
 4487  000046e4  001ee820	add	r29,r0,r30
 4488  000046e8  8fdefffc	lw	r30,-4(r30)
 4489  000046ec  4be00000	jr	r31
 4490  000046f0  54000000	nop
 4491  000046f4          	.endproc _dstrcat
 4492  000046f4          	.align 2
 4493  000046f4          	.proc _dstrncmp
 4494  000046f4          	.global _dstrncmp
 4495  000046f4          	_dstrncmp:
 4496                      ;  Function 'dstrncmp'; 0 bytes of locals, 4 regs to save.
 4497  000046f4  afbefffc	sw	-4(r29),r30; push fp
 4498  000046f8  001df020	add	r30,r0,r29; fp = sp
 4499  000046fc  afbffff8	sw	-8(r29),r31; push ret addr
 4500  00004700  2fbd0018	subui	r29,r29,#24; alloc local storage
 4501  00004704  afa20000	sw	0(r29),r2
 4502  00004708  afa30004	sw	4(r29),r3
 4503  0000470c  afa40008	sw	8(r29),r4
 4504  00004710  afa5000c	sw	12(r29),r5
 4505  00004714  8fc30000	lw	r3,(r30)
 4506  00004718  8fc40004	lw	r4,4(r30)
 4507  0000471c  8fc50008	lw	r5,8(r30)
 4508  00004720  20020000	addi	r2,r0,#0
 4509  00004724  0045082a	slt	r1,r2,r5
 4510  00004728  1020003c	beqz	r1,L73_LF5
 4511  0000472c  54000000	nop; not filled.
 4512  00004730          	L75_LF5:
 4513  00004730  909f0000	lbu	r31,(r4)
 4514  00004734  67e10000	snei	r1,r31,#0
 4515  00004738  10200038	beqz	r1,L86_LF5
 4516  0000473c  54000000	nop; not filled.
 4517  00004740  90610000	lbu	r1,(r3)
 4518  00004744  003f0829	sne	r1,r1,r31
 4519  00004748  1420001c	bnez	r1,L73_LF5
 4520  0000474c  54000000	nop; not filled.
 4521  00004750  20630001	addi	r3,r3,#1
 4522  00004754  20840001	addi	r4,r4,#1
 4523  00004758  20420001	addi	r2,r2,#1
 4524  0000475c  0045082a	slt	r1,r2,r5
 4525  00004760  1420ffcc	bnez	r1,L75_LF5
 4526  00004764  54000000	nop; not filled.
 4527  00004768          	L73_LF5:
 4528  00004768  00450828	seq	r1,r2,r5
 4529  0000476c  10200010	beqz	r1,L80_LF5
 4530  00004770  54000000	nop; not filled.
 4531  00004774          	L86_LF5:
 4532  00004774  20010000	addi	r1,r0,#0
 4533  00004778  08000028	j	L84_LF5
 4534  0000477c  54000000	nop; not filled.
 4535  00004780          	L80_LF5:
 4536  00004780  907f0000	lbu	r31,(r3)
 4537  00004784  90830000	lbu	r3,(r4)
 4538  00004788  03e30822	sub	r1,r31,r3
 4539  0000478c  74210000	sgei	r1,r1,#0
 4540  00004790  2002ffff	addi	r2,r0,#-1
 4541  00004794  10200008	beqz	r1,L82_LF5
 4542  00004798  54000000	nop; not filled.
 4543  0000479c  03e31029	sne	r2,r31,r3
 4544  000047a0          	L82_LF5:
 4545  000047a0  00020820	add	r1,r0,r2
 4546  000047a4          	L84_LF5:
 4547  000047a4  8fa20000	lw	r2,0(r29)
 4548  000047a8  8fa30004	lw	r3,4(r29)
 4549  000047ac  8fa40008	lw	r4,8(r29)
 4550  000047b0  8fa5000c	lw	r5,12(r29)
 4551  000047b4  8fdffff8	lw	r31,-8(r30)
 4552  000047b8  001ee820	add	r29,r0,r30
 4553  000047bc  8fdefffc	lw	r30,-4(r30)
 4554  000047c0  4be00000	jr	r31
 4555  000047c4  54000000	nop
 4556  000047c8          	.endproc _dstrncmp
 4557  000047c8          	.align 2
 4558  000047c8          	.proc _dstrlen
 4559  000047c8          	.global _dstrlen
 4560  000047c8          	_dstrlen:
 4561                      ;  Function 'dstrlen'; 0 bytes of locals, 1 regs to save.
 4562  000047c8  afbefffc	sw	-4(r29),r30; push fp
 4563  000047cc  001df020	add	r30,r0,r29; fp = sp
 4564  000047d0  afbffff8	sw	-8(r29),r31; push ret addr
 4565  000047d4  2fbd0010	subui	r29,r29,#16; alloc local storage
 4566  000047d8  afa20000	sw	0(r29),r2
 4567  000047dc  8fdf0000	lw	r31,(r30)
 4568  000047e0  20020000	addi	r2,r0,#0
 4569  000047e4  08000008	j	L97_LF5
 4570  000047e8  54000000	nop; not filled.
 4571  000047ec          	L95_LF5:
 4572  000047ec  20420001	addi	r2,r2,#1
 4573  000047f0          	L97_LF5:
 4574  000047f0  93e10000	lbu	r1,(r31)
 4575  000047f4  23ff0001	addi	r31,r31,#1
 4576  000047f8  64210000	snei	r1,r1,#0
 4577  000047fc  1420ffec	bnez	r1,L95_LF5
 4578  00004800  54000000	nop; not filled.
 4579  00004804  00020820	add	r1,r0,r2
 4580  00004808  8fa20000	lw	r2,0(r29)
 4581  0000480c  8fdffff8	lw	r31,-8(r30)
 4582  00004810  001ee820	add	r29,r0,r30
 4583  00004814  8fdefffc	lw	r30,-4(r30)
 4584  00004818  4be00000	jr	r31
 4585  0000481c  54000000	nop
 4586  00004820          	.endproc _dstrlen
 4587  00004820          	.align 2
 4588  00004820          	.proc _dstrstr
 4589  00004820          	.global _dstrstr
 4590  00004820          	_dstrstr:
 4591                      ;  Function 'dstrstr'; 0 bytes of locals, 6 regs to save.
 4592  00004820  afbefffc	sw	-4(r29),r30; push fp
 4593  00004824  001df020	add	r30,r0,r29; fp = sp
 4594  00004828  afbffff8	sw	-8(r29),r31; push ret addr
 4595  0000482c  2fbd0020	subui	r29,r29,#32; alloc local storage
 4596  00004830  afa20000	sw	0(r29),r2
 4597  00004834  afa30004	sw	4(r29),r3
 4598  00004838  afa40008	sw	8(r29),r4
 4599  0000483c  afa5000c	sw	12(r29),r5
 4600  00004840  afa60010	sw	16(r29),r6
 4601  00004844  afa70014	sw	20(r29),r7
 4602  00004848  8fc50000	lw	r5,(r30)
 4603  0000484c  8fc70004	lw	r7,4(r30)
 4604  00004850  20030000	addi	r3,r0,#0
 4605  00004854  90e10000	lbu	r1,(r7)
 4606  00004858  20e20001	addi	r2,r7,#1
 4607  0000485c  64210000	snei	r1,r1,#0
 4608  00004860  1020001c	beqz	r1,L125_LF5
 4609  00004864  54000000	nop; not filled.
 4610  00004868          	L126_LF5:
 4611  00004868  20630001	addi	r3,r3,#1
 4612  0000486c  90410000	lbu	r1,(r2)
 4613  00004870  20420001	addi	r2,r2,#1
 4614  00004874  64210000	snei	r1,r1,#0
 4615  00004878  1420ffec	bnez	r1,L126_LF5
 4616  0000487c  54000000	nop; not filled.
 4617  00004880          	L125_LF5:
 4618  00004880  00033020	add	r6,r0,r3
 4619  00004884  080000ac	j	L149_LF5
 4620  00004888  54000000	nop; not filled.
 4621  0000488c          	L130_LF5:
 4622  0000488c  00051820	add	r3,r0,r5
 4623  00004890  00072020	add	r4,r0,r7
 4624  00004894  20020000	addi	r2,r0,#0
 4625  00004898  0046082a	slt	r1,r2,r6
 4626  0000489c  1020003c	beqz	r1,L134_LF5
 4627  000048a0  54000000	nop; not filled.
 4628  000048a4          	L136_LF5:
 4629  000048a4  909f0000	lbu	r31,(r4)
 4630  000048a8  67e10000	snei	r1,r31,#0
 4631  000048ac  10200038	beqz	r1,L150_LF5
 4632  000048b0  54000000	nop; not filled.
 4633  000048b4  90610000	lbu	r1,(r3)
 4634  000048b8  003f0829	sne	r1,r1,r31
 4635  000048bc  1420001c	bnez	r1,L134_LF5
 4636  000048c0  54000000	nop; not filled.
 4637  000048c4  20630001	addi	r3,r3,#1
 4638  000048c8  20840001	addi	r4,r4,#1
 4639  000048cc  20420001	addi	r2,r2,#1
 4640  000048d0  0046082a	slt	r1,r2,r6
 4641  000048d4  1420ffcc	bnez	r1,L136_LF5
 4642  000048d8  54000000	nop; not filled.
 4643  000048dc          	L134_LF5:
 4644  000048dc  00460828	seq	r1,r2,r6
 4645  000048e0  10200010	beqz	r1,L141_LF5
 4646  000048e4  54000000	nop; not filled.
 4647  000048e8          	L150_LF5:
 4648  000048e8  20010000	addi	r1,r0,#0
 4649  000048ec  08000028	j	L132_LF5
 4650  000048f0  54000000	nop; not filled.
 4651  000048f4          	L141_LF5:
 4652  000048f4  90630000	lbu	r3,(r3)
 4653  000048f8  90820000	lbu	r2,(r4)
 4654  000048fc  00620822	sub	r1,r3,r2
 4655  00004900  74210000	sgei	r1,r1,#0
 4656  00004904  201fffff	addi	r31,r0,#-1
 4657  00004908  10200008	beqz	r1,L143_LF5
 4658  0000490c  54000000	nop; not filled.
 4659  00004910  0062f829	sne	r31,r3,r2
 4660  00004914          	L143_LF5:
 4661  00004914  001f0820	add	r1,r0,r31
 4662  00004918          	L132_LF5:
 4663  00004918  64210000	snei	r1,r1,#0
 4664  0000491c  14200010	bnez	r1,L131_LF5
 4665  00004920  54000000	nop; not filled.
 4666  00004924  00050820	add	r1,r0,r5
 4667  00004928  0800001c	j	L146_LF5
 4668  0000492c  54000000	nop; not filled.
 4669  00004930          	L131_LF5:
 4670  00004930  20a50001	addi	r5,r5,#1
 4671  00004934          	L149_LF5:
 4672  00004934  90a10000	lbu	r1,(r5)
 4673  00004938  64210000	snei	r1,r1,#0
 4674  0000493c  1420ff4c	bnez	r1,L130_LF5
 4675  00004940  54000000	nop; not filled.
 4676  00004944  20010000	addi	r1,r0,#0
 4677  00004948          	L146_LF5:
 4678  00004948  8fa20000	lw	r2,0(r29)
 4679  0000494c  8fa30004	lw	r3,4(r29)
 4680  00004950  8fa40008	lw	r4,8(r29)
 4681  00004954  8fa5000c	lw	r5,12(r29)
 4682  00004958  8fa60010	lw	r6,16(r29)
 4683  0000495c  8fa70014	lw	r7,20(r29)
 4684  00004960  8fdffff8	lw	r31,-8(r30)
 4685  00004964  001ee820	add	r29,r0,r30
 4686  00004968  8fdefffc	lw	r30,-4(r30)
 4687  0000496c  4be00000	jr	r31
 4688  00004970  54000000	nop
 4689  00004974          	.endproc _dstrstr
 4690  00004974          	.align 2
 4691  00004974          	.proc _dmindex
 4692  00004974          	.global _dmindex
 4693  00004974          	_dmindex:
 4694                      ;  Function 'dmindex'; 0 bytes of locals, 5 regs to save.
 4695  00004974  afbefffc	sw	-4(r29),r30; push fp
 4696  00004978  001df020	add	r30,r0,r29; fp = sp
 4697  0000497c  afbffff8	sw	-8(r29),r31; push ret addr
 4698  00004980  2fbd0020	subui	r29,r29,#32; alloc local storage
 4699  00004984  afa20000	sw	0(r29),r2
 4700  00004988  afa30004	sw	4(r29),r3
 4701  0000498c  afa40008	sw	8(r29),r4
 4702  00004990  afa5000c	sw	12(r29),r5
 4703  00004994  afa60010	sw	16(r29),r6
 4704  00004998  8fc40000	lw	r4,(r30)
 4705  0000499c  8fc60004	lw	r6,4(r30)
 4706  000049a0  90810000	lbu	r1,(r4)
 4707  000049a4  64210000	snei	r1,r1,#0
 4708  000049a8  10200060	beqz	r1,L164_LF5
 4709  000049ac  54000000	nop; not filled.
 4710  000049b0  00012820	add	r5,r0,r1
 4711  000049b4          	L165_LF5:
 4712  000049b4  00061020	add	r2,r0,r6
 4713  000049b8  80df0000	lb	r31,(r6)
 4714  000049bc  33e100ff	andi	r1,r31,#0x00ff
 4715  000049c0  64210000	snei	r1,r1,#0
 4716  000049c4  1020003c	beqz	r1,L163_LF5
 4717  000049c8  54000000	nop; not filled.
 4718  000049cc  90830000	lbu	r3,(r4)
 4719  000049d0          	L169_LF5:
 4720  000049d0  33e100ff	andi	r1,r31,#0x00ff
 4721  000049d4  00610828	seq	r1,r3,r1
 4722  000049d8  10200010	beqz	r1,L168_LF5
 4723  000049dc  54000000	nop; not filled.
 4724  000049e0  00040820	add	r1,r0,r4
 4725  000049e4  08000028	j	L173_LF5
 4726  000049e8  54000000	nop; not filled.
 4727  000049ec          	L168_LF5:
 4728  000049ec  20420001	addi	r2,r2,#1
 4729  000049f0  805f0000	lb	r31,(r2)
 4730  000049f4  33e100ff	andi	r1,r31,#0x00ff
 4731  000049f8  64210000	snei	r1,r1,#0
 4732  000049fc  1420ffd0	bnez	r1,L169_LF5
 4733  00004a00  54000000	nop; not filled.
 4734  00004a04          	L163_LF5:
 4735  00004a04  14a0ffac	bnez	r5,L165_LF5
 4736  00004a08  54000000	nop; not filled.
 4737  00004a0c          	L164_LF5:
 4738  00004a0c  20010000	addi	r1,r0,#0
 4739  00004a10          	L173_LF5:
 4740  00004a10  8fa20000	lw	r2,0(r29)
 4741  00004a14  8fa30004	lw	r3,4(r29)
 4742  00004a18  8fa40008	lw	r4,8(r29)
 4743  00004a1c  8fa5000c	lw	r5,12(r29)
 4744  00004a20  8fa60010	lw	r6,16(r29)
 4745  00004a24  8fdffff8	lw	r31,-8(r30)
 4746  00004a28  001ee820	add	r29,r0,r30
 4747  00004a2c  8fdefffc	lw	r30,-4(r30)
 4748  00004a30  4be00000	jr	r31
 4749  00004a34  54000000	nop
 4750  00004a38          	.endproc _dmindex
 4751  00004a38          	.align 2
 4752  00004a38          	.proc _dindex
 4753  00004a38          	.global _dindex
 4754  00004a38          	_dindex:
 4755                      ;  Function 'dindex'; 0 bytes of locals, 2 regs to save.
 4756  00004a38  afbefffc	sw	-4(r29),r30; push fp
 4757  00004a3c  001df020	add	r30,r0,r29; fp = sp
 4758  00004a40  afbffff8	sw	-8(r29),r31; push ret addr
 4759  00004a44  2fbd0010	subui	r29,r29,#16; alloc local storage
 4760  00004a48  afa20000	sw	0(r29),r2
 4761  00004a4c  afa30004	sw	4(r29),r3
 4762  00004a50  8fc20000	lw	r2,(r30)
 4763  00004a54  8fc30004	lw	r3,4(r30)
 4764  00004a58  08000024	j	L187_LF5
 4765  00004a5c  54000000	nop; not filled.
 4766  00004a60          	L183_LF5:
 4767  00004a60  33e100ff	andi	r1,r31,#0x00ff
 4768  00004a64  00230828	seq	r1,r1,r3
 4769  00004a68  10200010	beqz	r1,L184_LF5
 4770  00004a6c  54000000	nop; not filled.
 4771  00004a70  00020820	add	r1,r0,r2
 4772  00004a74  08000020	j	L186_LF5
 4773  00004a78  54000000	nop; not filled.
 4774  00004a7c          	L184_LF5:
 4775  00004a7c  20420001	addi	r2,r2,#1
 4776  00004a80          	L187_LF5:
 4777  00004a80  805f0000	lb	r31,(r2)
 4778  00004a84  33e100ff	andi	r1,r31,#0x00ff
 4779  00004a88  64210000	snei	r1,r1,#0
 4780  00004a8c  1420ffd0	bnez	r1,L183_LF5
 4781  00004a90  54000000	nop; not filled.
 4782  00004a94  20010000	addi	r1,r0,#0
 4783  00004a98          	L186_LF5:
 4784  00004a98  8fa20000	lw	r2,0(r29)
 4785  00004a9c  8fa30004	lw	r3,4(r29)
 4786  00004aa0  8fdffff8	lw	r31,-8(r30)
 4787  00004aa4  001ee820	add	r29,r0,r30
 4788  00004aa8  8fdefffc	lw	r30,-4(r30)
 4789  00004aac  4be00000	jr	r31
 4790  00004ab0  54000000	nop
 4791  00004ab4          	.endproc _dindex
 4792  00004ab4          	.align 2
 4793  00004ab4          	.proc _ditoa
 4794  00004ab4          	.global _ditoa
 4795  00004ab4          	_ditoa:
 4796                      ;  Function 'ditoa'; 0 bytes of locals, 5 regs to save.
 4797  00004ab4  afbefffc	sw	-4(r29),r30; push fp
 4798  00004ab8  001df020	add	r30,r0,r29; fp = sp
 4799  00004abc  afbffff8	sw	-8(r29),r31; push ret addr
 4800  00004ac0  2fbd0020	subui	r29,r29,#32; alloc local storage
 4801  00004ac4  afa20000	sw	0(r29),r2
 4802  00004ac8  afa30004	sw	4(r29),r3
 4803  00004acc  afa40008	sw	8(r29),r4
 4804  00004ad0  afa5000c	sw	12(r29),r5
 4805  00004ad4  afa60010	sw	16(r29),r6
 4806  00004ad8  8fc30000	lw	r3,(r30)
 4807  00004adc  8fc40004	lw	r4,4(r30)
 4808  00004ae0  68610000	slti	r1,r3,#0
 4809  00004ae4  10200010	beqz	r1,L203_LF5
 4810  00004ae8  54000000	nop; not filled.
 4811  00004aec  2006002d	addi	r6,r0,(#0x2d)&0xff
 4812  00004af0  08000014	j	L216_LF5
 4813  00004af4  54000000	nop; not filled.
 4814  00004af8          	L203_LF5:
 4815  00004af8  64610000	snei	r1,r3,#0
 4816  00004afc  14200018	bnez	r1,L205_LF5
 4817  00004b00  54000000	nop; not filled.
 4818  00004b04  20060030	addi	r6,r0,(#0x30)&0xff
 4819  00004b08          	L216_LF5:
 4820  00004b08  a0860000	sb	(r4),r6
 4821  00004b0c  20840001	addi	r4,r4,#1
 4822  00004b10  0800007c	j	L204_LF5
 4823  00004b14  54000000	nop; not filled.
 4824  00004b18          	L205_LF5:
 4825  00004b18  201f0001	addi	r31,r0,#1
 4826  00004b1c  03e3082c	sle	r1,r31,r3
 4827  00004b20  1020001c	beqz	r1,L208_LF5
 4828  00004b24  54000000	nop; not filled.
 4829  00004b28          	L209_LF5:
 4830  00004b28  53e10002	slli	r1,r31,#0x2
 4831  00004b2c  003f0820	add	r1,r1,r31
 4832  00004b30  503f0001	slli	r31,r1,#0x1
 4833  00004b34  03e3082c	sle	r1,r31,r3
 4834  00004b38  1420ffec	bnez	r1,L209_LF5
 4835  00004b3c  54000000	nop; not filled.
 4836  00004b40          	L208_LF5:
 4837  00004b40  2005000a	addi	r5,r0,#10
 4838  00004b44          	L212_LF5:
 4839  00004b44  03e00035	movi2fp	f0,r31
 4840  00004b48  00a00835	movi2fp	f1,r5
 4841  00004b4c  0401000f	div	f0,f0,f1
 4842  00004b50  0000f834	movfp2i	r31,f0
 4843  00004b54  00600035	movi2fp	f0,r3
 4844  00004b58  03e00835	movi2fp	f1,r31
 4845  00004b5c  0401000f	div	f0,f0,f1
 4846  00004b60  00001034	movfp2i	r2,f0
 4847  00004b64  20410030	addi	r1,r2,#48
 4848  00004b68  a0810000	sb	(r4),r1
 4849  00004b6c  20840001	addi	r4,r4,#1
 4850  00004b70  00400035	movi2fp	f0,r2
 4851  00004b74  03e00835	movi2fp	f1,r31
 4852  00004b78  0401000e	mult	f0,f0,f1
 4853  00004b7c  00000834	movfp2i	r1,f0
 4854  00004b80  00611822	sub	r3,r3,r1
 4855  00004b84  6fe10001	sgti	r1,r31,#1
 4856  00004b88  1420ffb8	bnez	r1,L212_LF5
 4857  00004b8c  54000000	nop; not filled.
 4858  00004b90          	L204_LF5:
 4859  00004b90  20060000	addi	r6,r0,(#0x0)&0xff
 4860  00004b94  a0860000	sb	(r4),r6
 4861  00004b98  8fa20000	lw	r2,0(r29)
 4862  00004b9c  8fa30004	lw	r3,4(r29)
 4863  00004ba0  8fa40008	lw	r4,8(r29)
 4864  00004ba4  8fa5000c	lw	r5,12(r29)
 4865  00004ba8  8fa60010	lw	r6,16(r29)
 4866  00004bac  8fdffff8	lw	r31,-8(r30)
 4867  00004bb0  001ee820	add	r29,r0,r30
 4868  00004bb4  8fdefffc	lw	r30,-4(r30)
 4869  00004bb8  4be00000	jr	r31
 4870  00004bbc  54000000	nop
 4871  00004bc0          	.endproc _ditoa
 4872  00004bc0          	.align 2
 4873  00004bc0          	.proc _dstrtol
 4874  00004bc0          	.global _dstrtol
 4875  00004bc0          	_dstrtol:
 4876                      ;  Function 'dstrtol'; 0 bytes of locals, 5 regs to save.
 4877  00004bc0  afbefffc	sw	-4(r29),r30; push fp
 4878  00004bc4  001df020	add	r30,r0,r29; fp = sp
 4879  00004bc8  afbffff8	sw	-8(r29),r31; push ret addr
 4880  00004bcc  2fbd0020	subui	r29,r29,#32; alloc local storage
 4881  00004bd0  afa20000	sw	0(r29),r2
 4882  00004bd4  afa30004	sw	4(r29),r3
 4883  00004bd8  afa40008	sw	8(r29),r4
 4884  00004bdc  afa5000c	sw	12(r29),r5
 4885  00004be0  afa60010	sw	16(r29),r6
 4886  00004be4  8fc20000	lw	r2,(r30)
 4887  00004be8  8fc50004	lw	r5,4(r30)
 4888  00004bec  8fc40008	lw	r4,8(r30)
 4889  00004bf0  20030000	addi	r3,r0,#0
 4890  00004bf4  08000008	j	L247_LF5
 4891  00004bf8  54000000	nop; not filled.
 4892  00004bfc          	L220_LF5:
 4893  00004bfc  20420001	addi	r2,r2,#1
 4894  00004c00          	L247_LF5:
 4895  00004c00  805f0000	lb	r31,(r2)
 4896  00004c04  33e100ff	andi	r1,r31,#0x00ff
 4897  00004c08  60210020	seqi	r1,r1,#32
 4898  00004c0c  1420ffec	bnez	r1,L220_LF5
 4899  00004c10  54000000	nop; not filled.
 4900  00004c14  23e1fff7	addi	r1,r31,#-9
 4901  00004c18  302100ff	andi	r1,r1,#0x00ff
 4902  00004c1c  70210001	sleui	r1,r1,#1
 4903  00004c20  1420ffd8	bnez	r1,L220_LF5
 4904  00004c24  54000000	nop; not filled.
 4905  00004c28  64a10000	snei	r1,r5,#0
 4906  00004c2c  10200008	beqz	r1,L222_LF5
 4907  00004c30  54000000	nop; not filled.
 4908  00004c34  aca20000	sw	(r5),r2
 4909  00004c38          	L222_LF5:
 4910  00004c38  905f0000	lbu	r31,(r2)
 4911  00004c3c  67e10000	snei	r1,r31,#0
 4912  00004c40  10200090	beqz	r1,L248_LF5
 4913  00004c44  54000000	nop; not filled.
 4914  00004c48  63e1002d	seqi	r1,r31,#45
 4915  00004c4c  10200014	beqz	r1,L224_LF5
 4916  00004c50  54000000	nop; not filled.
 4917  00004c54  2006ffff	addi	r6,r0,#-1
 4918  00004c58  20420001	addi	r2,r2,#1
 4919  00004c5c  08000008	j	L225_LF5
 4920  00004c60  54000000	nop; not filled.
 4921  00004c64          	L224_LF5:
 4922  00004c64  20060001	addi	r6,r0,#1
 4923  00004c68          	L225_LF5:
 4924  00004c68  64810000	snei	r1,r4,#0
 4925  00004c6c  14200054	bnez	r1,L226_LF5
 4926  00004c70  54000000	nop; not filled.
 4927  00004c74  90410000	lbu	r1,(r2)
 4928  00004c78  60210030	seqi	r1,r1,#48
 4929  00004c7c  10200040	beqz	r1,L227_LF5
 4930  00004c80  54000000	nop; not filled.
 4931  00004c84  20420001	addi	r2,r2,#1
 4932  00004c88  905f0000	lbu	r31,(r2)
 4933  00004c8c  63e10078	seqi	r1,r31,#120
 4934  00004c90  14200010	bnez	r1,L229_LF5
 4935  00004c94  54000000	nop; not filled.
 4936  00004c98  63e10058	seqi	r1,r31,#88
 4937  00004c9c  10200014	beqz	r1,L228_LF5
 4938  00004ca0  54000000	nop; not filled.
 4939  00004ca4          	L229_LF5:
 4940  00004ca4  20040010	addi	r4,r0,#16
 4941  00004ca8  20420001	addi	r2,r2,#1
 4942  00004cac  08000014	j	L226_LF5
 4943  00004cb0  54000000	nop; not filled.
 4944  00004cb4          	L228_LF5:
 4945  00004cb4  20040008	addi	r4,r0,#8
 4946  00004cb8  08000008	j	L226_LF5
 4947  00004cbc  54000000	nop; not filled.
 4948  00004cc0          	L227_LF5:
 4949  00004cc0  2004000a	addi	r4,r0,#10
 4950  00004cc4          	L226_LF5:
 4951  00004cc4  2081ffff	addi	r1,r4,#-1
 4952  00004cc8  6c21000f	sgtui	r1,r1,#15
 4953  00004ccc  10200010	beqz	r1,L233_LF5
 4954  00004cd0  54000000	nop; not filled.
 4955  00004cd4          	L248_LF5:
 4956  00004cd4  00030820	add	r1,r0,r3
 4957  00004cd8  080000c4	j	L245_LF5
 4958  00004cdc  54000000	nop; not filled.
 4959  00004ce0          	L233_LF5:
 4960  00004ce0  805f0000	lb	r31,(r2)
 4961  00004ce4  23e1ffd0	addi	r1,r31,#-48
 4962  00004ce8  302100ff	andi	r1,r1,#0x00ff
 4963  00004cec  70210009	sleui	r1,r1,#9
 4964  00004cf0  10200014	beqz	r1,L236_LF5
 4965  00004cf4  54000000	nop; not filled.
 4966  00004cf8  33e100ff	andi	r1,r31,#0x00ff
 4967  00004cfc  2021ffd0	addi	r1,r1,#-48
 4968  00004d00  08000050	j	L237_LF5
 4969  00004d04  54000000	nop; not filled.
 4970  00004d08          	L236_LF5:
 4971  00004d08  23e1ff9f	addi	r1,r31,#-97
 4972  00004d0c  302100ff	andi	r1,r1,#0x00ff
 4973  00004d10  70210019	sleui	r1,r1,#25
 4974  00004d14  10200014	beqz	r1,L238_LF5
 4975  00004d18  54000000	nop; not filled.
 4976  00004d1c  33e100ff	andi	r1,r31,#0x00ff
 4977  00004d20  2021ffa9	addi	r1,r1,#-87
 4978  00004d24  0800002c	j	L237_LF5
 4979  00004d28  54000000	nop; not filled.
 4980  00004d2c          	L238_LF5:
 4981  00004d2c  23e1ffbf	addi	r1,r31,#-65
 4982  00004d30  302100ff	andi	r1,r1,#0x00ff
 4983  00004d34  70210019	sleui	r1,r1,#25
 4984  00004d38  10200014	beqz	r1,L240_LF5
 4985  00004d3c  54000000	nop; not filled.
 4986  00004d40  33e100ff	andi	r1,r31,#0x00ff
 4987  00004d44  2021ffc9	addi	r1,r1,#-55
 4988  00004d48  08000008	j	L237_LF5
 4989  00004d4c  54000000	nop; not filled.
 4990  00004d50          	L240_LF5:
 4991  00004d50  200103e8	addi	r1,r0,#1000
 4992  00004d54          	L237_LF5:
 4993  00004d54  0024f82a	slt	r31,r1,r4
 4994  00004d58  13e00024	beqz	r31,L246_LF5
 4995  00004d5c  54000000	nop; not filled.
 4996  00004d60  00600035	movi2fp	f0,r3
 4997  00004d64  00800835	movi2fp	f1,r4
 4998  00004d68  0401000e	mult	f0,f0,f1
 4999  00004d6c  00001834	movfp2i	r3,f0
 5000  00004d70  00611820	add	r3,r3,r1
 5001  00004d74  20420001	addi	r2,r2,#1
 5002  00004d78  17e0ff64	bnez	r31,L233_LF5
 5003  00004d7c  54000000	nop; not filled.
 5004  00004d80          	L246_LF5:
 5005  00004d80  64a10000	snei	r1,r5,#0
 5006  00004d84  10200008	beqz	r1,L244_LF5
 5007  00004d88  54000000	nop; not filled.
 5008  00004d8c  aca20000	sw	(r5),r2
 5009  00004d90          	L244_LF5:
 5010  00004d90  00600035	movi2fp	f0,r3
 5011  00004d94  00c00835	movi2fp	f1,r6
 5012  00004d98  0401000e	mult	f0,f0,f1
 5013  00004d9c  00000834	movfp2i	r1,f0
 5014  00004da0          	L245_LF5:
 5015  00004da0  8fa20000	lw	r2,0(r29)
 5016  00004da4  8fa30004	lw	r3,4(r29)
 5017  00004da8  8fa40008	lw	r4,8(r29)
 5018  00004dac  8fa5000c	lw	r5,12(r29)
 5019  00004db0  8fa60010	lw	r6,16(r29)
 5020  00004db4  8fdffff8	lw	r31,-8(r30)
 5021  00004db8  001ee820	add	r29,r0,r30
 5022  00004dbc  8fdefffc	lw	r30,-4(r30)
 5023  00004dc0  4be00000	jr	r31
 5024  00004dc4  54000000	nop
 5025  00004dc8          	.endproc _dstrtol
 5026  00004dc8          	.align 2
 5027  00004dc8          	.proc _bcopy
 5028  00004dc8          	.global _bcopy
 5029  00004dc8          	_bcopy:
 5030                      ;  Function 'bcopy'; 0 bytes of locals, 3 regs to save.
 5031  00004dc8  afbefffc	sw	-4(r29),r30; push fp
 5032  00004dcc  001df020	add	r30,r0,r29; fp = sp
 5033  00004dd0  afbffff8	sw	-8(r29),r31; push ret addr
 5034  00004dd4  2fbd0018	subui	r29,r29,#24; alloc local storage
 5035  00004dd8  afa20000	sw	0(r29),r2
 5036  00004ddc  afa30004	sw	4(r29),r3
 5037  00004de0  afa40008	sw	8(r29),r4
 5038  00004de4  8fc30000	lw	r3,(r30)
 5039  00004de8  8fc20004	lw	r2,4(r30)
 5040  00004dec  8fdf0008	lw	r31,8(r30)
 5041  00004df0  08000014	j	L259_LF5
 5042  00004df4  54000000	nop; not filled.
 5043  00004df8          	L257_LF5:
 5044  00004df8  80640000	lb	r4,(r3)
 5045  00004dfc  a0440000	sb	(r2),r4
 5046  00004e00  20630001	addi	r3,r3,#1
 5047  00004e04  20420001	addi	r2,r2,#1
 5048  00004e08          	L259_LF5:
 5049  00004e08  001f0820	add	r1,r0,r31
 5050  00004e0c  23ffffff	addi	r31,r31,#-1
 5051  00004e10  6c210000	sgti	r1,r1,#0
 5052  00004e14  1420ffe0	bnez	r1,L257_LF5
 5053  00004e18  54000000	nop; not filled.
 5054  00004e1c  8fa20000	lw	r2,0(r29)
 5055  00004e20  8fa30004	lw	r3,4(r29)
 5056  00004e24  8fa40008	lw	r4,8(r29)
 5057  00004e28  8fdffff8	lw	r31,-8(r30)
 5058  00004e2c  001ee820	add	r29,r0,r30
 5059  00004e30  8fdefffc	lw	r30,-4(r30)
 5060  00004e34  4be00000	jr	r31
 5061  00004e38  54000000	nop
 5062  00004e3c          	.endproc _bcopy
 5063  00004e3c          	.align 2
 5064  00004e3c          	.proc _bzero
 5065  00004e3c          	.global _bzero
 5066  00004e3c          	_bzero:
 5067                      ;  Function 'bzero'; 0 bytes of locals, 2 regs to save.
 5068  00004e3c  afbefffc	sw	-4(r29),r30; push fp
 5069  00004e40  001df020	add	r30,r0,r29; fp = sp
 5070  00004e44  afbffff8	sw	-8(r29),r31; push ret addr
 5071  00004e48  2fbd0010	subui	r29,r29,#16; alloc local storage
 5072  00004e4c  afa20000	sw	0(r29),r2
 5073  00004e50  afa30004	sw	4(r29),r3
 5074  00004e54  8fc20000	lw	r2,(r30)
 5075  00004e58  8fdf0004	lw	r31,4(r30)
 5076  00004e5c  08000010	j	L270_LF5
 5077  00004e60  54000000	nop; not filled.
 5078  00004e64          	L268_LF5:
 5079  00004e64  20030000	addi	r3,r0,(#0x0)&0xff
 5080  00004e68  a0430000	sb	(r2),r3
 5081  00004e6c  20420001	addi	r2,r2,#1
 5082  00004e70          	L270_LF5:
 5083  00004e70  001f0820	add	r1,r0,r31
 5084  00004e74  23ffffff	addi	r31,r31,#-1
 5085  00004e78  6c210000	sgti	r1,r1,#0
 5086  00004e7c  1420ffe4	bnez	r1,L268_LF5
 5087  00004e80  54000000	nop; not filled.
 5088  00004e84  8fa20000	lw	r2,0(r29)
 5089  00004e88  8fa30004	lw	r3,4(r29)
 5090  00004e8c  8fdffff8	lw	r31,-8(r30)
 5091  00004e90  001ee820	add	r29,r0,r30
 5092  00004e94  8fdefffc	lw	r30,-4(r30)
 5093  00004e98  4be00000	jr	r31
 5094  00004e9c  54000000	nop
 5095  00004ea0          	.endproc _bzero
 5096                      ; Compiled by GCC
 5098  00004ea0          	.align 2
 5099  00004ea0          	.proc _isspace
 5100  00004ea0          	.global _isspace
 5101  00004ea0          	_isspace:
 5102                      ;  Function 'isspace'; 0 bytes of locals, 1 regs to save.
 5103  00004ea0  afbefffc	sw	-4(r29),r30; push fp
 5104  00004ea4  001df020	add	r30,r0,r29; fp = sp
 5105  00004ea8  afbffff8	sw	-8(r29),r31; push ret addr
 5106  00004eac  2fbd0010	subui	r29,r29,#16; alloc local storage
 5107  00004eb0  afa20000	sw	0(r29),r2
 5108  00004eb4  83c20003	lb	r2,3(r30)
 5109  00004eb8  201f0000	addi	r31,r0,#0
 5110  00004ebc  304100ff	andi	r1,r2,#0x00ff
 5111  00004ec0  60210020	seqi	r1,r1,#32
 5112  00004ec4  14200018	bnez	r1,L6_LF6
 5113  00004ec8  54000000	nop; not filled.
 5114  00004ecc  2041fff7	addi	r1,r2,#-9
 5115  00004ed0  302100ff	andi	r1,r1,#0x00ff
 5116  00004ed4  70210001	sleui	r1,r1,#1
 5117  00004ed8  10200008	beqz	r1,L5_LF6
 5118  00004edc  54000000	nop; not filled.
 5119  00004ee0          	L6_LF6:
 5120  00004ee0  201f0001	addi	r31,r0,#1
 5121  00004ee4          	L5_LF6:
 5122  00004ee4  001f0820	add	r1,r0,r31
 5123  00004ee8  8fa20000	lw	r2,0(r29)
 5124  00004eec  8fdffff8	lw	r31,-8(r30)
 5125  00004ef0  001ee820	add	r29,r0,r30
 5126  00004ef4  8fdefffc	lw	r30,-4(r30)
 5127  00004ef8  4be00000	jr	r31
 5128  00004efc  54000000	nop
 5129  00004f00          	.endproc _isspace
 5130  00004f00          	.align 2
 5131  00004f00          	.proc _isxdigit
 5132  00004f00          	.global _isxdigit
 5133  00004f00          	_isxdigit:
 5134                      ;  Function 'isxdigit'; 0 bytes of locals, 1 regs to save.
 5135  00004f00  afbefffc	sw	-4(r29),r30; push fp
 5136  00004f04  001df020	add	r30,r0,r29; fp = sp
 5137  00004f08  afbffff8	sw	-8(r29),r31; push ret addr
 5138  00004f0c  2fbd0010	subui	r29,r29,#16; alloc local storage
 5139  00004f10  afa20000	sw	0(r29),r2
 5140  00004f14  83df0003	lb	r31,3(r30)
 5141  00004f18  20020000	addi	r2,r0,#0
 5142  00004f1c  23e1ffd0	addi	r1,r31,#-48
 5143  00004f20  302100ff	andi	r1,r1,#0x00ff
 5144  00004f24  70210009	sleui	r1,r1,#9
 5145  00004f28  14200028	bnez	r1,L12_LF6
 5146  00004f2c  54000000	nop; not filled.
 5147  00004f30  23e1ff9f	addi	r1,r31,#-97
 5148  00004f34  302100ff	andi	r1,r1,#0x00ff
 5149  00004f38  70210005	sleui	r1,r1,#5
 5150  00004f3c  14200014	bnez	r1,L12_LF6
 5151  00004f40  54000000	nop; not filled.
 5152  00004f44  33e100ff	andi	r1,r31,#0x00ff
 5153  00004f48  64210041	snei	r1,r1,#65
 5154  00004f4c  14200008	bnez	r1,L11_LF6
 5155  00004f50  54000000	nop; not filled.
 5156  00004f54          	L12_LF6:
 5157  00004f54  20020001	addi	r2,r0,#1
 5158  00004f58          	L11_LF6:
 5159  00004f58  00020820	add	r1,r0,r2
 5160  00004f5c  8fa20000	lw	r2,0(r29)
 5161  00004f60  8fdffff8	lw	r31,-8(r30)
 5162  00004f64  001ee820	add	r29,r0,r30
 5163  00004f68  8fdefffc	lw	r30,-4(r30)
 5164  00004f6c  4be00000	jr	r31
 5165  00004f70  54000000	nop
 5166  00004f74          	.endproc _isxdigit
 5167  00004f74          	.align 2
 5168  00004f74          	.proc _DisableIntrs
 5169  00004f74          	.global _DisableIntrs
 5170  00004f74          	_DisableIntrs:
 5171                      ;  Function 'DisableIntrs'; 0 bytes of locals, 1 regs to save.
 5172  00004f74  afbefffc	sw	-4(r29),r30; push fp
 5173  00004f78  001df020	add	r30,r0,r29; fp = sp
 5174  00004f7c  afbffff8	sw	-8(r29),r31; push ret addr
 5175  00004f80  2fbd0010	subui	r29,r29,#16; alloc local storage
 5176  00004f84  afa20000	sw	0(r29),r2
 5177  00004f88  23bdfff8	addi	r29,r29,#-8
 5178  00004f8c  2002000f	addi	r2,r0,#15
 5179  00004f90  afa20000	sw	(r29),r2
 5180  00004f94  0fffc2f0	jal	_SetIntrs
 5181  00004f98  54000000	nop; not filled.
 5182  00004f9c  23bd0008	addi	r29,r29,#8
 5183  00004fa0  8fa20000	lw	r2,0(r29)
 5184  00004fa4  8fdffff8	lw	r31,-8(r30)
 5185  00004fa8  001ee820	add	r29,r0,r30
 5186  00004fac  8fdefffc	lw	r30,-4(r30)
 5187  00004fb0  4be00000	jr	r31
 5188  00004fb4  54000000	nop
 5189  00004fb8          	.endproc _DisableIntrs
 5190  00004fb8          	.align 2
 5191  00004fb8          	.proc _EnableIntrs
 5192  00004fb8          	.global _EnableIntrs
 5193  00004fb8          	_EnableIntrs:
 5194                      ;  Function 'EnableIntrs'; 0 bytes of locals, 1 regs to save.
 5195  00004fb8  afbefffc	sw	-4(r29),r30; push fp
 5196  00004fbc  001df020	add	r30,r0,r29; fp = sp
 5197  00004fc0  afbffff8	sw	-8(r29),r31; push ret addr
 5198  00004fc4  2fbd0010	subui	r29,r29,#16; alloc local storage
 5199  00004fc8  afa20000	sw	0(r29),r2
 5200  00004fcc  23bdfff8	addi	r29,r29,#-8
 5201  00004fd0  20020000	addi	r2,r0,#0
 5202  00004fd4  afa20000	sw	(r29),r2
 5203  00004fd8  0fffc2ac	jal	_SetIntrs
 5204  00004fdc  54000000	nop; not filled.
 5205  00004fe0  23bd0008	addi	r29,r29,#8
 5206  00004fe4  8fa20000	lw	r2,0(r29)
 5207  00004fe8  8fdffff8	lw	r31,-8(r30)
 5208  00004fec  001ee820	add	r29,r0,r30
 5209  00004ff0  8fdefffc	lw	r30,-4(r30)
 5210  00004ff4  4be00000	jr	r31
 5211  00004ff8  54000000	nop
 5212  00004ffc          	.endproc _EnableIntrs
 5213  00004ffc          	.align 2
 5214  00004ffc          	.proc _RestoreIntrs
 5215  00004ffc          	.global _RestoreIntrs
 5216  00004ffc          	_RestoreIntrs:
 5217                      ;  Function 'RestoreIntrs'; 0 bytes of locals, 1 regs to save.
 5218  00004ffc  afbefffc	sw	-4(r29),r30; push fp
 5219  00005000  001df020	add	r30,r0,r29; fp = sp
 5220  00005004  afbffff8	sw	-8(r29),r31; push ret addr
 5221  00005008  2fbd0010	subui	r29,r29,#16; alloc local storage
 5222  0000500c  afa20000	sw	0(r29),r2
 5223  00005010  23bdfff8	addi	r29,r29,#-8
 5224  00005014  8fc20000	lw	r2,(r30)
 5225  00005018  afa20000	sw	(r29),r2
 5226  0000501c  0fffc268	jal	_SetIntrs
 5227  00005020  54000000	nop; not filled.
 5228  00005024  23bd0008	addi	r29,r29,#8
 5229  00005028  8fa20000	lw	r2,0(r29)
 5230  0000502c  8fdffff8	lw	r31,-8(r30)
 5231  00005030  001ee820	add	r29,r0,r30
 5232  00005034  8fdefffc	lw	r30,-4(r30)
 5233  00005038  4be00000	jr	r31
 5234  0000503c  54000000	nop
 5235  00005040          	.endproc _RestoreIntrs
 5236  00005040          	.align 2
 5237  00005040          	.proc _QueueLinkInit
 5238  00005040          	.global _QueueLinkInit
 5239  00005040          	_QueueLinkInit:
 5240                      ;  Function 'QueueLinkInit'; 0 bytes of locals, 1 regs to save.
 5241  00005040  afbefffc	sw	-4(r29),r30; push fp
 5242  00005044  001df020	add	r30,r0,r29; fp = sp
 5243  00005048  afbffff8	sw	-8(r29),r31; push ret addr
 5244  0000504c  2fbd0010	subui	r29,r29,#16; alloc local storage
 5245  00005050  afa20000	sw	0(r29),r2
 5246  00005054  8fc10000	lw	r1,(r30)
 5247  00005058  8fc20004	lw	r2,4(r30)
 5248  0000505c  201f0000	addi	r31,r0,#0
 5249  00005060  ac3f0000	sw	(r1),r31
 5250  00005064  ac22000c	sw	12(r1),r2
 5251  00005068  8fa20000	lw	r2,0(r29)
 5252  0000506c  8fdffff8	lw	r31,-8(r30)
 5253  00005070  001ee820	add	r29,r0,r30
 5254  00005074  8fdefffc	lw	r30,-4(r30)
 5255  00005078  4be00000	jr	r31
 5256  0000507c  54000000	nop
 5257  00005080          	.endproc _QueueLinkInit
 5258  00005080          	.align 2
 5259  00005080          	.proc _QueueNext
 5260  00005080          	.global _QueueNext
 5261  00005080          	_QueueNext:
 5262                      ;  Function 'QueueNext'; 0 bytes of locals, 0 regs to save.
 5263  00005080  afbefffc	sw	-4(r29),r30; push fp
 5264  00005084  001df020	add	r30,r0,r29; fp = sp
 5265  00005088  afbffff8	sw	-8(r29),r31; push ret addr
 5266  0000508c  2fbd0008	subui	r29,r29,#8; alloc local storage
 5267  00005090  8fc10000	lw	r1,(r30)
 5268  00005094  8c210000	lw	r1,(r1)
 5269  00005098  8fdffff8	lw	r31,-8(r30)
 5270  0000509c  001ee820	add	r29,r0,r30
 5271  000050a0  8fdefffc	lw	r30,-4(r30)
 5272  000050a4  4be00000	jr	r31
 5273  000050a8  54000000	nop
 5274  000050ac          	.endproc _QueueNext
 5275  000050ac          	.align 2
 5276  000050ac          	.proc _QueuePrev
 5277  000050ac          	.global _QueuePrev
 5278  000050ac          	_QueuePrev:
 5279                      ;  Function 'QueuePrev'; 0 bytes of locals, 0 regs to save.
 5280  000050ac  afbefffc	sw	-4(r29),r30; push fp
 5281  000050b0  001df020	add	r30,r0,r29; fp = sp
 5282  000050b4  afbffff8	sw	-8(r29),r31; push ret addr
 5283  000050b8  2fbd0008	subui	r29,r29,#8; alloc local storage
 5284  000050bc  8fc10000	lw	r1,(r30)
 5285  000050c0  8c210004	lw	r1,4(r1)
 5286  000050c4  8fdffff8	lw	r31,-8(r30)
 5287  000050c8  001ee820	add	r29,r0,r30
 5288  000050cc  8fdefffc	lw	r30,-4(r30)
 5289  000050d0  4be00000	jr	r31
 5290  000050d4  54000000	nop
 5291  000050d8          	.endproc _QueuePrev
 5292  000050d8          	.align 2
 5293  000050d8          	.proc _QueueFirst
 5294  000050d8          	.global _QueueFirst
 5295  000050d8          	_QueueFirst:
 5296                      ;  Function 'QueueFirst'; 0 bytes of locals, 0 regs to save.
 5297  000050d8  afbefffc	sw	-4(r29),r30; push fp
 5298  000050dc  001df020	add	r30,r0,r29; fp = sp
 5299  000050e0  afbffff8	sw	-8(r29),r31; push ret addr
 5300  000050e4  2fbd0008	subui	r29,r29,#8; alloc local storage
 5301  000050e8  8fc10000	lw	r1,(r30)
 5302  000050ec  8c210000	lw	r1,(r1)
 5303  000050f0  8fdffff8	lw	r31,-8(r30)
 5304  000050f4  001ee820	add	r29,r0,r30
 5305  000050f8  8fdefffc	lw	r30,-4(r30)
 5306  000050fc  4be00000	jr	r31
 5307  00005100  54000000	nop
 5308  00005104          	.endproc _QueueFirst
 5309  00005104          	.align 2
 5310  00005104          	.proc _QueueLast
 5311  00005104          	.global _QueueLast
 5312  00005104          	_QueueLast:
 5313                      ;  Function 'QueueLast'; 0 bytes of locals, 0 regs to save.
 5314  00005104  afbefffc	sw	-4(r29),r30; push fp
 5315  00005108  001df020	add	r30,r0,r29; fp = sp
 5316  0000510c  afbffff8	sw	-8(r29),r31; push ret addr
 5317  00005110  2fbd0008	subui	r29,r29,#8; alloc local storage
 5318  00005114  8fc10000	lw	r1,(r30)
 5319  00005118  8c210004	lw	r1,4(r1)
 5320  0000511c  8fdffff8	lw	r31,-8(r30)
 5321  00005120  001ee820	add	r29,r0,r30
 5322  00005124  8fdefffc	lw	r30,-4(r30)
 5323  00005128  4be00000	jr	r31
 5324  0000512c  54000000	nop
 5325  00005130          	.endproc _QueueLast
 5326  00005130          	.align 2
 5327  00005130          	.proc _QueueInsertAfter
 5328  00005130          	.global _QueueInsertAfter
 5329  00005130          	_QueueInsertAfter:
 5330                      ;  Function 'QueueInsertAfter'; 0 bytes of locals, 2 regs to save.
 5331  00005130  afbefffc	sw	-4(r29),r30; push fp
 5332  00005134  001df020	add	r30,r0,r29; fp = sp
 5333  00005138  afbffff8	sw	-8(r29),r31; push ret addr
 5334  0000513c  2fbd0010	subui	r29,r29,#16; alloc local storage
 5335  00005140  afa20000	sw	0(r29),r2
 5336  00005144  afa30004	sw	4(r29),r3
 5337  00005148  8fc30000	lw	r3,(r30)
 5338  0000514c  8fc20004	lw	r2,4(r30)
 5339  00005150  8fc10008	lw	r1,8(r30)
 5340  00005154  ac230008	sw	8(r1),r3
 5341  00005158  ac220004	sw	4(r1),r2
 5342  0000515c  8c5f0000	lw	r31,(r2)
 5343  00005160  ac3f0000	sw	(r1),r31
 5344  00005164  ac410000	sw	(r2),r1
 5345  00005168  8c220000	lw	r2,(r1)
 5346  0000516c  ac410004	sw	4(r2),r1
 5347  00005170  8c610008	lw	r1,8(r3)
 5348  00005174  20210001	addi	r1,r1,#1
 5349  00005178  ac610008	sw	8(r3),r1
 5350  0000517c  8fa20000	lw	r2,0(r29)
 5351  00005180  8fa30004	lw	r3,4(r29)
 5352  00005184  8fdffff8	lw	r31,-8(r30)
 5353  00005188  001ee820	add	r29,r0,r30
 5354  0000518c  8fdefffc	lw	r30,-4(r30)
 5355  00005190  4be00000	jr	r31
 5356  00005194  54000000	nop
 5357  00005198          	.endproc _QueueInsertAfter
 5358  00005198          	.align 2
 5359  00005198          	.proc _QueueInsertFirst
 5360  00005198          	.global _QueueInsertFirst
 5361  00005198          	_QueueInsertFirst:
 5362                      ;  Function 'QueueInsertFirst'; 0 bytes of locals, 2 regs to save.
 5363  00005198  afbefffc	sw	-4(r29),r30; push fp
 5364  0000519c  001df020	add	r30,r0,r29; fp = sp
 5365  000051a0  afbffff8	sw	-8(r29),r31; push ret addr
 5366  000051a4  2fbd0010	subui	r29,r29,#16; alloc local storage
 5367  000051a8  afa20000	sw	0(r29),r2
 5368  000051ac  afa30004	sw	4(r29),r3
 5369  000051b0  8fc30000	lw	r3,(r30)
 5370  000051b4  8fc10004	lw	r1,4(r30)
 5371  000051b8  ac230008	sw	8(r1),r3
 5372  000051bc  ac230004	sw	4(r1),r3
 5373  000051c0  8c7f0000	lw	r31,(r3)
 5374  000051c4  ac3f0000	sw	(r1),r31
 5375  000051c8  ac610000	sw	(r3),r1
 5376  000051cc  8c220000	lw	r2,(r1)
 5377  000051d0  ac410004	sw	4(r2),r1
 5378  000051d4  8c610008	lw	r1,8(r3)
 5379  000051d8  20210001	addi	r1,r1,#1
 5380  000051dc  ac610008	sw	8(r3),r1
 5381  000051e0  8fa20000	lw	r2,0(r29)
 5382  000051e4  8fa30004	lw	r3,4(r29)
 5383  000051e8  8fdffff8	lw	r31,-8(r30)
 5384  000051ec  001ee820	add	r29,r0,r30
 5385  000051f0  8fdefffc	lw	r30,-4(r30)
 5386  000051f4  4be00000	jr	r31
 5387  000051f8  54000000	nop
 5388  000051fc          	.endproc _QueueInsertFirst
 5389  000051fc          	.align 2
 5390  000051fc          	.proc _QueueInsertLast
 5391  000051fc          	.global _QueueInsertLast
 5392  000051fc          	_QueueInsertLast:
 5393                      ;  Function 'QueueInsertLast'; 0 bytes of locals, 2 regs to save.
 5394  000051fc  afbefffc	sw	-4(r29),r30; push fp
 5395  00005200  001df020	add	r30,r0,r29; fp = sp
 5396  00005204  afbffff8	sw	-8(r29),r31; push ret addr
 5397  00005208  2fbd0010	subui	r29,r29,#16; alloc local storage
 5398  0000520c  afa20000	sw	0(r29),r2
 5399  00005210  afa30004	sw	4(r29),r3
 5400  00005214  8fc30000	lw	r3,(r30)
 5401  00005218  8fc10004	lw	r1,4(r30)
 5402  0000521c  8c620004	lw	r2,4(r3)
 5403  00005220  ac230008	sw	8(r1),r3
 5404  00005224  ac220004	sw	4(r1),r2
 5405  00005228  8c5f0000	lw	r31,(r2)
 5406  0000522c  ac3f0000	sw	(r1),r31
 5407  00005230  ac410000	sw	(r2),r1
 5408  00005234  8c220000	lw	r2,(r1)
 5409  00005238  ac410004	sw	4(r2),r1
 5410  0000523c  8c610008	lw	r1,8(r3)
 5411  00005240  20210001	addi	r1,r1,#1
 5412  00005244  ac610008	sw	8(r3),r1
 5413  00005248  8fa20000	lw	r2,0(r29)
 5414  0000524c  8fa30004	lw	r3,4(r29)
 5415  00005250  8fdffff8	lw	r31,-8(r30)
 5416  00005254  001ee820	add	r29,r0,r30
 5417  00005258  8fdefffc	lw	r30,-4(r30)
 5418  0000525c  4be00000	jr	r31
 5419  00005260  54000000	nop
 5420  00005264          	.endproc _QueueInsertLast
 5421  00005264          	.align 2
 5422  00005264          	.proc _QueueRemove
 5423  00005264          	.global _QueueRemove
 5424  00005264          	_QueueRemove:
 5425                      ;  Function 'QueueRemove'; 0 bytes of locals, 2 regs to save.
 5426  00005264  afbefffc	sw	-4(r29),r30; push fp
 5427  00005268  001df020	add	r30,r0,r29; fp = sp
 5428  0000526c  afbffff8	sw	-8(r29),r31; push ret addr
 5429  00005270  2fbd0010	subui	r29,r29,#16; alloc local storage
 5430  00005274  afa20000	sw	0(r29),r2
 5431  00005278  afa30004	sw	4(r29),r3
 5432  0000527c  8fdf0000	lw	r31,(r30)
 5433  00005280  8fe10008	lw	r1,8(r31)
 5434  00005284  8c210008	lw	r1,8(r1)
 5435  00005288  6c210000	sgti	r1,r1,#0
 5436  0000528c  1020002c	beqz	r1,L44_LF6
 5437  00005290  54000000	nop; not filled.
 5438  00005294  8fe10004	lw	r1,4(r31)
 5439  00005298  8fe30000	lw	r3,(r31)
 5440  0000529c  ac230000	sw	(r1),r3
 5441  000052a0  8fe10000	lw	r1,(r31)
 5442  000052a4  8fe30004	lw	r3,4(r31)
 5443  000052a8  ac230004	sw	4(r1),r3
 5444  000052ac  8fe20008	lw	r2,8(r31)
 5445  000052b0  8c410008	lw	r1,8(r2)
 5446  000052b4  2021ffff	addi	r1,r1,#-1
 5447  000052b8  ac410008	sw	8(r2),r1
 5448  000052bc          	L44_LF6:
 5449  000052bc  20030000	addi	r3,r0,#0
 5450  000052c0  afe30000	sw	(r31),r3
 5451  000052c4  8fa20000	lw	r2,0(r29)
 5452  000052c8  8fa30004	lw	r3,4(r29)
 5453  000052cc  8fdffff8	lw	r31,-8(r30)
 5454  000052d0  001ee820	add	r29,r0,r30
 5455  000052d4  8fdefffc	lw	r30,-4(r30)
 5456  000052d8  4be00000	jr	r31
 5457  000052dc  54000000	nop
 5458  000052e0          	.endproc _QueueRemove
 5459  000052e0          	.align 2
 5460  000052e0          	.proc _QueueLength
 5461  000052e0          	.global _QueueLength
 5462  000052e0          	_QueueLength:
 5463                      ;  Function 'QueueLength'; 0 bytes of locals, 0 regs to save.
 5464  000052e0  afbefffc	sw	-4(r29),r30; push fp
 5465  000052e4  001df020	add	r30,r0,r29; fp = sp
 5466  000052e8  afbffff8	sw	-8(r29),r31; push ret addr
 5467  000052ec  2fbd0008	subui	r29,r29,#8; alloc local storage
 5468  000052f0  8fc10000	lw	r1,(r30)
 5469  000052f4  8c210008	lw	r1,8(r1)
 5470  000052f8  8fdffff8	lw	r31,-8(r30)
 5471  000052fc  001ee820	add	r29,r0,r30
 5472  00005300  8fdefffc	lw	r30,-4(r30)
 5473  00005304  4be00000	jr	r31
 5474  00005308  54000000	nop
 5475  0000530c          	.endproc _QueueLength
 5476  0000530c          	.align 2
 5477  0000530c          	.proc _QueueEmpty
 5478  0000530c          	.global _QueueEmpty
 5479  0000530c          	_QueueEmpty:
 5480                      ;  Function 'QueueEmpty'; 0 bytes of locals, 0 regs to save.
 5481  0000530c  afbefffc	sw	-4(r29),r30; push fp
 5482  00005310  001df020	add	r30,r0,r29; fp = sp
 5483  00005314  afbffff8	sw	-8(r29),r31; push ret addr
 5484  00005318  2fbd0008	subui	r29,r29,#8; alloc local storage
 5485  0000531c  8fc10000	lw	r1,(r30)
 5486  00005320  8c210008	lw	r1,8(r1)
 5487  00005324  60210000	seqi	r1,r1,#0
 5488  00005328  8fdffff8	lw	r31,-8(r30)
 5489  0000532c  001ee820	add	r29,r0,r30
 5490  00005330  8fdefffc	lw	r30,-4(r30)
 5491  00005334  4be00000	jr	r31
 5492  00005338  54000000	nop
 5493  0000533c          	.endproc _QueueEmpty
 5494  0000533c          	.data
 5495  000115cc          	.align 2
 5496  000115cc          	_processQuantum_LF6:
 5497  000115cc  00002710	.word 10000
 5498  000115d0          	.align 2
 5499  000115d0          	LC0_LF6:
 5500  000115d0  456e7465	.ascii "Entering ProcessModuleInit\n\000"
 5500  000115d4  72696e67	
 5500  000115d8  2050726f	
 5500  000115dc  63657373	
 5500  000115e0  4d6f6475	
 5500  000115e4  6c65496e	
 5500  000115e8  69740a00	
 5501  000115ec          	.align 2
 5502  000115ec          	LC1_LF6:
 5503  000115ec  496e6974	.ascii "Initializing PCB %d @ 0x%x.\n\000"
 5503  000115f0  69616c69	
 5503  000115f4  7a696e67	
 5503  000115f8  20504342	
 5503  000115fc  20256420	
 5503  00011600  40203078	
 5503  00011604  25782e0a	
 5503  00011608  00      	
 5504  00011609          	.align 2
 5505  0001160c          	LC2_LF6:
 5506  0001160c  4c656176	.ascii "Leaving ProcessModuleInit\n\000"
 5506  00011610  696e6720	
 5506  00011614  50726f63	
 5506  00011618  6573734d	
 5506  0001161c  6f64756c	
 5506  00011620  65496e69	
 5506  00011624  740a00  	
 5507  00011627          	.text
 5508  0000533c          	.align 2
 5509  0000533c          	.proc _ProcessModuleInit
 5510  0000533c          	.global _ProcessModuleInit
 5511  0000533c          	_ProcessModuleInit:
 5512                      ;  Function 'ProcessModuleInit'; 0 bytes of locals, 7 regs to save.
 5513  0000533c  afbefffc	sw	-4(r29),r30; push fp
 5514  00005340  001df020	add	r30,r0,r29; fp = sp
 5515  00005344  afbffff8	sw	-8(r29),r31; push ret addr
 5516  00005348  2fbd0028	subui	r29,r29,#40; alloc local storage
 5517  0000534c  afa20000	sw	0(r29),r2
 5518  00005350  afa30004	sw	4(r29),r3
 5519  00005354  afa40008	sw	8(r29),r4
 5520  00005358  afa5000c	sw	12(r29),r5
 5521  0000535c  afa60010	sw	16(r29),r6
 5522  00005360  afa70014	sw	20(r29),r7
 5523  00005364  afa80018	sw	24(r29),r8
 5524  00005368  23bdfff8	addi	r29,r29,#-8
 5525  0000536c  3c020001	lhi	r2,((_debugstr)>>16)&0xffff
 5526  00005370  24421f50	addui	r2,r2,(_debugstr)&0xffff
 5527  00005374  afa20000	sw	(r29),r2
 5528  00005378  20080070	addi	r8,r0,#112
 5529  0000537c  afa80004	sw	4(r29),r8
 5530  00005380  0ffff6b4	jal	_dindex
 5531  00005384  54000000	nop; not filled.
 5532  00005388  23bd0008	addi	r29,r29,#8
 5533  0000538c  64210000	snei	r1,r1,#0
 5534  00005390  1420002c	bnez	r1,L53_LF6
 5535  00005394  54000000	nop; not filled.
 5536  00005398  23bdfff8	addi	r29,r29,#-8
 5537  0000539c  afa20000	sw	(r29),r2
 5538  000053a0  2008002b	addi	r8,r0,#43
 5539  000053a4  afa80004	sw	4(r29),r8
 5540  000053a8  0ffff68c	jal	_dindex
 5541  000053ac  54000000	nop; not filled.
 5542  000053b0  23bd0008	addi	r29,r29,#8
 5543  000053b4  64210000	snei	r1,r1,#0
 5544  000053b8  10200020	beqz	r1,L52_LF6
 5545  000053bc  54000000	nop; not filled.
 5546  000053c0          	L53_LF6:
 5547  000053c0  23bdfff8	addi	r29,r29,#-8
 5548  000053c4  3c080001	lhi	r8,((LC0_LF6)>>16)&0xffff
 5549  000053c8  250815d0	addui	r8,r8,(LC0_LF6)&0xffff
 5550  000053cc  afa80000	sw	(r29),r8
 5551  000053d0  0c0075b8	jal	_printf
 5552  000053d4  54000000	nop; not filled.
 5553  000053d8  23bd0008	addi	r29,r29,#8
 5554  000053dc          	L52_LF6:
 5555  000053dc  23bdfff8	addi	r29,r29,#-8
 5556  000053e0  3c020001	lhi	r2,((_freepcbs_LF6)>>16)&0xffff
 5557  000053e4  2442201c	addui	r2,r2,(_freepcbs_LF6)&0xffff
 5558  000053e8  afa20000	sw	(r29),r2
 5559  000053ec  0c00380c	jal	_QueueInit
 5560  000053f0  54000000	nop; not filled.
 5561  000053f4  3c080001	lhi	r8,((_runQueue_LF6)>>16)&0xffff
 5562  000053f8  25082028	addui	r8,r8,(_runQueue_LF6)&0xffff
 5563  000053fc  afa80000	sw	(r29),r8
 5564  00005400  0c0037f8	jal	_QueueInit
 5565  00005404  54000000	nop; not filled.
 5566  00005408  3c080001	lhi	r8,((_waitQueue_LF6)>>16)&0xffff
 5567  0000540c  25082034	addui	r8,r8,(_waitQueue_LF6)&0xffff
 5568  00005410  afa80000	sw	(r29),r8
 5569  00005414  0c0037e4	jal	_QueueInit
 5570  00005418  54000000	nop; not filled.
 5571  0000541c  3c080001	lhi	r8,((_zombieQueue_LF6)>>16)&0xffff
 5572  00005420  25082040	addui	r8,r8,(_zombieQueue_LF6)&0xffff
 5573  00005424  afa80000	sw	(r29),r8
 5574  00005428  0c0037d0	jal	_QueueInit
 5575  0000542c  54000000	nop; not filled.
 5576  00005430  20040000	addi	r4,r0,#0
 5577  00005434  23bd0008	addi	r29,r29,#8
 5578  00005438  3c070001	lhi	r7,((_debugstr)>>16)&0xffff
 5579  0000543c  24e71f50	addui	r7,r7,(_debugstr)&0xffff
 5580  00005440  3c010001	lhi	r1,((_pcbs_LF6)>>16)&0xffff
 5581  00005444  2421204c	addui	r1,r1,(_pcbs_LF6)&0xffff
 5582  00005448  00022820	add	r5,r0,r2
 5583  0000544c  202200a4	addi	r2,r1,#164
 5584  00005450  00011820	add	r3,r0,r1
 5585  00005454  00033020	add	r6,r0,r3
 5586  00005458          	L57_LF6:
 5587  00005458  23bdfff8	addi	r29,r29,#-8
 5588  0000545c  afa70000	sw	(r29),r7
 5589  00005460  20080070	addi	r8,r0,#112
 5590  00005464  afa80004	sw	4(r29),r8
 5591  00005468  0ffff5cc	jal	_dindex
 5592  0000546c  54000000	nop; not filled.
 5593  00005470  23bd0008	addi	r29,r29,#8
 5594  00005474  64210000	snei	r1,r1,#0
 5595  00005478  1420002c	bnez	r1,L59_LF6
 5596  0000547c  54000000	nop; not filled.
 5597  00005480  23bdfff8	addi	r29,r29,#-8
 5598  00005484  afa70000	sw	(r29),r7
 5599  00005488  2008002b	addi	r8,r0,#43
 5600  0000548c  afa80004	sw	4(r29),r8
 5601  00005490  0ffff5a4	jal	_dindex
 5602  00005494  54000000	nop; not filled.
 5603  00005498  23bd0008	addi	r29,r29,#8
 5604  0000549c  64210000	snei	r1,r1,#0
 5605  000054a0  10200028	beqz	r1,L58_LF6
 5606  000054a4  54000000	nop; not filled.
 5607  000054a8          	L59_LF6:
 5608  000054a8  23bdfff0	addi	r29,r29,#-16
 5609  000054ac  3c080001	lhi	r8,((LC1_LF6)>>16)&0xffff
 5610  000054b0  250815ec	addui	r8,r8,(LC1_LF6)&0xffff
 5611  000054b4  afa80000	sw	(r29),r8
 5612  000054b8  afa40004	sw	4(r29),r4
 5613  000054bc  afa60008	sw	8(r29),r6
 5614  000054c0  0c0074c8	jal	_printf
 5615  000054c4  54000000	nop; not filled.
 5616  000054c8  23bd0010	addi	r29,r29,#16
 5617  000054cc          	L58_LF6:
 5618  000054cc  20080001	addi	r8,r0,#1
 5619  000054d0  ac68000c	sw	12(r3),r8
 5620  000054d4  20080000	addi	r8,r0,#0
 5621  000054d8  ac480000	sw	(r2),r8
 5622  000054dc  ac43000c	sw	12(r2),r3
 5623  000054e0  ac450008	sw	8(r2),r5
 5624  000054e4  ac450004	sw	4(r2),r5
 5625  000054e8  8ca80000	lw	r8,(r5)
 5626  000054ec  ac480000	sw	(r2),r8
 5627  000054f0  aca20000	sw	(r5),r2
 5628  000054f4  8c410000	lw	r1,(r2)
 5629  000054f8  ac220004	sw	4(r1),r2
 5630  000054fc  8ca10008	lw	r1,8(r5)
 5631  00005500  20210001	addi	r1,r1,#1
 5632  00005504  aca10008	sw	8(r5),r1
 5633  00005508  204200b4	addi	r2,r2,#180
 5634  0000550c  206300b4	addi	r3,r3,#180
 5635  00005510  20c600b4	addi	r6,r6,#180
 5636  00005514  20840001	addi	r4,r4,#1
 5637  00005518  7081001f	slei	r1,r4,#31
 5638  0000551c  1420ff38	bnez	r1,L57_LF6
 5639  00005520  54000000	nop; not filled.
 5640  00005524  3c010001	lhi	r1,((_currentPCB)>>16)&0xffff
 5641  00005528  24212018	addui	r1,r1,(_currentPCB)&0xffff
 5642  0000552c  20080000	addi	r8,r0,#0
 5643  00005530  ac280000	sw	(r1),r8
 5644  00005534  23bdfff8	addi	r29,r29,#-8
 5645  00005538  3c020001	lhi	r2,((_debugstr)>>16)&0xffff
 5646  0000553c  24421f50	addui	r2,r2,(_debugstr)&0xffff
 5647  00005540  afa20000	sw	(r29),r2
 5648  00005544  20080070	addi	r8,r0,#112
 5649  00005548  afa80004	sw	4(r29),r8
 5650  0000554c  0ffff4e8	jal	_dindex
 5651  00005550  54000000	nop; not filled.
 5652  00005554  23bd0008	addi	r29,r29,#8
 5653  00005558  64210000	snei	r1,r1,#0
 5654  0000555c  1420002c	bnez	r1,L65_LF6
 5655  00005560  54000000	nop; not filled.
 5656  00005564  23bdfff8	addi	r29,r29,#-8
 5657  00005568  afa20000	sw	(r29),r2
 5658  0000556c  2008002b	addi	r8,r0,#43
 5659  00005570  afa80004	sw	4(r29),r8
 5660  00005574  0ffff4c0	jal	_dindex
 5661  00005578  54000000	nop; not filled.
 5662  0000557c  23bd0008	addi	r29,r29,#8
 5663  00005580  64210000	snei	r1,r1,#0
 5664  00005584  10200020	beqz	r1,L64_LF6
 5665  00005588  54000000	nop; not filled.
 5666  0000558c          	L65_LF6:
 5667  0000558c  23bdfff8	addi	r29,r29,#-8
 5668  00005590  3c080001	lhi	r8,((LC2_LF6)>>16)&0xffff
 5669  00005594  2508160c	addui	r8,r8,(LC2_LF6)&0xffff
 5670  00005598  afa80000	sw	(r29),r8
 5671  0000559c  0c0073ec	jal	_printf
 5672  000055a0  54000000	nop; not filled.
 5673  000055a4  23bd0008	addi	r29,r29,#8
 5674  000055a8          	L64_LF6:
 5675  000055a8  8fa20000	lw	r2,0(r29)
 5676  000055ac  8fa30004	lw	r3,4(r29)
 5677  000055b0  8fa40008	lw	r4,8(r29)
 5678  000055b4  8fa5000c	lw	r5,12(r29)
 5679  000055b8  8fa60010	lw	r6,16(r29)
 5680  000055bc  8fa70014	lw	r7,20(r29)
 5681  000055c0  8fa80018	lw	r8,24(r29)
 5682  000055c4  8fdffff8	lw	r31,-8(r30)
 5683  000055c8  001ee820	add	r29,r0,r30
 5684  000055cc  8fdefffc	lw	r30,-4(r30)
 5685  000055d0  4be00000	jr	r31
 5686  000055d4  54000000	nop
 5687  000055d8          	.endproc _ProcessModuleInit
 5688  000055d8          	.align 2
 5689  000055d8          	.proc _ProcessSetStatus
 5690  000055d8          	.global _ProcessSetStatus
 5691  000055d8          	_ProcessSetStatus:
 5692                      ;  Function 'ProcessSetStatus'; 0 bytes of locals, 2 regs to save.
 5693  000055d8  afbefffc	sw	-4(r29),r30; push fp
 5694  000055dc  001df020	add	r30,r0,r29; fp = sp
 5695  000055e0  afbffff8	sw	-8(r29),r31; push ret addr
 5696  000055e4  2fbd0010	subui	r29,r29,#16; alloc local storage
 5697  000055e8  afa20000	sw	0(r29),r2
 5698  000055ec  afa30004	sw	4(r29),r3
 5699  000055f0  8fc30000	lw	r3,(r30)
 5700  000055f4  8fc20004	lw	r2,4(r30)
 5701  000055f8  8c61000c	lw	r1,12(r3)
 5702  000055fc  201fffc0	addi	r31,r0,#-64
 5703  00005600  003f0824	and	r1,r1,r31
 5704  00005604  00220825	or	r1,r1,r2
 5705  00005608  ac61000c	sw	12(r3),r1
 5706  0000560c  8fa20000	lw	r2,0(r29)
 5707  00005610  8fa30004	lw	r3,4(r29)
 5708  00005614  8fdffff8	lw	r31,-8(r30)
 5709  00005618  001ee820	add	r29,r0,r30
 5710  0000561c  8fdefffc	lw	r30,-4(r30)
 5711  00005620  4be00000	jr	r31
 5712  00005624  54000000	nop
 5713  00005628          	.endproc _ProcessSetStatus
 5714  00005628          	.align 2
 5715  00005628          	.proc _ProcessFreeResources
 5716  00005628          	.global _ProcessFreeResources
 5717  00005628          	_ProcessFreeResources:
 5718                      ;  Function 'ProcessFreeResources'; 0 bytes of locals, 4 regs to save.
 5719  00005628  afbefffc	sw	-4(r29),r30; push fp
 5720  0000562c  001df020	add	r30,r0,r29; fp = sp
 5721  00005630  afbffff8	sw	-8(r29),r31; push ret addr
 5722  00005634  2fbd0018	subui	r29,r29,#24; alloc local storage
 5723  00005638  afa20000	sw	0(r29),r2
 5724  0000563c  afa30004	sw	4(r29),r3
 5725  00005640  afa40008	sw	8(r29),r4
 5726  00005644  afa5000c	sw	12(r29),r5
 5727  00005648  8fc40000	lw	r4,(r30)
 5728  0000564c  3c030001	lhi	r3,((_freepcbs_LF6)>>16)&0xffff
 5729  00005650  2463201c	addui	r3,r3,(_freepcbs_LF6)&0xffff
 5730  00005654  208200a4	addi	r2,r4,#164
 5731  00005658  8c610004	lw	r1,4(r3)
 5732  0000565c  ac8300ac	sw	172(r4),r3
 5733  00005660  ac8100a8	sw	168(r4),r1
 5734  00005664  8c250000	lw	r5,(r1)
 5735  00005668  ac450000	sw	(r2),r5
 5736  0000566c  ac220000	sw	(r1),r2
 5737  00005670  8c410000	lw	r1,(r2)
 5738  00005674  ac220004	sw	4(r1),r2
 5739  00005678  8c610008	lw	r1,8(r3)
 5740  0000567c  20210001	addi	r1,r1,#1
 5741  00005680  ac610008	sw	8(r3),r1
 5742  00005684  8c8300a0	lw	r3,160(r4)
 5743  00005688  20020000	addi	r2,r0,#0
 5744  0000568c  0043082a	slt	r1,r2,r3
 5745  00005690  10200030	beqz	r1,L98_LF6
 5746  00005694  54000000	nop; not filled.
 5747  00005698          	L90_LF6:
 5748  00005698  23bdfff8	addi	r29,r29,#-8
 5749  0000569c  afa40000	sw	(r29),r4
 5750  000056a0  afa20004	sw	4(r29),r2
 5751  000056a4  0fffc640	jal	_MemoryFreeSharedPte
 5752  000056a8  54000000	nop; not filled.
 5753  000056ac  23bd0008	addi	r29,r29,#8
 5754  000056b0  20420001	addi	r2,r2,#1
 5755  000056b4  0043082a	slt	r1,r2,r3
 5756  000056b8  1420ffdc	bnez	r1,L90_LF6
 5757  000056bc  54000000	nop; not filled.
 5758  000056c0  20020000	addi	r2,r0,#0
 5759  000056c4          	L98_LF6:
 5760  000056c4  8c8100a0	lw	r1,160(r4)
 5761  000056c8  0041082a	slt	r1,r2,r1
 5762  000056cc  10200038	beqz	r1,L93_LF6
 5763  000056d0  54000000	nop; not filled.
 5764  000056d4  00041820	add	r3,r0,r4
 5765  000056d8          	L95_LF6:
 5766  000056d8  23bdfff8	addi	r29,r29,#-8
 5767  000056dc  8c650060	lw	r5,96(r3)
 5768  000056e0  afa50000	sw	(r29),r5
 5769  000056e4  0fffebf8	jal	_MemoryFreePte
 5770  000056e8  54000000	nop; not filled.
 5771  000056ec  23bd0008	addi	r29,r29,#8
 5772  000056f0  20630004	addi	r3,r3,#4
 5773  000056f4  20420001	addi	r2,r2,#1
 5774  000056f8  8c8100a0	lw	r1,160(r4)
 5775  000056fc  0041082a	slt	r1,r2,r1
 5776  00005700  1420ffd4	bnez	r1,L95_LF6
 5777  00005704  54000000	nop; not filled.
 5778  00005708          	L93_LF6:
 5779  00005708  23bdfff8	addi	r29,r29,#-8
 5780  0000570c  94810008	lhu	r1,8(r4)
 5781  00005710  afa10000	sw	(r29),r1
 5782  00005714  0fffe6fc	jal	_MemoryFreePage
 5783  00005718  54000000	nop; not filled.
 5784  0000571c  23bd0008	addi	r29,r29,#8
 5785  00005720  8c81000c	lw	r1,12(r4)
 5786  00005724  2005ffc0	addi	r5,r0,#-64
 5787  00005728  00250824	and	r1,r1,r5
 5788  0000572c  34210001	ori	r1,r1,#1
 5789  00005730  ac81000c	sw	12(r4),r1
 5790  00005734  8fa20000	lw	r2,0(r29)
 5791  00005738  8fa30004	lw	r3,4(r29)
 5792  0000573c  8fa40008	lw	r4,8(r29)
 5793  00005740  8fa5000c	lw	r5,12(r29)
 5794  00005744  8fdffff8	lw	r31,-8(r30)
 5795  00005748  001ee820	add	r29,r0,r30
 5796  0000574c  8fdefffc	lw	r30,-4(r30)
 5797  00005750  4be00000	jr	r31
 5798  00005754  54000000	nop
 5799  00005758          	.endproc _ProcessFreeResources
 5800  00005758          	.align 2
 5801  00005758          	.proc _ProcessSetResult
 5802  00005758          	.global _ProcessSetResult
 5803  00005758          	_ProcessSetResult:
 5804                      ;  Function 'ProcessSetResult'; 0 bytes of locals, 0 regs to save.
 5805  00005758  afbefffc	sw	-4(r29),r30; push fp
 5806  0000575c  001df020	add	r30,r0,r29; fp = sp
 5807  00005760  afbffff8	sw	-8(r29),r31; push ret addr
 5808  00005764  2fbd0008	subui	r29,r29,#8; alloc local storage
 5809  00005768  8fc10000	lw	r1,(r30)
 5810  0000576c  8c210000	lw	r1,(r1)
 5811  00005770  8fdf0004	lw	r31,4(r30)
 5812  00005774  ac3f002c	sw	44(r1),r31
 5813  00005778  8fdffff8	lw	r31,-8(r30)
 5814  0000577c  001ee820	add	r29,r0,r30
 5815  00005780  8fdefffc	lw	r30,-4(r30)
 5816  00005784  4be00000	jr	r31
 5817  00005788  54000000	nop
 5818  0000578c          	.endproc _ProcessSetResult
 5819  0000578c          	.data
 5820  00011627          	.align 2
 5821  00011628          	LC3_LF6:
 5822  00011628  4e6f7720	.ascii "Now entering ProcessSchedule (cur=0x%x, %d ready)\n\000"
 5822  0001162c  656e7465	
 5822  00011630  72696e67	
 5822  00011634  2050726f	
 5822  00011638  63657373	
 5822  0001163c  53636865	
 5822  00011640  64756c65	
 5822  00011644  20286375	
 5822  00011648  723d3078	
 5822  0001164c  25782c20	
 5822  00011650  25642072	
 5822  00011654  65616479	
 5822  00011658  290a00  	
 5823  0001165b          	.align 2
 5824  0001165c          	LC4_LF6:
 5825  0001165c  4e6f2072	.ascii "No runnable processes - exiting!\n\000"
 5825  00011660  756e6e61	
 5825  00011664  626c6520	
 5825  00011668  70726f63	
 5825  0001166c  65737365	
 5825  00011670  73202d20	
 5825  00011674  65786974	
 5825  00011678  696e6721	
 5825  0001167c  0a00    	
 5826  0001167e          	.align 2
 5827  00011680          	LC5_LF6:
 5828  00011680  41626f75	.ascii "About to switch to PCB 0x%x,flags=0x%x @ 0x%x\n\000"
 5828  00011684  7420746f	
 5828  00011688  20737769	
 5828  0001168c  74636820	
 5828  00011690  746f2050	
 5828  00011694  43422030	
 5828  00011698  7825782c	
 5828  0001169c  666c6167	
 5828  000116a0  733d3078	
 5828  000116a4  25782040	
 5828  000116a8  20307825	
 5828  000116ac  780a00  	
 5829  000116af          	.align 2
 5830  000116b0          	LC6_LF6:
 5831  000116b0  46726565	.ascii "Freeing zombie PCB 0x%x.\n\000"
 5831  000116b4  696e6720	
 5831  000116b8  7a6f6d62	
 5831  000116bc  69652050	
 5831  000116c0  43422030	
 5831  000116c4  7825782e	
 5831  000116c8  0a00    	
 5832  000116ca          	.align 2
 5833  000116cc          	LC7_LF6:
 5834  000116cc  4c656176	.ascii "Leaving ProcessSchedule (cur=0x%x)\n\000"
 5834  000116d0  696e6720	
 5834  000116d4  50726f63	
 5834  000116d8  65737353	
 5834  000116dc  63686564	
 5834  000116e0  756c6520	
 5834  000116e4  28637572	
 5834  000116e8  3d307825	
 5834  000116ec  78290a00	
 5835  000116f0          	.text
 5836  0000578c          	.align 2
 5837  0000578c          	.proc _ProcessSchedule
 5838  0000578c          	.global _ProcessSchedule
 5839  0000578c          	_ProcessSchedule:
 5840                      ;  Function 'ProcessSchedule'; 0 bytes of locals, 7 regs to save.
 5841  0000578c  afbefffc	sw	-4(r29),r30; push fp
 5842  00005790  001df020	add	r30,r0,r29; fp = sp
 5843  00005794  afbffff8	sw	-8(r29),r31; push ret addr
 5844  00005798  2fbd0028	subui	r29,r29,#40; alloc local storage
 5845  0000579c  afa20000	sw	0(r29),r2
 5846  000057a0  afa30004	sw	4(r29),r3
 5847  000057a4  afa40008	sw	8(r29),r4
 5848  000057a8  afa5000c	sw	12(r29),r5
 5849  000057ac  afa60010	sw	16(r29),r6
 5850  000057b0  afa70014	sw	20(r29),r7
 5851  000057b4  afa80018	sw	24(r29),r8
 5852  000057b8  23bdfff8	addi	r29,r29,#-8
 5853  000057bc  3c020001	lhi	r2,((_debugstr)>>16)&0xffff
 5854  000057c0  24421f50	addui	r2,r2,(_debugstr)&0xffff
 5855  000057c4  afa20000	sw	(r29),r2
 5856  000057c8  20080070	addi	r8,r0,#112
 5857  000057cc  afa80004	sw	4(r29),r8
 5858  000057d0  0ffff264	jal	_dindex
 5859  000057d4  54000000	nop; not filled.
 5860  000057d8  23bd0008	addi	r29,r29,#8
 5861  000057dc  64210000	snei	r1,r1,#0
 5862  000057e0  1420002c	bnez	r1,L103_LF6
 5863  000057e4  54000000	nop; not filled.
 5864  000057e8  23bdfff8	addi	r29,r29,#-8
 5865  000057ec  afa20000	sw	(r29),r2
 5866  000057f0  2008002b	addi	r8,r0,#43
 5867  000057f4  afa80004	sw	4(r29),r8
 5868  000057f8  0ffff23c	jal	_dindex
 5869  000057fc  54000000	nop; not filled.
 5870  00005800  23bd0008	addi	r29,r29,#8
 5871  00005804  64210000	snei	r1,r1,#0
 5872  00005808  10200040	beqz	r1,L102_LF6
 5873  0000580c  54000000	nop; not filled.
 5874  00005810          	L103_LF6:
 5875  00005810  3c010001	lhi	r1,((_runQueue_LF6)>>16)&0xffff
 5876  00005814  24212028	addui	r1,r1,(_runQueue_LF6)&0xffff
 5877  00005818  8c220008	lw	r2,8(r1)
 5878  0000581c  23bdfff0	addi	r29,r29,#-16
 5879  00005820  3c080001	lhi	r8,((LC3_LF6)>>16)&0xffff
 5880  00005824  25081628	addui	r8,r8,(LC3_LF6)&0xffff
 5881  00005828  afa80000	sw	(r29),r8
 5882  0000582c  3c010001	lhi	r1,((_currentPCB)>>16)&0xffff
 5883  00005830  24212018	addui	r1,r1,(_currentPCB)&0xffff
 5884  00005834  8c210000	lw	r1,(r1)
 5885  00005838  afa10004	sw	4(r29),r1
 5886  0000583c  afa20008	sw	8(r29),r2
 5887  00005840  0c007148	jal	_printf
 5888  00005844  54000000	nop; not filled.
 5889  00005848  23bd0010	addi	r29,r29,#16
 5890  0000584c          	L102_LF6:
 5891  0000584c  3c050001	lhi	r5,((_runQueue_LF6)>>16)&0xffff
 5892  00005850  24a52028	addui	r5,r5,(_runQueue_LF6)&0xffff
 5893  00005854  8ca10008	lw	r1,8(r5)
 5894  00005858  60210000	seqi	r1,r1,#0
 5895  0000585c  10200028	beqz	r1,L105_LF6
 5896  00005860  54000000	nop; not filled.
 5897  00005864  23bdfff8	addi	r29,r29,#-8
 5898  00005868  3c080001	lhi	r8,((LC4_LF6)>>16)&0xffff
 5899  0000586c  2508165c	addui	r8,r8,(LC4_LF6)&0xffff
 5900  00005870  afa80000	sw	(r29),r8
 5901  00005874  0c007114	jal	_printf
 5902  00005878  54000000	nop; not filled.
 5903  0000587c  0c0070f4	jal	_exitsim
 5904  00005880  54000000	nop; not filled.
 5905  00005884  23bd0008	addi	r29,r29,#8
 5906  00005888          	L105_LF6:
 5907  00005888  8ca10000	lw	r1,(r5)
 5908  0000588c  8c24000c	lw	r4,12(r1)
 5909  00005890  208300a4	addi	r3,r4,#164
 5910  00005894  8c8100ac	lw	r1,172(r4)
 5911  00005898  8c210008	lw	r1,8(r1)
 5912  0000589c  6c210000	sgti	r1,r1,#0
 5913  000058a0  1020002c	beqz	r1,L110_LF6
 5914  000058a4  54000000	nop; not filled.
 5915  000058a8  8c8100a8	lw	r1,168(r4)
 5916  000058ac  8c680000	lw	r8,(r3)
 5917  000058b0  ac280000	sw	(r1),r8
 5918  000058b4  8c610000	lw	r1,(r3)
 5919  000058b8  8c8800a8	lw	r8,168(r4)
 5920  000058bc  ac280004	sw	4(r1),r8
 5921  000058c0  8c8200ac	lw	r2,172(r4)
 5922  000058c4  8c410008	lw	r1,8(r2)
 5923  000058c8  2021ffff	addi	r1,r1,#-1
 5924  000058cc  ac410008	sw	8(r2),r1
 5925  000058d0          	L110_LF6:
 5926  000058d0  20080000	addi	r8,r0,#0
 5927  000058d4  ac680000	sw	(r3),r8
 5928  000058d8  8ca10004	lw	r1,4(r5)
 5929  000058dc  ac8500ac	sw	172(r4),r5
 5930  000058e0  ac8100a8	sw	168(r4),r1
 5931  000058e4  8c280000	lw	r8,(r1)
 5932  000058e8  ac680000	sw	(r3),r8
 5933  000058ec  ac230000	sw	(r1),r3
 5934  000058f0  8c610000	lw	r1,(r3)
 5935  000058f4  ac230004	sw	4(r1),r3
 5936  000058f8  8ca10008	lw	r1,8(r5)
 5937  000058fc  20210001	addi	r1,r1,#1
 5938  00005900  aca10008	sw	8(r5),r1
 5939  00005904  8ca10000	lw	r1,(r5)
 5940  00005908  8c24000c	lw	r4,12(r1)
 5941  0000590c  3c010001	lhi	r1,((_currentPCB)>>16)&0xffff
 5942  00005910  24212018	addui	r1,r1,(_currentPCB)&0xffff
 5943  00005914  ac240000	sw	(r1),r4
 5944  00005918  23bdfff8	addi	r29,r29,#-8
 5945  0000591c  3c020001	lhi	r2,((_debugstr)>>16)&0xffff
 5946  00005920  24421f50	addui	r2,r2,(_debugstr)&0xffff
 5947  00005924  afa20000	sw	(r29),r2
 5948  00005928  20080070	addi	r8,r0,#112
 5949  0000592c  afa80004	sw	4(r29),r8
 5950  00005930  0ffff104	jal	_dindex
 5951  00005934  54000000	nop; not filled.
 5952  00005938  23bd0008	addi	r29,r29,#8
 5953  0000593c  64210000	snei	r1,r1,#0
 5954  00005940  1420002c	bnez	r1,L116_LF6
 5955  00005944  54000000	nop; not filled.
 5956  00005948  23bdfff8	addi	r29,r29,#-8
 5957  0000594c  afa20000	sw	(r29),r2
 5958  00005950  2008002b	addi	r8,r0,#43
 5959  00005954  afa80004	sw	4(r29),r8
 5960  00005958  0ffff0dc	jal	_dindex
 5961  0000595c  54000000	nop; not filled.
 5962  00005960  23bd0008	addi	r29,r29,#8
 5963  00005964  64210000	snei	r1,r1,#0
 5964  00005968  10200038	beqz	r1,L115_LF6
 5965  0000596c  54000000	nop; not filled.
 5966  00005970          	L116_LF6:
 5967  00005970  23bdfff0	addi	r29,r29,#-16
 5968  00005974  3c080001	lhi	r8,((LC5_LF6)>>16)&0xffff
 5969  00005978  25081680	addui	r8,r8,(LC5_LF6)&0xffff
 5970  0000597c  afa80000	sw	(r29),r8
 5971  00005980  afa40004	sw	4(r29),r4
 5972  00005984  8c88000c	lw	r8,12(r4)
 5973  00005988  afa80008	sw	8(r29),r8
 5974  0000598c  8c810004	lw	r1,4(r4)
 5975  00005990  8c210128	lw	r1,296(r1)
 5976  00005994  afa1000c	sw	12(r29),r1
 5977  00005998  0c006ff0	jal	_printf
 5978  0000599c  54000000	nop; not filled.
 5979  000059a0  23bd0010	addi	r29,r29,#16
 5980  000059a4          	L115_LF6:
 5981  000059a4  3c070001	lhi	r7,((_zombieQueue_LF6)>>16)&0xffff
 5982  000059a8  24e72040	addui	r7,r7,(_zombieQueue_LF6)&0xffff
 5983  000059ac  3c060001	lhi	r6,((_debugstr)>>16)&0xffff
 5984  000059b0  24c61f50	addui	r6,r6,(_debugstr)&0xffff
 5985  000059b4  3c050001	lhi	r5,((_freepcbs_LF6)>>16)&0xffff
 5986  000059b8  24a5201c	addui	r5,r5,(_freepcbs_LF6)&0xffff
 5987  000059bc          	L117_LF6:
 5988  000059bc  8ce10008	lw	r1,8(r7)
 5989  000059c0  60210000	seqi	r1,r1,#0
 5990  000059c4  142001a8	bnez	r1,L118_LF6
 5991  000059c8  54000000	nop; not filled.
 5992  000059cc  8ce10000	lw	r1,(r7)
 5993  000059d0  8c24000c	lw	r4,12(r1)
 5994  000059d4  23bdfff8	addi	r29,r29,#-8
 5995  000059d8  afa60000	sw	(r29),r6
 5996  000059dc  20080070	addi	r8,r0,#112
 5997  000059e0  afa80004	sw	4(r29),r8
 5998  000059e4  0ffff050	jal	_dindex
 5999  000059e8  54000000	nop; not filled.
 6000  000059ec  23bd0008	addi	r29,r29,#8
 6001  000059f0  64210000	snei	r1,r1,#0
 6002  000059f4  1420002c	bnez	r1,L124_LF6
 6003  000059f8  54000000	nop; not filled.
 6004  000059fc  23bdfff8	addi	r29,r29,#-8
 6005  00005a00  afa60000	sw	(r29),r6
 6006  00005a04  2008002b	addi	r8,r0,#43
 6007  00005a08  afa80004	sw	4(r29),r8
 6008  00005a0c  0ffff028	jal	_dindex
 6009  00005a10  54000000	nop; not filled.
 6010  00005a14  23bd0008	addi	r29,r29,#8
 6011  00005a18  64210000	snei	r1,r1,#0
 6012  00005a1c  10200024	beqz	r1,L123_LF6
 6013  00005a20  54000000	nop; not filled.
 6014  00005a24          	L124_LF6:
 6015  00005a24  23bdfff8	addi	r29,r29,#-8
 6016  00005a28  3c080001	lhi	r8,((LC6_LF6)>>16)&0xffff
 6017  00005a2c  250816b0	addui	r8,r8,(LC6_LF6)&0xffff
 6018  00005a30  afa80000	sw	(r29),r8
 6019  00005a34  afa40004	sw	4(r29),r4
 6020  00005a38  0c006f50	jal	_printf
 6021  00005a3c  54000000	nop; not filled.
 6022  00005a40  23bd0008	addi	r29,r29,#8
 6023  00005a44          	L123_LF6:
 6024  00005a44  209f00a4	addi	r31,r4,#164
 6025  00005a48  8c8100ac	lw	r1,172(r4)
 6026  00005a4c  8c210008	lw	r1,8(r1)
 6027  00005a50  6c210000	sgti	r1,r1,#0
 6028  00005a54  1020002c	beqz	r1,L126_LF6
 6029  00005a58  54000000	nop; not filled.
 6030  00005a5c  8c8100a8	lw	r1,168(r4)
 6031  00005a60  8fe80000	lw	r8,(r31)
 6032  00005a64  ac280000	sw	(r1),r8
 6033  00005a68  8fe10000	lw	r1,(r31)
 6034  00005a6c  8c8800a8	lw	r8,168(r4)
 6035  00005a70  ac280004	sw	4(r1),r8
 6036  00005a74  8c8200ac	lw	r2,172(r4)
 6037  00005a78  8c410008	lw	r1,8(r2)
 6038  00005a7c  2021ffff	addi	r1,r1,#-1
 6039  00005a80  ac410008	sw	8(r2),r1
 6040  00005a84          	L126_LF6:
 6041  00005a84  20080000	addi	r8,r0,#0
 6042  00005a88  afe80000	sw	(r31),r8
 6043  00005a8c  8ca10004	lw	r1,4(r5)
 6044  00005a90  ac8500ac	sw	172(r4),r5
 6045  00005a94  ac8100a8	sw	168(r4),r1
 6046  00005a98  8c280000	lw	r8,(r1)
 6047  00005a9c  afe80000	sw	(r31),r8
 6048  00005aa0  ac3f0000	sw	(r1),r31
 6049  00005aa4  8fe10000	lw	r1,(r31)
 6050  00005aa8  ac3f0004	sw	4(r1),r31
 6051  00005aac  8ca10008	lw	r1,8(r5)
 6052  00005ab0  20210001	addi	r1,r1,#1
 6053  00005ab4  aca10008	sw	8(r5),r1
 6054  00005ab8  8c8300a0	lw	r3,160(r4)
 6055  00005abc  20020000	addi	r2,r0,#0
 6056  00005ac0  0043082a	slt	r1,r2,r3
 6057  00005ac4  10200030	beqz	r1,L144_LF6
 6058  00005ac8  54000000	nop; not filled.
 6059  00005acc          	L134_LF6:
 6060  00005acc  23bdfff8	addi	r29,r29,#-8
 6061  00005ad0  afa40000	sw	(r29),r4
 6062  00005ad4  afa20004	sw	4(r29),r2
 6063  00005ad8  0fffc20c	jal	_MemoryFreeSharedPte
 6064  00005adc  54000000	nop; not filled.
 6065  00005ae0  23bd0008	addi	r29,r29,#8
 6066  00005ae4  20420001	addi	r2,r2,#1
 6067  00005ae8  0043082a	slt	r1,r2,r3
 6068  00005aec  1420ffdc	bnez	r1,L134_LF6
 6069  00005af0  54000000	nop; not filled.
 6070  00005af4  20020000	addi	r2,r0,#0
 6071  00005af8          	L144_LF6:
 6072  00005af8  8c8100a0	lw	r1,160(r4)
 6073  00005afc  0041082a	slt	r1,r2,r1
 6074  00005b00  10200038	beqz	r1,L137_LF6
 6075  00005b04  54000000	nop; not filled.
 6076  00005b08  00041820	add	r3,r0,r4
 6077  00005b0c          	L139_LF6:
 6078  00005b0c  23bdfff8	addi	r29,r29,#-8
 6079  00005b10  8c680060	lw	r8,96(r3)
 6080  00005b14  afa80000	sw	(r29),r8
 6081  00005b18  0fffe7c4	jal	_MemoryFreePte
 6082  00005b1c  54000000	nop; not filled.
 6083  00005b20  23bd0008	addi	r29,r29,#8
 6084  00005b24  20630004	addi	r3,r3,#4
 6085  00005b28  20420001	addi	r2,r2,#1
 6086  00005b2c  8c8100a0	lw	r1,160(r4)
 6087  00005b30  0041082a	slt	r1,r2,r1
 6088  00005b34  1420ffd4	bnez	r1,L139_LF6
 6089  00005b38  54000000	nop; not filled.
 6090  00005b3c          	L137_LF6:
 6091  00005b3c  23bdfff8	addi	r29,r29,#-8
 6092  00005b40  94810008	lhu	r1,8(r4)
 6093  00005b44  afa10000	sw	(r29),r1
 6094  00005b48  0fffe2c8	jal	_MemoryFreePage
 6095  00005b4c  54000000	nop; not filled.
 6096  00005b50  23bd0008	addi	r29,r29,#8
 6097  00005b54  8c81000c	lw	r1,12(r4)
 6098  00005b58  2008ffc0	addi	r8,r0,#-64
 6099  00005b5c  00280824	and	r1,r1,r8
 6100  00005b60  34210001	ori	r1,r1,#1
 6101  00005b64  ac81000c	sw	12(r4),r1
 6102  00005b68  0bfffe50	j	L117_LF6
 6103  00005b6c  54000000	nop; not filled.
 6104  00005b70          	L118_LF6:
 6105  00005b70  23bdfff8	addi	r29,r29,#-8
 6106  00005b74  3c010001	lhi	r1,((_processQuantum_LF6)>>16)&0xffff
 6107  00005b78  242115cc	addui	r1,r1,(_processQuantum_LF6)&0xffff
 6108  00005b7c  8c210000	lw	r1,(r1)
 6109  00005b80  afa10000	sw	(r29),r1
 6110  00005b84  0c004c5c	jal	_TimerSet
 6111  00005b88  54000000	nop; not filled.
 6112  00005b8c  3c020001	lhi	r2,((_debugstr)>>16)&0xffff
 6113  00005b90  24421f50	addui	r2,r2,(_debugstr)&0xffff
 6114  00005b94  afa20000	sw	(r29),r2
 6115  00005b98  20080070	addi	r8,r0,#112
 6116  00005b9c  afa80004	sw	4(r29),r8
 6117  00005ba0  0fffee94	jal	_dindex
 6118  00005ba4  54000000	nop; not filled.
 6119  00005ba8  23bd0008	addi	r29,r29,#8
 6120  00005bac  64210000	snei	r1,r1,#0
 6121  00005bb0  1420002c	bnez	r1,L143_LF6
 6122  00005bb4  54000000	nop; not filled.
 6123  00005bb8  23bdfff8	addi	r29,r29,#-8
 6124  00005bbc  afa20000	sw	(r29),r2
 6125  00005bc0  2008002b	addi	r8,r0,#43
 6126  00005bc4  afa80004	sw	4(r29),r8
 6127  00005bc8  0fffee6c	jal	_dindex
 6128  00005bcc  54000000	nop; not filled.
 6129  00005bd0  23bd0008	addi	r29,r29,#8
 6130  00005bd4  64210000	snei	r1,r1,#0
 6131  00005bd8  10200030	beqz	r1,L142_LF6
 6132  00005bdc  54000000	nop; not filled.
 6133  00005be0          	L143_LF6:
 6134  00005be0  23bdfff8	addi	r29,r29,#-8
 6135  00005be4  3c080001	lhi	r8,((LC7_LF6)>>16)&0xffff
 6136  00005be8  250816cc	addui	r8,r8,(LC7_LF6)&0xffff
 6137  00005bec  afa80000	sw	(r29),r8
 6138  00005bf0  3c010001	lhi	r1,((_currentPCB)>>16)&0xffff
 6139  00005bf4  24212018	addui	r1,r1,(_currentPCB)&0xffff
 6140  00005bf8  8c210000	lw	r1,(r1)
 6141  00005bfc  afa10004	sw	4(r29),r1
 6142  00005c00  0c006d88	jal	_printf
 6143  00005c04  54000000	nop; not filled.
 6144  00005c08  23bd0008	addi	r29,r29,#8
 6145  00005c0c          	L142_LF6:
 6146  00005c0c  8fa20000	lw	r2,0(r29)
 6147  00005c10  8fa30004	lw	r3,4(r29)
 6148  00005c14  8fa40008	lw	r4,8(r29)
 6149  00005c18  8fa5000c	lw	r5,12(r29)
 6150  00005c1c  8fa60010	lw	r6,16(r29)
 6151  00005c20  8fa70014	lw	r7,20(r29)
 6152  00005c24  8fa80018	lw	r8,24(r29)
 6153  00005c28  8fdffff8	lw	r31,-8(r30)
 6154  00005c2c  001ee820	add	r29,r0,r30
 6155  00005c30  8fdefffc	lw	r30,-4(r30)
 6156  00005c34  4be00000	jr	r31
 6157  00005c38  54000000	nop
 6158  00005c3c          	.endproc _ProcessSchedule
 6159  00005c3c          	.data
 6160  000116f0          	.align 2
 6161  000116f0          	LC8_LF6:
 6162  000116f0  53757370	.ascii "Suspending PCB 0x%x (%s).\n\000"
 6162  000116f4  656e6469	
 6162  000116f8  6e672050	
 6162  000116fc  43422030	
 6162  00011700  78257820	
 6162  00011704  28257329	
 6162  00011708  2e0a00  	
 6163  0001170b          	.align 2
 6164  0001170c          	LC9_LF6:
 6165  0001170c  25733a20	.ascii "%s: %s\n\000"
 6165  00011710  25730a00	
 6166  00011714          	.align 2
 6167  00011714          	LC10_LF6:
 6168  00011714  50726f63	.ascii "ProcessSuspend\000"
 6168  00011718  65737353	
 6168  0001171c  75737065	
 6168  00011720  6e6400  	
 6169  00011723          	.align 2
 6170  00011724          	LC11_LF6:
 6171  00011724  54727969	.ascii "Trying to suspend a non-running process!\n\000"
 6171  00011728  6e672074	
 6171  0001172c  6f207375	
 6171  00011730  7370656e	
 6171  00011734  64206120	
 6171  00011738  6e6f6e2d	
 6171  0001173c  72756e6e	
 6171  00011740  696e6720	
 6171  00011744  70726f63	
 6171  00011748  65737321	
 6171  0001174c  0a00    	
 6172  0001174e          	.text
 6173  00005c3c          	.align 2
 6174  00005c3c          	.proc _ProcessSuspend
 6175  00005c3c          	.global _ProcessSuspend
 6176  00005c3c          	_ProcessSuspend:
 6177                      ;  Function 'ProcessSuspend'; 0 bytes of locals, 3 regs to save.
 6178  00005c3c  afbefffc	sw	-4(r29),r30; push fp
 6179  00005c40  001df020	add	r30,r0,r29; fp = sp
 6180  00005c44  afbffff8	sw	-8(r29),r31; push ret addr
 6181  00005c48  2fbd0018	subui	r29,r29,#24; alloc local storage
 6182  00005c4c  afa20000	sw	0(r29),r2
 6183  00005c50  afa30004	sw	4(r29),r3
 6184  00005c54  afa40008	sw	8(r29),r4
 6185  00005c58  8fc30000	lw	r3,(r30)
 6186  00005c5c  23bdfff8	addi	r29,r29,#-8
 6187  00005c60  3c020001	lhi	r2,((_debugstr)>>16)&0xffff
 6188  00005c64  24421f50	addui	r2,r2,(_debugstr)&0xffff
 6189  00005c68  afa20000	sw	(r29),r2
 6190  00005c6c  20040070	addi	r4,r0,#112
 6191  00005c70  afa40004	sw	4(r29),r4
 6192  00005c74  0fffedc0	jal	_dindex
 6193  00005c78  54000000	nop; not filled.
 6194  00005c7c  23bd0008	addi	r29,r29,#8
 6195  00005c80  64210000	snei	r1,r1,#0
 6196  00005c84  1420002c	bnez	r1,L147_LF6
 6197  00005c88  54000000	nop; not filled.
 6198  00005c8c  23bdfff8	addi	r29,r29,#-8
 6199  00005c90  afa20000	sw	(r29),r2
 6200  00005c94  2004002b	addi	r4,r0,#43
 6201  00005c98  afa40004	sw	4(r29),r4
 6202  00005c9c  0fffed98	jal	_dindex
 6203  00005ca0  54000000	nop; not filled.
 6204  00005ca4  23bd0008	addi	r29,r29,#8
 6205  00005ca8  64210000	snei	r1,r1,#0
 6206  00005cac  1020002c	beqz	r1,L146_LF6
 6207  00005cb0  54000000	nop; not filled.
 6208  00005cb4          	L147_LF6:
 6209  00005cb4  23bdfff0	addi	r29,r29,#-16
 6210  00005cb8  3c040001	lhi	r4,((LC8_LF6)>>16)&0xffff
 6211  00005cbc  248416f0	addui	r4,r4,(LC8_LF6)&0xffff
 6212  00005cc0  afa40000	sw	(r29),r4
 6213  00005cc4  afa30004	sw	4(r29),r3
 6214  00005cc8  20610010	addi	r1,r3,#16
 6215  00005ccc  afa10008	sw	8(r29),r1
 6216  00005cd0  0c006cb8	jal	_printf
 6217  00005cd4  54000000	nop; not filled.
 6218  00005cd8  23bd0010	addi	r29,r29,#16
 6219  00005cdc          	L146_LF6:
 6220  00005cdc  8064000f	lb	r4,15(r3)
 6221  00005ce0  58810001	srli	r1,r4,#0x1
 6222  00005ce4  30210001	andi	r1,r1,#1
 6223  00005ce8  14200038	bnez	r1,L149_LF6
 6224  00005cec  54000000	nop; not filled.
 6225  00005cf0  23bdfff0	addi	r29,r29,#-16
 6226  00005cf4  3c040001	lhi	r4,((LC9_LF6)>>16)&0xffff
 6227  00005cf8  2484170c	addui	r4,r4,(LC9_LF6)&0xffff
 6228  00005cfc  afa40000	sw	(r29),r4
 6229  00005d00  3c010001	lhi	r1,((LC10_LF6)>>16)&0xffff
 6230  00005d04  24211714	addui	r1,r1,(LC10_LF6)&0xffff
 6231  00005d08  afa10004	sw	4(r29),r1
 6232  00005d0c  3c040001	lhi	r4,((LC11_LF6)>>16)&0xffff
 6233  00005d10  24841724	addui	r4,r4,(LC11_LF6)&0xffff
 6234  00005d14  afa40008	sw	8(r29),r4
 6235  00005d18  0c006c70	jal	_printf
 6236  00005d1c  54000000	nop; not filled.
 6237  00005d20  23bd0010	addi	r29,r29,#16
 6238  00005d24          	L149_LF6:
 6239  00005d24  8c61000c	lw	r1,12(r3)
 6240  00005d28  2004ffc0	addi	r4,r0,#-64
 6241  00005d2c  00240824	and	r1,r1,r4
 6242  00005d30  34210004	ori	r1,r1,#4
 6243  00005d34  ac61000c	sw	12(r3),r1
 6244  00005d38  207f00a4	addi	r31,r3,#164
 6245  00005d3c  8c6100ac	lw	r1,172(r3)
 6246  00005d40  8c210008	lw	r1,8(r1)
 6247  00005d44  6c210000	sgti	r1,r1,#0
 6248  00005d48  1020002c	beqz	r1,L152_LF6
 6249  00005d4c  54000000	nop; not filled.
 6250  00005d50  8c6100a8	lw	r1,168(r3)
 6251  00005d54  8fe40000	lw	r4,(r31)
 6252  00005d58  ac240000	sw	(r1),r4
 6253  00005d5c  8fe10000	lw	r1,(r31)
 6254  00005d60  8c6400a8	lw	r4,168(r3)
 6255  00005d64  ac240004	sw	4(r1),r4
 6256  00005d68  8c6200ac	lw	r2,172(r3)
 6257  00005d6c  8c410008	lw	r1,8(r2)
 6258  00005d70  2021ffff	addi	r1,r1,#-1
 6259  00005d74  ac410008	sw	8(r2),r1
 6260  00005d78          	L152_LF6:
 6261  00005d78  20040000	addi	r4,r0,#0
 6262  00005d7c  afe40000	sw	(r31),r4
 6263  00005d80  3c020001	lhi	r2,((_waitQueue_LF6)>>16)&0xffff
 6264  00005d84  24422034	addui	r2,r2,(_waitQueue_LF6)&0xffff
 6265  00005d88  8c410004	lw	r1,4(r2)
 6266  00005d8c  ac6200ac	sw	172(r3),r2
 6267  00005d90  ac6100a8	sw	168(r3),r1
 6268  00005d94  8c240000	lw	r4,(r1)
 6269  00005d98  afe40000	sw	(r31),r4
 6270  00005d9c  ac3f0000	sw	(r1),r31
 6271  00005da0  8fe10000	lw	r1,(r31)
 6272  00005da4  ac3f0004	sw	4(r1),r31
 6273  00005da8  8c410008	lw	r1,8(r2)
 6274  00005dac  20210001	addi	r1,r1,#1
 6275  00005db0  ac410008	sw	8(r2),r1
 6276  00005db4  8fa20000	lw	r2,0(r29)
 6277  00005db8  8fa30004	lw	r3,4(r29)
 6278  00005dbc  8fa40008	lw	r4,8(r29)
 6279  00005dc0  8fdffff8	lw	r31,-8(r30)
 6280  00005dc4  001ee820	add	r29,r0,r30
 6281  00005dc8  8fdefffc	lw	r30,-4(r30)
 6282  00005dcc  4be00000	jr	r31
 6283  00005dd0  54000000	nop
 6284  00005dd4          	.endproc _ProcessSuspend
 6285  00005dd4          	.data
 6286  0001174e          	.align 2
 6287  00011750          	LC12_LF6:
 6288  00011750  57616b69	.ascii "Waking up PCB 0x%x.\n\000"
 6288  00011754  6e672075	
 6288  00011758  70205043	
 6288  0001175c  42203078	
 6288  00011760  25782e0a	
 6288  00011764  00      	
 6289  00011765          	.align 2
 6290  00011768          	LC13_LF6:
 6291  00011768  50726f63	.ascii "ProcessWakeup\000"
 6291  0001176c  65737357	
 6291  00011770  616b6575	
 6291  00011774  7000    	
 6292  00011776          	.align 2
 6293  00011778          	LC14_LF6:
 6294  00011778  54727969	.ascii "Trying to wake up a non-sleeping process!\n\000"
 6294  0001177c  6e672074	
 6294  00011780  6f207761	
 6294  00011784  6b652075	
 6294  00011788  70206120	
 6294  0001178c  6e6f6e2d	
 6294  00011790  736c6565	
 6294  00011794  70696e67	
 6294  00011798  2070726f	
 6294  0001179c  63657373	
 6294  000117a0  210a00  	
 6295  000117a3          	.text
 6296  00005dd4          	.align 2
 6297  00005dd4          	.proc _ProcessWakeup
 6298  00005dd4          	.global _ProcessWakeup
 6299  00005dd4          	_ProcessWakeup:
 6300                      ;  Function 'ProcessWakeup'; 0 bytes of locals, 3 regs to save.
 6301  00005dd4  afbefffc	sw	-4(r29),r30; push fp
 6302  00005dd8  001df020	add	r30,r0,r29; fp = sp
 6303  00005ddc  afbffff8	sw	-8(r29),r31; push ret addr
 6304  00005de0  2fbd0018	subui	r29,r29,#24; alloc local storage
 6305  00005de4  afa20000	sw	0(r29),r2
 6306  00005de8  afa30004	sw	4(r29),r3
 6307  00005dec  afa40008	sw	8(r29),r4
 6308  00005df0  8fc30000	lw	r3,(r30)
 6309  00005df4  23bdfff8	addi	r29,r29,#-8
 6310  00005df8  3c020001	lhi	r2,((_debugstr)>>16)&0xffff
 6311  00005dfc  24421f50	addui	r2,r2,(_debugstr)&0xffff
 6312  00005e00  afa20000	sw	(r29),r2
 6313  00005e04  20040070	addi	r4,r0,#112
 6314  00005e08  afa40004	sw	4(r29),r4
 6315  00005e0c  0fffec28	jal	_dindex
 6316  00005e10  54000000	nop; not filled.
 6317  00005e14  23bd0008	addi	r29,r29,#8
 6318  00005e18  64210000	snei	r1,r1,#0
 6319  00005e1c  1420002c	bnez	r1,L158_LF6
 6320  00005e20  54000000	nop; not filled.
 6321  00005e24  23bdfff8	addi	r29,r29,#-8
 6322  00005e28  afa20000	sw	(r29),r2
 6323  00005e2c  2004002b	addi	r4,r0,#43
 6324  00005e30  afa40004	sw	4(r29),r4
 6325  00005e34  0fffec00	jal	_dindex
 6326  00005e38  54000000	nop; not filled.
 6327  00005e3c  23bd0008	addi	r29,r29,#8
 6328  00005e40  64210000	snei	r1,r1,#0
 6329  00005e44  10200024	beqz	r1,L157_LF6
 6330  00005e48  54000000	nop; not filled.
 6331  00005e4c          	L158_LF6:
 6332  00005e4c  23bdfff8	addi	r29,r29,#-8
 6333  00005e50  3c040001	lhi	r4,((LC12_LF6)>>16)&0xffff
 6334  00005e54  24841750	addui	r4,r4,(LC12_LF6)&0xffff
 6335  00005e58  afa40000	sw	(r29),r4
 6336  00005e5c  afa30004	sw	4(r29),r3
 6337  00005e60  0c006b28	jal	_printf
 6338  00005e64  54000000	nop; not filled.
 6339  00005e68  23bd0008	addi	r29,r29,#8
 6340  00005e6c          	L157_LF6:
 6341  00005e6c  8064000f	lb	r4,15(r3)
 6342  00005e70  58810002	srli	r1,r4,#0x2
 6343  00005e74  30210001	andi	r1,r1,#1
 6344  00005e78  14200038	bnez	r1,L160_LF6
 6345  00005e7c  54000000	nop; not filled.
 6346  00005e80  23bdfff0	addi	r29,r29,#-16
 6347  00005e84  3c040001	lhi	r4,((LC9_LF6)>>16)&0xffff
 6348  00005e88  2484170c	addui	r4,r4,(LC9_LF6)&0xffff
 6349  00005e8c  afa40000	sw	(r29),r4
 6350  00005e90  3c010001	lhi	r1,((LC13_LF6)>>16)&0xffff
 6351  00005e94  24211768	addui	r1,r1,(LC13_LF6)&0xffff
 6352  00005e98  afa10004	sw	4(r29),r1
 6353  00005e9c  3c040001	lhi	r4,((LC14_LF6)>>16)&0xffff
 6354  00005ea0  24841778	addui	r4,r4,(LC14_LF6)&0xffff
 6355  00005ea4  afa40008	sw	8(r29),r4
 6356  00005ea8  0c006ae0	jal	_printf
 6357  00005eac  54000000	nop; not filled.
 6358  00005eb0  23bd0010	addi	r29,r29,#16
 6359  00005eb4          	L160_LF6:
 6360  00005eb4  8c61000c	lw	r1,12(r3)
 6361  00005eb8  2004ffc0	addi	r4,r0,#-64
 6362  00005ebc  00240824	and	r1,r1,r4
 6363  00005ec0  34210002	ori	r1,r1,#2
 6364  00005ec4  ac61000c	sw	12(r3),r1
 6365  00005ec8  207f00a4	addi	r31,r3,#164
 6366  00005ecc  8c6100ac	lw	r1,172(r3)
 6367  00005ed0  8c210008	lw	r1,8(r1)
 6368  00005ed4  6c210000	sgti	r1,r1,#0
 6369  00005ed8  1020002c	beqz	r1,L163_LF6
 6370  00005edc  54000000	nop; not filled.
 6371  00005ee0  8c6100a8	lw	r1,168(r3)
 6372  00005ee4  8fe40000	lw	r4,(r31)
 6373  00005ee8  ac240000	sw	(r1),r4
 6374  00005eec  8fe10000	lw	r1,(r31)
 6375  00005ef0  8c6400a8	lw	r4,168(r3)
 6376  00005ef4  ac240004	sw	4(r1),r4
 6377  00005ef8  8c6200ac	lw	r2,172(r3)
 6378  00005efc  8c410008	lw	r1,8(r2)
 6379  00005f00  2021ffff	addi	r1,r1,#-1
 6380  00005f04  ac410008	sw	8(r2),r1
 6381  00005f08          	L163_LF6:
 6382  00005f08  20040000	addi	r4,r0,#0
 6383  00005f0c  afe40000	sw	(r31),r4
 6384  00005f10  3c020001	lhi	r2,((_runQueue_LF6)>>16)&0xffff
 6385  00005f14  24422028	addui	r2,r2,(_runQueue_LF6)&0xffff
 6386  00005f18  8c410004	lw	r1,4(r2)
 6387  00005f1c  ac6200ac	sw	172(r3),r2
 6388  00005f20  ac6100a8	sw	168(r3),r1
 6389  00005f24  8c240000	lw	r4,(r1)
 6390  00005f28  afe40000	sw	(r31),r4
 6391  00005f2c  ac3f0000	sw	(r1),r31
 6392  00005f30  8fe10000	lw	r1,(r31)
 6393  00005f34  ac3f0004	sw	4(r1),r31
 6394  00005f38  8c410008	lw	r1,8(r2)
 6395  00005f3c  20210001	addi	r1,r1,#1
 6396  00005f40  ac410008	sw	8(r2),r1
 6397  00005f44  8fa20000	lw	r2,0(r29)
 6398  00005f48  8fa30004	lw	r3,4(r29)
 6399  00005f4c  8fa40008	lw	r4,8(r29)
 6400  00005f50  8fdffff8	lw	r31,-8(r30)
 6401  00005f54  001ee820	add	r29,r0,r30
 6402  00005f58  8fdefffc	lw	r30,-4(r30)
 6403  00005f5c  4be00000	jr	r31
 6404  00005f60  54000000	nop
 6405  00005f64          	.endproc _ProcessWakeup
 6406  00005f64          	.data
 6407  000117a3          	.align 2
 6408  000117a4          	LC15_LF6:
 6409  000117a4  456e7465	.ascii "Entering ProcessDestroy for 0x%x.\n\000"
 6409  000117a8  72696e67	
 6409  000117ac  2050726f	
 6409  000117b0  63657373	
 6409  000117b4  44657374	
 6409  000117b8  726f7920	
 6409  000117bc  666f7220	
 6409  000117c0  30782578	
 6409  000117c4  2e0a00  	
 6410  000117c7          	.align 2
 6411  000117c8          	LC16_LF6:
 6412  000117c8  4c656176	.ascii "Leaving ProcessDestroy for 0x%x.\n\000"
 6412  000117cc  696e6720	
 6412  000117d0  50726f63	
 6412  000117d4  65737344	
 6412  000117d8  65737472	
 6412  000117dc  6f792066	
 6412  000117e0  6f722030	
 6412  000117e4  7825782e	
 6412  000117e8  0a00    	
 6413  000117ea          	.text
 6414  00005f64          	.align 2
 6415  00005f64          	.proc _ProcessDestroy
 6416  00005f64          	.global _ProcessDestroy
 6417  00005f64          	_ProcessDestroy:
 6418                      ;  Function 'ProcessDestroy'; 0 bytes of locals, 3 regs to save.
 6419  00005f64  afbefffc	sw	-4(r29),r30; push fp
 6420  00005f68  001df020	add	r30,r0,r29; fp = sp
 6421  00005f6c  afbffff8	sw	-8(r29),r31; push ret addr
 6422  00005f70  2fbd0018	subui	r29,r29,#24; alloc local storage
 6423  00005f74  afa20000	sw	0(r29),r2
 6424  00005f78  afa30004	sw	4(r29),r3
 6425  00005f7c  afa40008	sw	8(r29),r4
 6426  00005f80  8fc30000	lw	r3,(r30)
 6427  00005f84  23bdfff8	addi	r29,r29,#-8
 6428  00005f88  3c020001	lhi	r2,((_debugstr)>>16)&0xffff
 6429  00005f8c  24421f50	addui	r2,r2,(_debugstr)&0xffff
 6430  00005f90  afa20000	sw	(r29),r2
 6431  00005f94  20040070	addi	r4,r0,#112
 6432  00005f98  afa40004	sw	4(r29),r4
 6433  00005f9c  0fffea98	jal	_dindex
 6434  00005fa0  54000000	nop; not filled.
 6435  00005fa4  23bd0008	addi	r29,r29,#8
 6436  00005fa8  64210000	snei	r1,r1,#0
 6437  00005fac  1420002c	bnez	r1,L169_LF6
 6438  00005fb0  54000000	nop; not filled.
 6439  00005fb4  23bdfff8	addi	r29,r29,#-8
 6440  00005fb8  afa20000	sw	(r29),r2
 6441  00005fbc  2004002b	addi	r4,r0,#43
 6442  00005fc0  afa40004	sw	4(r29),r4
 6443  00005fc4  0fffea70	jal	_dindex
 6444  00005fc8  54000000	nop; not filled.
 6445  00005fcc  23bd0008	addi	r29,r29,#8
 6446  00005fd0  64210000	snei	r1,r1,#0
 6447  00005fd4  10200024	beqz	r1,L168_LF6
 6448  00005fd8  54000000	nop; not filled.
 6449  00005fdc          	L169_LF6:
 6450  00005fdc  23bdfff8	addi	r29,r29,#-8
 6451  00005fe0  3c040001	lhi	r4,((LC15_LF6)>>16)&0xffff
 6452  00005fe4  248417a4	addui	r4,r4,(LC15_LF6)&0xffff
 6453  00005fe8  afa40000	sw	(r29),r4
 6454  00005fec  afa30004	sw	4(r29),r3
 6455  00005ff0  0c006998	jal	_printf
 6456  00005ff4  54000000	nop; not filled.
 6457  00005ff8  23bd0008	addi	r29,r29,#8
 6458  00005ffc          	L168_LF6:
 6459  00005ffc  8c61000c	lw	r1,12(r3)
 6460  00006000  2004ffc0	addi	r4,r0,#-64
 6461  00006004  00240824	and	r1,r1,r4
 6462  00006008  34210010	ori	r1,r1,#16
 6463  0000600c  ac61000c	sw	12(r3),r1
 6464  00006010  207f00a4	addi	r31,r3,#164
 6465  00006014  8c6100ac	lw	r1,172(r3)
 6466  00006018  8c210008	lw	r1,8(r1)
 6467  0000601c  6c210000	sgti	r1,r1,#0
 6468  00006020  1020002c	beqz	r1,L172_LF6
 6469  00006024  54000000	nop; not filled.
 6470  00006028  8c6100a8	lw	r1,168(r3)
 6471  0000602c  8fe40000	lw	r4,(r31)
 6472  00006030  ac240000	sw	(r1),r4
 6473  00006034  8fe10000	lw	r1,(r31)
 6474  00006038  8c6400a8	lw	r4,168(r3)
 6475  0000603c  ac240004	sw	4(r1),r4
 6476  00006040  8c6200ac	lw	r2,172(r3)
 6477  00006044  8c410008	lw	r1,8(r2)
 6478  00006048  2021ffff	addi	r1,r1,#-1
 6479  0000604c  ac410008	sw	8(r2),r1
 6480  00006050          	L172_LF6:
 6481  00006050  20040000	addi	r4,r0,#0
 6482  00006054  afe40000	sw	(r31),r4
 6483  00006058  3c020001	lhi	r2,((_zombieQueue_LF6)>>16)&0xffff
 6484  0000605c  24422040	addui	r2,r2,(_zombieQueue_LF6)&0xffff
 6485  00006060  ac6200ac	sw	172(r3),r2
 6486  00006064  ac6200a8	sw	168(r3),r2
 6487  00006068  8c440000	lw	r4,(r2)
 6488  0000606c  afe40000	sw	(r31),r4
 6489  00006070  ac5f0000	sw	(r2),r31
 6490  00006074  8fe10000	lw	r1,(r31)
 6491  00006078  ac3f0004	sw	4(r1),r31
 6492  0000607c  8c410008	lw	r1,8(r2)
 6493  00006080  20210001	addi	r1,r1,#1
 6494  00006084  ac410008	sw	8(r2),r1
 6495  00006088  23bdfff8	addi	r29,r29,#-8
 6496  0000608c  3c020001	lhi	r2,((_debugstr)>>16)&0xffff
 6497  00006090  24421f50	addui	r2,r2,(_debugstr)&0xffff
 6498  00006094  afa20000	sw	(r29),r2
 6499  00006098  20040070	addi	r4,r0,#112
 6500  0000609c  afa40004	sw	4(r29),r4
 6501  000060a0  0fffe994	jal	_dindex
 6502  000060a4  54000000	nop; not filled.
 6503  000060a8  23bd0008	addi	r29,r29,#8
 6504  000060ac  64210000	snei	r1,r1,#0
 6505  000060b0  1420002c	bnez	r1,L176_LF6
 6506  000060b4  54000000	nop; not filled.
 6507  000060b8  23bdfff8	addi	r29,r29,#-8
 6508  000060bc  afa20000	sw	(r29),r2
 6509  000060c0  2004002b	addi	r4,r0,#43
 6510  000060c4  afa40004	sw	4(r29),r4
 6511  000060c8  0fffe96c	jal	_dindex
 6512  000060cc  54000000	nop; not filled.
 6513  000060d0  23bd0008	addi	r29,r29,#8
 6514  000060d4  64210000	snei	r1,r1,#0
 6515  000060d8  10200024	beqz	r1,L175_LF6
 6516  000060dc  54000000	nop; not filled.
 6517  000060e0          	L176_LF6:
 6518  000060e0  23bdfff8	addi	r29,r29,#-8
 6519  000060e4  3c040001	lhi	r4,((LC16_LF6)>>16)&0xffff
 6520  000060e8  248417c8	addui	r4,r4,(LC16_LF6)&0xffff
 6521  000060ec  afa40000	sw	(r29),r4
 6522  000060f0  afa30004	sw	4(r29),r3
 6523  000060f4  0c006894	jal	_printf
 6524  000060f8  54000000	nop; not filled.
 6525  000060fc  23bd0008	addi	r29,r29,#8
 6526  00006100          	L175_LF6:
 6527  00006100  8fa20000	lw	r2,0(r29)
 6528  00006104  8fa30004	lw	r3,4(r29)
 6529  00006108  8fa40008	lw	r4,8(r29)
 6530  0000610c  8fdffff8	lw	r31,-8(r30)
 6531  00006110  001ee820	add	r29,r0,r30
 6532  00006114  8fdefffc	lw	r30,-4(r30)
 6533  00006118  4be00000	jr	r31
 6534  0000611c  54000000	nop
 6535  00006120          	.endproc _ProcessDestroy
 6536  00006120          	.data
 6537  000117ea          	.align 2
 6538  000117ec          	LC17_LF6:
 6539  000117ec  4f6c6420	.ascii "Old interrupt value was 0x%x.\n\000"
 6539  000117f0  696e7465	
 6539  000117f4  72727570	
 6539  000117f8  74207661	
 6539  000117fc  6c756520	
 6539  00011800  77617320	
 6539  00011804  30782578	
 6539  00011808  2e0a00  	
 6540  0001180b          	.align 2
 6541  0001180c          	LC18_LF6:
 6542  0001180c  456e7465	.ascii "Entering ProcessFork args=0x%x 0x%x %s %d\n\000"
 6542  00011810  72696e67	
 6542  00011814  2050726f	
 6542  00011818  63657373	
 6542  0001181c  466f726b	
 6542  00011820  20617267	
 6542  00011824  733d3078	
 6542  00011828  25782030	
 6542  0001182c  78257820	
 6542  00011830  25732025	
 6542  00011834  640a00  	
 6543  00011837          	.align 2
 6544  00011838          	LC19_LF6:
 6545  00011838  46415441	.ascii "FATAL error: no free processes!\n\000"
 6545  0001183c  4c206572	
 6545  00011840  726f723a	
 6545  00011844  206e6f20	
 6545  00011848  66726565	
 6545  0001184c  2070726f	
 6545  00011850  63657373	
 6545  00011854  6573210a	
 6545  00011858  00      	
 6546  00011859          	.align 2
 6547  0001185c          	LC20_LF6:
 6548  0001185c  476f7420	.ascii "Got a link @ 0x%x\n\000"
 6548  00011860  61206c69	
 6548  00011864  6e6b2040	
 6548  00011868  20307825	
 6548  0001186c  780a00  	
 6549  0001186f          	.align 2
 6550  00011870          	LC21_LF6:
 6551  00011870  4265666f	.ascii "Before restore interrupt value is 0x%x.\n\000"
 6551  00011874  72652072	
 6551  00011878  6573746f	
 6551  0001187c  72652069	
 6551  00011880  6e746572	
 6551  00011884  72757074	
 6551  00011888  2076616c	
 6551  0001188c  75652069	
 6551  00011890  73203078	
 6551  00011894  25782e0a	
 6551  00011898  00      	
 6552  00011899          	.align 2
 6553  0001189c          	LC22_LF6:
 6554  0001189c  4e657720	.ascii "New interrupt value is 0x%x.\n\000"
 6554  000118a0  696e7465	
 6554  000118a4  72727570	
 6554  000118a8  74207661	
 6554  000118ac  6c756520	
 6554  000118b0  69732030	
 6554  000118b4  7825782e	
 6554  000118b8  0a00    	
 6555  000118ba          	.align 2
 6556  000118bc          	LC23_LF6:
 6557  000118bc  61464154	.ascii "aFATAL: couldn\'t allocate memory - no free pages!\n\000"
 6557  000118c0  414c3a20	
 6557  000118c4  636f756c	
 6557  000118c8  646e2774	
 6557  000118cc  20616c6c	
 6557  000118d0  6f636174	
 6557  000118d4  65206d65	
 6557  000118d8  6d6f7279	
 6557  000118dc  202d206e	
 6557  000118e0  6f206672	
 6557  000118e4  65652070	
 6557  000118e8  61676573	
 6557  000118ec  210a00  	
 6558  000118ef          	.align 2
 6559  000118f0          	LC24_LF6:
 6560  000118f0  62464154	.ascii "bFATAL: couldn\'t allocate system stack - no free pages!\n\000"
 6560  000118f4  414c3a20	
 6560  000118f8  636f756c	
 6560  000118fc  646e2774	
 6560  00011900  20616c6c	
 6560  00011904  6f636174	
 6560  00011908  65207379	
 6560  0001190c  7374656d	
 6560  00011910  20737461	
 6560  00011914  636b202d	
 6560  00011918  206e6f20	
 6560  0001191c  66726565	
 6560  00011920  20706167	
 6560  00011924  6573210a	
 6560  00011928  00      	
 6561  00011929          	.align 2
 6562  0001192c          	LC25_LF6:
 6563  0001192c  53657474	.ascii "Setting up PCB @ 0x%x (sys stack=0x%x, mem=0x%x, size=0x%x)\n\000"
 6563  00011930  696e6720	
 6563  00011934  75702050	
 6563  00011938  43422040	
 6563  0001193c  20307825	
 6563  00011940  78202873	
 6563  00011944  79732073	
 6563  00011948  7461636b	
 6563  0001194c  3d307825	
 6563  00011950  782c206d	
 6563  00011954  656d3d30	
 6563  00011958  7825782c	
 6563  0001195c  2073697a	
 6563  00011960  653d3078	
 6563  00011964  2578290a	
 6563  00011968  00      	
 6564  00011969          	.align 2
 6565  0001196c          	LC26_LF6:
 6566  0001196c  41626f75	.ascii "About to load %s\n\000"
 6566  00011970  7420746f	
 6566  00011974  206c6f61	
 6566  00011978  64202573	
 6566  0001197c  0a00    	
 6567  0001197e          	.align 2
 6568  00011980          	LC27_LF6:
 6569  00011980  46696c65	.ascii "File %s -> start=0x%08x\n\000"
 6569  00011984  20257320	
 6569  00011988  2d3e2073	
 6569  0001198c  74617274	
 6569  00011990  3d307825	
 6569  00011994  3038780a	
 6569  00011998  00      	
 6570  00011999          	.align 2
 6571  0001199c          	LC28_LF6:
 6572  0001199c  46696c65	.ascii "File %s -> code @ 0x%08x (size=0x%08x)\n\000"
 6572  000119a0  20257320	
 6572  000119a4  2d3e2063	
 6572  000119a8  6f646520	
 6572  000119ac  40203078	
 6572  000119b0  25303878	
 6572  000119b4  20287369	
 6572  000119b8  7a653d30	
 6572  000119bc  78253038	
 6572  000119c0  78290a00	
 6573  000119c4          	.align 2
 6574  000119c4          	LC29_LF6:
 6575  000119c4  46696c65	.ascii "File %s -> data @ 0x%08x (size=0x%08x)\n\000"
 6575  000119c8  20257320	
 6575  000119cc  2d3e2064	
 6575  000119d0  61746120	
 6575  000119d4  40203078	
 6575  000119d8  25303878	
 6575  000119dc  20287369	
 6575  000119e0  7a653d30	
 6575  000119e4  78253038	
 6575  000119e8  78290a00	
 6576  000119ec          	.align 2
 6577  000119ec          	LC30_LF6:
 6578  000119ec  506c6163	.ascii "Placing %d bytes at vaddr %08x.\n\000"
 6578  000119f0  696e6720	
 6578  000119f4  25642062	
 6578  000119f8  79746573	
 6578  000119fc  20617420	
 6578  00011a00  76616464	
 6578  00011a04  72202530	
 6578  00011a08  38782e0a	
 6578  00011a0c  00      	
 6579  00011a0d          	.align 2
 6580  00011a10          	LC31_LF6:
 6581  00011a10  53657474	.ascii "Setting currentPCB=0x%x, stackframe=0x%x\n\000"
 6581  00011a14  696e6720	
 6581  00011a18  63757272	
 6581  00011a1c  656e7450	
 6581  00011a20  43423d30	
 6581  00011a24  7825782c	
 6581  00011a28  20737461	
 6581  00011a2c  636b6672	
 6581  00011a30  616d653d	
 6581  00011a34  30782578	
 6581  00011a38  0a00    	
 6582  00011a3a          	.align 2
 6583  00011a3c          	LC32_LF6:
 6584  00011a3c  4c656176	.ascii "Leaving ProcessFork (%s)\n\000"
 6584  00011a40  696e6720	
 6584  00011a44  50726f63	
 6584  00011a48  65737346	
 6584  00011a4c  6f726b20	
 6584  00011a50  28257329	
 6584  00011a54  0a00    	
 6585  00011a56          	.text
 6586  00006120          	.align 2
 6587  00006120          	.proc _ProcessFork
 6588  00006120          	.global _ProcessFork
 6589  00006120          	_ProcessFork:
 6590                      ;  Function 'ProcessFork'; 672 bytes of locals, 11 regs to save.
 6591  00006120  afbefffc	sw	-4(r29),r30; push fp
 6592  00006124  001df020	add	r30,r0,r29; fp = sp
 6593  00006128  afbffff8	sw	-8(r29),r31; push ret addr
 6594  0000612c  2fbd02d8	subui	r29,r29,#728; alloc local storage
 6595  00006130  afa20000	sw	0(r29),r2
 6596  00006134  afa30004	sw	4(r29),r3
 6597  00006138  afa40008	sw	8(r29),r4
 6598  0000613c  afa5000c	sw	12(r29),r5
 6599  00006140  afa60010	sw	16(r29),r6
 6600  00006144  afa70014	sw	20(r29),r7
 6601  00006148  afa80018	sw	24(r29),r8
 6602  0000614c  afa9001c	sw	28(r29),r9
 6603  00006150  afaa0020	sw	32(r29),r10
 6604  00006154  afab0024	sw	36(r29),r11
 6605  00006158  afac0028	sw	40(r29),r12
 6606  0000615c  8fc70000	lw	r7,(r30)
 6607  00006160  8fcb0004	lw	r11,4(r30)
 6608  00006164  8fca0008	lw	r10,8(r30)
 6609  00006168  8fc4000c	lw	r4,12(r30)
 6610  0000616c  200c0000	addi	r12,r0,#0
 6611  00006170  afccfd58	sw	-680(r30),r12
 6612  00006174  23bdfff8	addi	r29,r29,#-8
 6613  00006178  200c000f	addi	r12,r0,#15
 6614  0000617c  afac0000	sw	(r29),r12
 6615  00006180  0fffb104	jal	_SetIntrs
 6616  00006184  54000000	nop; not filled.
 6617  00006188  00011820	add	r3,r0,r1
 6618  0000618c  23bd0008	addi	r29,r29,#8
 6619  00006190  23bdfff8	addi	r29,r29,#-8
 6620  00006194  3c020001	lhi	r2,((_debugstr)>>16)&0xffff
 6621  00006198  24421f50	addui	r2,r2,(_debugstr)&0xffff
 6622  0000619c  afa20000	sw	(r29),r2
 6623  000061a0  200c0049	addi	r12,r0,#73
 6624  000061a4  afac0004	sw	4(r29),r12
 6625  000061a8  0fffe88c	jal	_dindex
 6626  000061ac  54000000	nop; not filled.
 6627  000061b0  23bd0008	addi	r29,r29,#8
 6628  000061b4  64210000	snei	r1,r1,#0
 6629  000061b8  1420002c	bnez	r1,L181_LF6
 6630  000061bc  54000000	nop; not filled.
 6631  000061c0  23bdfff8	addi	r29,r29,#-8
 6632  000061c4  afa20000	sw	(r29),r2
 6633  000061c8  200c002b	addi	r12,r0,#43
 6634  000061cc  afac0004	sw	4(r29),r12
 6635  000061d0  0fffe864	jal	_dindex
 6636  000061d4  54000000	nop; not filled.
 6637  000061d8  23bd0008	addi	r29,r29,#8
 6638  000061dc  64210000	snei	r1,r1,#0
 6639  000061e0  10200024	beqz	r1,L180_LF6
 6640  000061e4  54000000	nop; not filled.
 6641  000061e8          	L181_LF6:
 6642  000061e8  23bdfff8	addi	r29,r29,#-8
 6643  000061ec  3c0c0001	lhi	r12,((LC17_LF6)>>16)&0xffff
 6644  000061f0  258c17ec	addui	r12,r12,(LC17_LF6)&0xffff
 6645  000061f4  afac0000	sw	(r29),r12
 6646  000061f8  afa30004	sw	4(r29),r3
 6647  000061fc  0c00678c	jal	_printf
 6648  00006200  54000000	nop; not filled.
 6649  00006204  23bd0008	addi	r29,r29,#8
 6650  00006208          	L180_LF6:
 6651  00006208  23bdfff8	addi	r29,r29,#-8
 6652  0000620c  3c020001	lhi	r2,((_debugstr)>>16)&0xffff
 6653  00006210  24421f50	addui	r2,r2,(_debugstr)&0xffff
 6654  00006214  afa20000	sw	(r29),r2
 6655  00006218  200c0070	addi	r12,r0,#112
 6656  0000621c  afac0004	sw	4(r29),r12
 6657  00006220  0fffe814	jal	_dindex
 6658  00006224  54000000	nop; not filled.
 6659  00006228  23bd0008	addi	r29,r29,#8
 6660  0000622c  64210000	snei	r1,r1,#0
 6661  00006230  1420002c	bnez	r1,L183_LF6
 6662  00006234  54000000	nop; not filled.
 6663  00006238  23bdfff8	addi	r29,r29,#-8
 6664  0000623c  afa20000	sw	(r29),r2
 6665  00006240  200c002b	addi	r12,r0,#43
 6666  00006244  afac0004	sw	4(r29),r12
 6667  00006248  0fffe7ec	jal	_dindex
 6668  0000624c  54000000	nop; not filled.
 6669  00006250  23bd0008	addi	r29,r29,#8
 6670  00006254  64210000	snei	r1,r1,#0
 6671  00006258  10200030	beqz	r1,L182_LF6
 6672  0000625c  54000000	nop; not filled.
 6673  00006260          	L183_LF6:
 6674  00006260  23bdffe8	addi	r29,r29,#-24
 6675  00006264  3c0c0001	lhi	r12,((LC18_LF6)>>16)&0xffff
 6676  00006268  258c180c	addui	r12,r12,(LC18_LF6)&0xffff
 6677  0000626c  afac0000	sw	(r29),r12
 6678  00006270  afa70004	sw	4(r29),r7
 6679  00006274  afab0008	sw	8(r29),r11
 6680  00006278  afaa000c	sw	12(r29),r10
 6681  0000627c  afa40010	sw	16(r29),r4
 6682  00006280  0c006708	jal	_printf
 6683  00006284  54000000	nop; not filled.
 6684  00006288  23bd0018	addi	r29,r29,#24
 6685  0000628c          	L182_LF6:
 6686  0000628c  3c020001	lhi	r2,((_freepcbs_LF6)>>16)&0xffff
 6687  00006290  2442201c	addui	r2,r2,(_freepcbs_LF6)&0xffff
 6688  00006294  8c410008	lw	r1,8(r2)
 6689  00006298  60210000	seqi	r1,r1,#0
 6690  0000629c  10200028	beqz	r1,L184_LF6
 6691  000062a0  54000000	nop; not filled.
 6692  000062a4  23bdfff8	addi	r29,r29,#-8
 6693  000062a8  3c0c0001	lhi	r12,((LC19_LF6)>>16)&0xffff
 6694  000062ac  258c1838	addui	r12,r12,(LC19_LF6)&0xffff
 6695  000062b0  afac0000	sw	(r29),r12
 6696  000062b4  0c0066d4	jal	_printf
 6697  000062b8  54000000	nop; not filled.
 6698  000062bc  0c0066b4	jal	_exitsim
 6699  000062c0  54000000	nop; not filled.
 6700  000062c4  23bd0008	addi	r29,r29,#8
 6701  000062c8          	L184_LF6:
 6702  000062c8  8c480000	lw	r8,(r2)
 6703  000062cc  23bdfff8	addi	r29,r29,#-8
 6704  000062d0  3c020001	lhi	r2,((_debugstr)>>16)&0xffff
 6705  000062d4  24421f50	addui	r2,r2,(_debugstr)&0xffff
 6706  000062d8  afa20000	sw	(r29),r2
 6707  000062dc  200c0070	addi	r12,r0,#112
 6708  000062e0  afac0004	sw	4(r29),r12
 6709  000062e4  0fffe750	jal	_dindex
 6710  000062e8  54000000	nop; not filled.
 6711  000062ec  23bd0008	addi	r29,r29,#8
 6712  000062f0  64210000	snei	r1,r1,#0
 6713  000062f4  1420002c	bnez	r1,L189_LF6
 6714  000062f8  54000000	nop; not filled.
 6715  000062fc  23bdfff8	addi	r29,r29,#-8
 6716  00006300  afa20000	sw	(r29),r2
 6717  00006304  200c002b	addi	r12,r0,#43
 6718  00006308  afac0004	sw	4(r29),r12
 6719  0000630c  0fffe728	jal	_dindex
 6720  00006310  54000000	nop; not filled.
 6721  00006314  23bd0008	addi	r29,r29,#8
 6722  00006318  64210000	snei	r1,r1,#0
 6723  0000631c  10200024	beqz	r1,L188_LF6
 6724  00006320  54000000	nop; not filled.
 6725  00006324          	L189_LF6:
 6726  00006324  23bdfff8	addi	r29,r29,#-8
 6727  00006328  3c0c0001	lhi	r12,((LC20_LF6)>>16)&0xffff
 6728  0000632c  258c185c	addui	r12,r12,(LC20_LF6)&0xffff
 6729  00006330  afac0000	sw	(r29),r12
 6730  00006334  afa80004	sw	4(r29),r8
 6731  00006338  0c006650	jal	_printf
 6732  0000633c  54000000	nop; not filled.
 6733  00006340  23bd0008	addi	r29,r29,#8
 6734  00006344          	L188_LF6:
 6735  00006344  8d010008	lw	r1,8(r8)
 6736  00006348  8c210008	lw	r1,8(r1)
 6737  0000634c  6c210000	sgti	r1,r1,#0
 6738  00006350  1020002c	beqz	r1,L191_LF6
 6739  00006354  54000000	nop; not filled.
 6740  00006358  8d010004	lw	r1,4(r8)
 6741  0000635c  8d0c0000	lw	r12,(r8)
 6742  00006360  ac2c0000	sw	(r1),r12
 6743  00006364  8d010000	lw	r1,(r8)
 6744  00006368  8d0c0004	lw	r12,4(r8)
 6745  0000636c  ac2c0004	sw	4(r1),r12
 6746  00006370  8d020008	lw	r2,8(r8)
 6747  00006374  8c410008	lw	r1,8(r2)
 6748  00006378  2021ffff	addi	r1,r1,#-1
 6749  0000637c  ac410008	sw	8(r2),r1
 6750  00006380          	L191_LF6:
 6751  00006380  200c0000	addi	r12,r0,#0
 6752  00006384  ad0c0000	sw	(r8),r12
 6753  00006388  8d05000c	lw	r5,12(r8)
 6754  0000638c  8ca1000c	lw	r1,12(r5)
 6755  00006390  200cffc0	addi	r12,r0,#-64
 6756  00006394  002c0824	and	r1,r1,r12
 6757  00006398  34210002	ori	r1,r1,#2
 6758  0000639c  aca1000c	sw	12(r5),r1
 6759  000063a0  23bdfff8	addi	r29,r29,#-8
 6760  000063a4  3c020001	lhi	r2,((_debugstr)>>16)&0xffff
 6761  000063a8  24421f50	addui	r2,r2,(_debugstr)&0xffff
 6762  000063ac  afa20000	sw	(r29),r2
 6763  000063b0  200c0049	addi	r12,r0,#73
 6764  000063b4  afac0004	sw	4(r29),r12
 6765  000063b8  0fffe67c	jal	_dindex
 6766  000063bc  54000000	nop; not filled.
 6767  000063c0  23bd0008	addi	r29,r29,#8
 6768  000063c4  64210000	snei	r1,r1,#0
 6769  000063c8  1420002c	bnez	r1,L194_LF6
 6770  000063cc  54000000	nop; not filled.
 6771  000063d0  23bdfff8	addi	r29,r29,#-8
 6772  000063d4  afa20000	sw	(r29),r2
 6773  000063d8  200c002b	addi	r12,r0,#43
 6774  000063dc  afac0004	sw	4(r29),r12
 6775  000063e0  0fffe654	jal	_dindex
 6776  000063e4  54000000	nop; not filled.
 6777  000063e8  23bd0008	addi	r29,r29,#8
 6778  000063ec  64210000	snei	r1,r1,#0
 6779  000063f0  1020002c	beqz	r1,L193_LF6
 6780  000063f4  54000000	nop; not filled.
 6781  000063f8          	L194_LF6:
 6782  000063f8  0fffaec8	jal	_CurrentIntrs
 6783  000063fc  54000000	nop; not filled.
 6784  00006400  23bdfff8	addi	r29,r29,#-8
 6785  00006404  3c0c0001	lhi	r12,((LC21_LF6)>>16)&0xffff
 6786  00006408  258c1870	addui	r12,r12,(LC21_LF6)&0xffff
 6787  0000640c  afac0000	sw	(r29),r12
 6788  00006410  afa10004	sw	4(r29),r1
 6789  00006414  0c006574	jal	_printf
 6790  00006418  54000000	nop; not filled.
 6791  0000641c  23bd0008	addi	r29,r29,#8
 6792  00006420          	L193_LF6:
 6793  00006420  23bdfff8	addi	r29,r29,#-8
 6794  00006424  afa30000	sw	(r29),r3
 6795  00006428  0fffae5c	jal	_SetIntrs
 6796  0000642c  54000000	nop; not filled.
 6797  00006430  23bd0008	addi	r29,r29,#8
 6798  00006434  23bdfff8	addi	r29,r29,#-8
 6799  00006438  3c020001	lhi	r2,((_debugstr)>>16)&0xffff
 6800  0000643c  24421f50	addui	r2,r2,(_debugstr)&0xffff
 6801  00006440  afa20000	sw	(r29),r2
 6802  00006444  200c0049	addi	r12,r0,#73
 6803  00006448  afac0004	sw	4(r29),r12
 6804  0000644c  0fffe5e8	jal	_dindex
 6805  00006450  54000000	nop; not filled.
 6806  00006454  23bd0008	addi	r29,r29,#8
 6807  00006458  64210000	snei	r1,r1,#0
 6808  0000645c  1420002c	bnez	r1,L197_LF6
 6809  00006460  54000000	nop; not filled.
 6810  00006464  23bdfff8	addi	r29,r29,#-8
 6811  00006468  afa20000	sw	(r29),r2
 6812  0000646c  200c002b	addi	r12,r0,#43
 6813  00006470  afac0004	sw	4(r29),r12
 6814  00006474  0fffe5c0	jal	_dindex
 6815  00006478  54000000	nop; not filled.
 6816  0000647c  23bd0008	addi	r29,r29,#8
 6817  00006480  64210000	snei	r1,r1,#0
 6818  00006484  1020002c	beqz	r1,L196_LF6
 6819  00006488  54000000	nop; not filled.
 6820  0000648c          	L197_LF6:
 6821  0000648c  0fffae34	jal	_CurrentIntrs
 6822  00006490  54000000	nop; not filled.
 6823  00006494  23bdfff8	addi	r29,r29,#-8
 6824  00006498  3c0c0001	lhi	r12,((LC22_LF6)>>16)&0xffff
 6825  0000649c  258c189c	addui	r12,r12,(LC22_LF6)&0xffff
 6826  000064a0  afac0000	sw	(r29),r12
 6827  000064a4  afa10004	sw	4(r29),r1
 6828  000064a8  0c0064e0	jal	_printf
 6829  000064ac  54000000	nop; not filled.
 6830  000064b0  23bd0008	addi	r29,r29,#8
 6831  000064b4          	L196_LF6:
 6832  000064b4  23bdfff8	addi	r29,r29,#-8
 6833  000064b8  20a10010	addi	r1,r5,#16
 6834  000064bc  afa10000	sw	(r29),r1
 6835  000064c0  afaa0004	sw	4(r29),r10
 6836  000064c4  0fffe0b0	jal	_dstrcpy
 6837  000064c8  54000000	nop; not filled.
 6838  000064cc  200c0001	addi	r12,r0,#1
 6839  000064d0  acac00a0	sw	160(r5),r12
 6840  000064d4  0fffd674	jal	_MemoryAllocPage
 6841  000064d8  54000000	nop; not filled.
 6842  000064dc  00011020	add	r2,r0,r1
 6843  000064e0  23bd0008	addi	r29,r29,#8
 6844  000064e4  64410000	snei	r1,r2,#0
 6845  000064e8  14200028	bnez	r1,L198_LF6
 6846  000064ec  54000000	nop; not filled.
 6847  000064f0  23bdfff8	addi	r29,r29,#-8
 6848  000064f4  3c0c0001	lhi	r12,((LC23_LF6)>>16)&0xffff
 6849  000064f8  258c18bc	addui	r12,r12,(LC23_LF6)&0xffff
 6850  000064fc  afac0000	sw	(r29),r12
 6851  00006500  0c006488	jal	_printf
 6852  00006504  54000000	nop; not filled.
 6853  00006508  0c006468	jal	_exitsim
 6854  0000650c  54000000	nop; not filled.
 6855  00006510  23bd0008	addi	r29,r29,#8
 6856  00006514          	L198_LF6:
 6857  00006514  23bdfff8	addi	r29,r29,#-8
 6858  00006518  afa20000	sw	(r29),r2
 6859  0000651c  0fffdd90	jal	_MemorySetupPte
 6860  00006520  54000000	nop; not filled.
 6861  00006524  aca10060	sw	96(r5),r1
 6862  00006528  0fffd620	jal	_MemoryAllocPage
 6863  0000652c  54000000	nop; not filled.
 6864  00006530  00011020	add	r2,r0,r1
 6865  00006534  23bd0008	addi	r29,r29,#8
 6866  00006538  64410000	snei	r1,r2,#0
 6867  0000653c  14200028	bnez	r1,L199_LF6
 6868  00006540  54000000	nop; not filled.
 6869  00006544  23bdfff8	addi	r29,r29,#-8
 6870  00006548  3c0c0001	lhi	r12,((LC24_LF6)>>16)&0xffff
 6871  0000654c  258c18f0	addui	r12,r12,(LC24_LF6)&0xffff
 6872  00006550  afac0000	sw	(r29),r12
 6873  00006554  0c006434	jal	_printf
 6874  00006558  54000000	nop; not filled.
 6875  0000655c  0c006414	jal	_exitsim
 6876  00006560  54000000	nop; not filled.
 6877  00006564  23bd0008	addi	r29,r29,#8
 6878  00006568          	L199_LF6:
 6879  00006568  50410010	slli	r1,r2,#0x10
 6880  0000656c  aca10008	sw	8(r5),r1
 6881  00006570  3426fe8c	ori	r6,r1,#65164
 6882  00006574  aca60004	sw	4(r5),r6
 6883  00006578  aca60000	sw	(r5),r6
 6884  0000657c  23bdfff8	addi	r29,r29,#-8
 6885  00006580  3c020001	lhi	r2,((_debugstr)>>16)&0xffff
 6886  00006584  24421f50	addui	r2,r2,(_debugstr)&0xffff
 6887  00006588  afa20000	sw	(r29),r2
 6888  0000658c  200c0070	addi	r12,r0,#112
 6889  00006590  afac0004	sw	4(r29),r12
 6890  00006594  0fffe4a0	jal	_dindex
 6891  00006598  54000000	nop; not filled.
 6892  0000659c  23bd0008	addi	r29,r29,#8
 6893  000065a0  64210000	snei	r1,r1,#0
 6894  000065a4  1420002c	bnez	r1,L201_LF6
 6895  000065a8  54000000	nop; not filled.
 6896  000065ac  23bdfff8	addi	r29,r29,#-8
 6897  000065b0  afa20000	sw	(r29),r2
 6898  000065b4  200c002b	addi	r12,r0,#43
 6899  000065b8  afac0004	sw	4(r29),r12
 6900  000065bc  0fffe478	jal	_dindex
 6901  000065c0  54000000	nop; not filled.
 6902  000065c4  23bd0008	addi	r29,r29,#8
 6903  000065c8  64210000	snei	r1,r1,#0
 6904  000065cc  10200040	beqz	r1,L200_LF6
 6905  000065d0  54000000	nop; not filled.
 6906  000065d4          	L201_LF6:
 6907  000065d4  23bdffe8	addi	r29,r29,#-24
 6908  000065d8  3c0c0001	lhi	r12,((LC25_LF6)>>16)&0xffff
 6909  000065dc  258c192c	addui	r12,r12,(LC25_LF6)&0xffff
 6910  000065e0  afac0000	sw	(r29),r12
 6911  000065e4  afa50004	sw	4(r29),r5
 6912  000065e8  8cac0008	lw	r12,8(r5)
 6913  000065ec  afac0008	sw	8(r29),r12
 6914  000065f0  8cac0060	lw	r12,96(r5)
 6915  000065f4  afac000c	sw	12(r29),r12
 6916  000065f8  8ca100a0	lw	r1,160(r5)
 6917  000065fc  50210010	slli	r1,r1,#0x10
 6918  00006600  afa10010	sw	16(r29),r1
 6919  00006604  0c006384	jal	_printf
 6920  00006608  54000000	nop; not filled.
 6921  0000660c  23bd0018	addi	r29,r29,#24
 6922  00006610          	L200_LF6:
 6923  00006610  200c0000	addi	r12,r0,#0
 6924  00006614  accc0028	sw	40(r6),r12
 6925  00006618  20a10060	addi	r1,r5,#96
 6926  0000661c  acc10138	sw	312(r6),r1
 6927  00006620  8cac00a0	lw	r12,160(r5)
 6928  00006624  accc013c	sw	316(r6),r12
 6929  00006628  3c010010	lhi	r1,#16
 6930  0000662c  24210010	addui	r1,r1,#16
 6931  00006630  acc10140	sw	320(r6),r1
 6932  00006634  64810000	snei	r1,r4,#0
 6933  00006638  10200550	beqz	r1,L202_LF6
 6934  0000663c  54000000	nop; not filled.
 6935  00006640  23bdfff8	addi	r29,r29,#-8
 6936  00006644  3c020001	lhi	r2,((_debugstr)>>16)&0xffff
 6937  00006648  24421f50	addui	r2,r2,(_debugstr)&0xffff
 6938  0000664c  afa20000	sw	(r29),r2
 6939  00006650  200c0070	addi	r12,r0,#112
 6940  00006654  afac0004	sw	4(r29),r12
 6941  00006658  0fffe3dc	jal	_dindex
 6942  0000665c  54000000	nop; not filled.
 6943  00006660  23bd0008	addi	r29,r29,#8
 6944  00006664  64210000	snei	r1,r1,#0
 6945  00006668  1420002c	bnez	r1,L204_LF6
 6946  0000666c  54000000	nop; not filled.
 6947  00006670  23bdfff8	addi	r29,r29,#-8
 6948  00006674  afa20000	sw	(r29),r2
 6949  00006678  200c002b	addi	r12,r0,#43
 6950  0000667c  afac0004	sw	4(r29),r12
 6951  00006680  0fffe3b4	jal	_dindex
 6952  00006684  54000000	nop; not filled.
 6953  00006688  23bd0008	addi	r29,r29,#8
 6954  0000668c  64210000	snei	r1,r1,#0
 6955  00006690  10200024	beqz	r1,L203_LF6
 6956  00006694  54000000	nop; not filled.
 6957  00006698          	L204_LF6:
 6958  00006698  23bdfff8	addi	r29,r29,#-8
 6959  0000669c  3c0c0001	lhi	r12,((LC26_LF6)>>16)&0xffff
 6960  000066a0  258c196c	addui	r12,r12,(LC26_LF6)&0xffff
 6961  000066a4  afac0000	sw	(r29),r12
 6962  000066a8  afaa0004	sw	4(r29),r10
 6963  000066ac  0c0062dc	jal	_printf
 6964  000066b0  54000000	nop; not filled.
 6965  000066b4  23bd0008	addi	r29,r29,#8
 6966  000066b8          	L203_LF6:
 6967  000066b8  23bdffe8	addi	r29,r29,#-24
 6968  000066bc  afaa0000	sw	(r29),r10
 6969  000066c0  23c1fd6c	addi	r1,r30,#-660
 6970  000066c4  afa10004	sw	4(r29),r1
 6971  000066c8  23c1fd68	addi	r1,r30,#-664
 6972  000066cc  afa10008	sw	8(r29),r1
 6973  000066d0  23c1fd64	addi	r1,r30,#-668
 6974  000066d4  afa1000c	sw	12(r29),r1
 6975  000066d8  23c1fd60	addi	r1,r30,#-672
 6976  000066dc  afa10010	sw	16(r29),r1
 6977  000066e0  23c1fd5c	addi	r1,r30,#-676
 6978  000066e4  afa10014	sw	20(r29),r1
 6979  000066e8  0c0006b8	jal	_ProcessGetCodeInfo
 6980  000066ec  54000000	nop; not filled.
 6981  000066f0  00013820	add	r7,r0,r1
 6982  000066f4  23bd0018	addi	r29,r29,#24
 6983  000066f8  68e10000	slti	r1,r7,#0
 6984  000066fc  102000f8	beqz	r1,L205_LF6
 6985  00006700  54000000	nop; not filled.
 6986  00006704  3c030001	lhi	r3,((_freepcbs_LF6)>>16)&0xffff
 6987  00006708  2463201c	addui	r3,r3,(_freepcbs_LF6)&0xffff
 6988  0000670c  20a200a4	addi	r2,r5,#164
 6989  00006710  8c610004	lw	r1,4(r3)
 6990  00006714  aca300ac	sw	172(r5),r3
 6991  00006718  aca100a8	sw	168(r5),r1
 6992  0000671c  8c2c0000	lw	r12,(r1)
 6993  00006720  ac4c0000	sw	(r2),r12
 6994  00006724  ac220000	sw	(r1),r2
 6995  00006728  8c410000	lw	r1,(r2)
 6996  0000672c  ac220004	sw	4(r1),r2
 6997  00006730  8c610008	lw	r1,8(r3)
 6998  00006734  20210001	addi	r1,r1,#1
 6999  00006738  ac610008	sw	8(r3),r1
 7000  0000673c  8ca300a0	lw	r3,160(r5)
 7001  00006740  20020000	addi	r2,r0,#0
 7002  00006744  0043082a	slt	r1,r2,r3
 7003  00006748  10200030	beqz	r1,L248_LF6
 7004  0000674c  54000000	nop; not filled.
 7005  00006750          	L213_LF6:
 7006  00006750  23bdfff8	addi	r29,r29,#-8
 7007  00006754  afa50000	sw	(r29),r5
 7008  00006758  afa20004	sw	4(r29),r2
 7009  0000675c  0fffb588	jal	_MemoryFreeSharedPte
 7010  00006760  54000000	nop; not filled.
 7011  00006764  23bd0008	addi	r29,r29,#8
 7012  00006768  20420001	addi	r2,r2,#1
 7013  0000676c  0043082a	slt	r1,r2,r3
 7014  00006770  1420ffdc	bnez	r1,L213_LF6
 7015  00006774  54000000	nop; not filled.
 7016  00006778  20020000	addi	r2,r0,#0
 7017  0000677c          	L248_LF6:
 7018  0000677c  8ca100a0	lw	r1,160(r5)
 7019  00006780  0041082a	slt	r1,r2,r1
 7020  00006784  10200038	beqz	r1,L216_LF6
 7021  00006788  54000000	nop; not filled.
 7022  0000678c  00051820	add	r3,r0,r5
 7023  00006790          	L218_LF6:
 7024  00006790  23bdfff8	addi	r29,r29,#-8
 7025  00006794  8c6c0060	lw	r12,96(r3)
 7026  00006798  afac0000	sw	(r29),r12
 7027  0000679c  0fffdb40	jal	_MemoryFreePte
 7028  000067a0  54000000	nop; not filled.
 7029  000067a4  23bd0008	addi	r29,r29,#8
 7030  000067a8  20630004	addi	r3,r3,#4
 7031  000067ac  20420001	addi	r2,r2,#1
 7032  000067b0  8ca100a0	lw	r1,160(r5)
 7033  000067b4  0041082a	slt	r1,r2,r1
 7034  000067b8  1420ffd4	bnez	r1,L218_LF6
 7035  000067bc  54000000	nop; not filled.
 7036  000067c0          	L216_LF6:
 7037  000067c0  23bdfff8	addi	r29,r29,#-8
 7038  000067c4  94a10008	lhu	r1,8(r5)
 7039  000067c8  afa10000	sw	(r29),r1
 7040  000067cc  0fffd644	jal	_MemoryFreePage
 7041  000067d0  54000000	nop; not filled.
 7042  000067d4  23bd0008	addi	r29,r29,#8
 7043  000067d8  8ca1000c	lw	r1,12(r5)
 7044  000067dc  200cffc0	addi	r12,r0,#-64
 7045  000067e0  002c0824	and	r1,r1,r12
 7046  000067e4  34210001	ori	r1,r1,#1
 7047  000067e8  aca1000c	sw	12(r5),r1
 7048  000067ec  2001ffff	addi	r1,r0,#-1
 7049  000067f0  08000570	j	L247_LF6
 7050  000067f4  54000000	nop; not filled.
 7051  000067f8          	L205_LF6:
 7052  000067f8  23bdfff8	addi	r29,r29,#-8
 7053  000067fc  3c020001	lhi	r2,((_debugstr)>>16)&0xffff
 7054  00006800  24421f50	addui	r2,r2,(_debugstr)&0xffff
 7055  00006804  afa20000	sw	(r29),r2
 7056  00006808  200c0070	addi	r12,r0,#112
 7057  0000680c  afac0004	sw	4(r29),r12
 7058  00006810  0fffe224	jal	_dindex
 7059  00006814  54000000	nop; not filled.
 7060  00006818  23bd0008	addi	r29,r29,#8
 7061  0000681c  64210000	snei	r1,r1,#0
 7062  00006820  1420002c	bnez	r1,L222_LF6
 7063  00006824  54000000	nop; not filled.
 7064  00006828  23bdfff8	addi	r29,r29,#-8
 7065  0000682c  afa20000	sw	(r29),r2
 7066  00006830  200c002b	addi	r12,r0,#43
 7067  00006834  afac0004	sw	4(r29),r12
 7068  00006838  0fffe1fc	jal	_dindex
 7069  0000683c  54000000	nop; not filled.
 7070  00006840  23bd0008	addi	r29,r29,#8
 7071  00006844  64210000	snei	r1,r1,#0
 7072  00006848  1020002c	beqz	r1,L221_LF6
 7073  0000684c  54000000	nop; not filled.
 7074  00006850          	L222_LF6:
 7075  00006850  23bdfff0	addi	r29,r29,#-16
 7076  00006854  3c0c0001	lhi	r12,((LC27_LF6)>>16)&0xffff
 7077  00006858  258c1980	addui	r12,r12,(LC27_LF6)&0xffff
 7078  0000685c  afac0000	sw	(r29),r12
 7079  00006860  afaa0004	sw	4(r29),r10
 7080  00006864  8fccfd6c	lw	r12,-660(r30)
 7081  00006868  afac0008	sw	8(r29),r12
 7082  0000686c  0c00611c	jal	_printf
 7083  00006870  54000000	nop; not filled.
 7084  00006874  23bd0010	addi	r29,r29,#16
 7085  00006878          	L221_LF6:
 7086  00006878  23bdfff8	addi	r29,r29,#-8
 7087  0000687c  3c020001	lhi	r2,((_debugstr)>>16)&0xffff
 7088  00006880  24421f50	addui	r2,r2,(_debugstr)&0xffff
 7089  00006884  afa20000	sw	(r29),r2
 7090  00006888  200c0070	addi	r12,r0,#112
 7091  0000688c  afac0004	sw	4(r29),r12
 7092  00006890  0fffe1a4	jal	_dindex
 7093  00006894  54000000	nop; not filled.
 7094  00006898  23bd0008	addi	r29,r29,#8
 7095  0000689c  64210000	snei	r1,r1,#0
 7096  000068a0  1420002c	bnez	r1,L224_LF6
 7097  000068a4  54000000	nop; not filled.
 7098  000068a8  23bdfff8	addi	r29,r29,#-8
 7099  000068ac  afa20000	sw	(r29),r2
 7100  000068b0  200c002b	addi	r12,r0,#43
 7101  000068b4  afac0004	sw	4(r29),r12
 7102  000068b8  0fffe17c	jal	_dindex
 7103  000068bc  54000000	nop; not filled.
 7104  000068c0  23bd0008	addi	r29,r29,#8
 7105  000068c4  64210000	snei	r1,r1,#0
 7106  000068c8  10200034	beqz	r1,L223_LF6
 7107  000068cc  54000000	nop; not filled.
 7108  000068d0          	L224_LF6:
 7109  000068d0  23bdfff0	addi	r29,r29,#-16
 7110  000068d4  3c0c0001	lhi	r12,((LC28_LF6)>>16)&0xffff
 7111  000068d8  258c199c	addui	r12,r12,(LC28_LF6)&0xffff
 7112  000068dc  afac0000	sw	(r29),r12
 7113  000068e0  afaa0004	sw	4(r29),r10
 7114  000068e4  8fccfd68	lw	r12,-664(r30)
 7115  000068e8  afac0008	sw	8(r29),r12
 7116  000068ec  8fccfd64	lw	r12,-668(r30)
 7117  000068f0  afac000c	sw	12(r29),r12
 7118  000068f4  0c006094	jal	_printf
 7119  000068f8  54000000	nop; not filled.
 7120  000068fc  23bd0010	addi	r29,r29,#16
 7121  00006900          	L223_LF6:
 7122  00006900  23bdfff8	addi	r29,r29,#-8
 7123  00006904  3c020001	lhi	r2,((_debugstr)>>16)&0xffff
 7124  00006908  24421f50	addui	r2,r2,(_debugstr)&0xffff
 7125  0000690c  afa20000	sw	(r29),r2
 7126  00006910  200c0070	addi	r12,r0,#112
 7127  00006914  afac0004	sw	4(r29),r12
 7128  00006918  0fffe11c	jal	_dindex
 7129  0000691c  54000000	nop; not filled.
 7130  00006920  23bd0008	addi	r29,r29,#8
 7131  00006924  64210000	snei	r1,r1,#0
 7132  00006928  1420002c	bnez	r1,L226_LF6
 7133  0000692c  54000000	nop; not filled.
 7134  00006930  23bdfff8	addi	r29,r29,#-8
 7135  00006934  afa20000	sw	(r29),r2
 7136  00006938  200c002b	addi	r12,r0,#43
 7137  0000693c  afac0004	sw	4(r29),r12
 7138  00006940  0fffe0f4	jal	_dindex
 7139  00006944  54000000	nop; not filled.
 7140  00006948  23bd0008	addi	r29,r29,#8
 7141  0000694c  64210000	snei	r1,r1,#0
 7142  00006950  10200034	beqz	r1,L225_LF6
 7143  00006954  54000000	nop; not filled.
 7144  00006958          	L226_LF6:
 7145  00006958  23bdfff0	addi	r29,r29,#-16
 7146  0000695c  3c0c0001	lhi	r12,((LC29_LF6)>>16)&0xffff
 7147  00006960  258c19c4	addui	r12,r12,(LC29_LF6)&0xffff
 7148  00006964  afac0000	sw	(r29),r12
 7149  00006968  afaa0004	sw	4(r29),r10
 7150  0000696c  8fccfd60	lw	r12,-672(r30)
 7151  00006970  afac0008	sw	8(r29),r12
 7152  00006974  8fccfd5c	lw	r12,-676(r30)
 7153  00006978  afac000c	sw	12(r29),r12
 7154  0000697c  0c00600c	jal	_printf
 7155  00006980  54000000	nop; not filled.
 7156  00006984  23bd0010	addi	r29,r29,#16
 7157  00006988          	L225_LF6:
 7158  00006988  23c3ff90	addi	r3,r30,#-112
 7159  0000698c  23c9fd58	addi	r9,r30,#-680
 7160  00006990  3c040001	lhi	r4,((_debugstr)>>16)&0xffff
 7161  00006994  24841f50	addui	r4,r4,(_debugstr)&0xffff
 7162  00006998          	L227_LF6:
 7163  00006998  23bdfff0	addi	r29,r29,#-16
 7164  0000699c  afa70000	sw	(r29),r7
 7165  000069a0  afa30004	sw	4(r29),r3
 7166  000069a4  afa90008	sw	8(r29),r9
 7167  000069a8  200c0064	addi	r12,r0,#100
 7168  000069ac  afac000c	sw	12(r29),r12
 7169  000069b0  0c000850	jal	_ProcessGetFromFile
 7170  000069b4  54000000	nop; not filled.
 7171  000069b8  00011020	add	r2,r0,r1
 7172  000069bc  23bd0010	addi	r29,r29,#16
 7173  000069c0  6c410000	sgti	r1,r2,#0
 7174  000069c4  102000b0	beqz	r1,L228_LF6
 7175  000069c8  54000000	nop; not filled.
 7176  000069cc  23bdfff8	addi	r29,r29,#-8
 7177  000069d0  afa40000	sw	(r29),r4
 7178  000069d4  200c0070	addi	r12,r0,#112
 7179  000069d8  afac0004	sw	4(r29),r12
 7180  000069dc  0fffe058	jal	_dindex
 7181  000069e0  54000000	nop; not filled.
 7182  000069e4  23bd0008	addi	r29,r29,#8
 7183  000069e8  64210000	snei	r1,r1,#0
 7184  000069ec  1420002c	bnez	r1,L231_LF6
 7185  000069f0  54000000	nop; not filled.
 7186  000069f4  23bdfff8	addi	r29,r29,#-8
 7187  000069f8  afa40000	sw	(r29),r4
 7188  000069fc  200c002b	addi	r12,r0,#43
 7189  00006a00  afac0004	sw	4(r29),r12
 7190  00006a04  0fffe030	jal	_dindex
 7191  00006a08  54000000	nop; not filled.
 7192  00006a0c  23bd0008	addi	r29,r29,#8
 7193  00006a10  64210000	snei	r1,r1,#0
 7194  00006a14  10200030	beqz	r1,L230_LF6
 7195  00006a18  54000000	nop; not filled.
 7196  00006a1c          	L231_LF6:
 7197  00006a1c  23bdfff0	addi	r29,r29,#-16
 7198  00006a20  3c0c0001	lhi	r12,((LC30_LF6)>>16)&0xffff
 7199  00006a24  258c19ec	addui	r12,r12,(LC30_LF6)&0xffff
 7200  00006a28  afac0000	sw	(r29),r12
 7201  00006a2c  afa20004	sw	4(r29),r2
 7202  00006a30  8fc1fd58	lw	r1,-680(r30)
 7203  00006a34  00220822	sub	r1,r1,r2
 7204  00006a38  afa10008	sw	8(r29),r1
 7205  00006a3c  0c005f4c	jal	_printf
 7206  00006a40  54000000	nop; not filled.
 7207  00006a44  23bd0010	addi	r29,r29,#16
 7208  00006a48          	L230_LF6:
 7209  00006a48  23bdfff0	addi	r29,r29,#-16
 7210  00006a4c  afa50000	sw	(r29),r5
 7211  00006a50  afa30004	sw	4(r29),r3
 7212  00006a54  8fc1fd58	lw	r1,-680(r30)
 7213  00006a58  00220822	sub	r1,r1,r2
 7214  00006a5c  afa10008	sw	8(r29),r1
 7215  00006a60  afa2000c	sw	12(r29),r2
 7216  00006a64  0fffd5f8	jal	_MemoryCopySystemToUser
 7217  00006a68  54000000	nop; not filled.
 7218  00006a6c  23bd0010	addi	r29,r29,#16
 7219  00006a70  0bffff24	j	L227_LF6
 7220  00006a74  54000000	nop; not filled.
 7221  00006a78          	L228_LF6:
 7222  00006a78  23bdfff8	addi	r29,r29,#-8
 7223  00006a7c  afa70000	sw	(r29),r7
 7224  00006a80  0fffbc74	jal	_FsClose
 7225  00006a84  54000000	nop; not filled.
 7226  00006a88  200c0100	addi	r12,r0,#256
 7227  00006a8c  accc012c	sw	300(r6),r12
 7228  00006a90  2402fc00	addui	r2,r0,#64512
 7229  00006a94  acc2009c	sw	156(r6),r2
 7230  00006a98  23bdfff8	addi	r29,r29,#-8
 7231  00006a9c  afa50000	sw	(r29),r5
 7232  00006aa0  afab0004	sw	4(r29),r11
 7233  00006aa4  8ccc009c	lw	r12,156(r6)
 7234  00006aa8  afac0008	sw	8(r29),r12
 7235  00006aac  200c03e0	addi	r12,r0,#992
 7236  00006ab0  afac000c	sw	12(r29),r12
 7237  00006ab4  0fffd5a8	jal	_MemoryCopySystemToUser
 7238  00006ab8  54000000	nop; not filled.
 7239  00006abc  afab0000	sw	(r29),r11
 7240  00006ac0  0c001954	jal	_get_argument
 7241  00006ac4  54000000	nop; not filled.
 7242  00006ac8  00220820	add	r1,r1,r2
 7243  00006acc  afc1fd78	sw	-648(r30),r1
 7244  00006ad0  20040003	addi	r4,r0,#3
 7245  00006ad4  23bd0010	addi	r29,r29,#16
 7246  00006ad8  00023820	add	r7,r0,r2
 7247  00006adc  23c20004	addi	r2,r30,#4
 7248  00006ae0          	L232_LF6:
 7249  00006ae0  23bdfff8	addi	r29,r29,#-8
 7250  00006ae4  200c0000	addi	r12,r0,#0
 7251  00006ae8  afac0000	sw	(r29),r12
 7252  00006aec  0c001928	jal	_get_argument
 7253  00006af0  54000000	nop; not filled.
 7254  00006af4  00011820	add	r3,r0,r1
 7255  00006af8  00670820	add	r1,r3,r7
 7256  00006afc  ac41fd78	sw	-648(r2),r1
 7257  00006b00  23bd0008	addi	r29,r29,#8
 7258  00006b04  64610000	snei	r1,r3,#0
 7259  00006b08  10200014	beqz	r1,L233_LF6
 7260  00006b0c  54000000	nop; not filled.
 7261  00006b10  20420004	addi	r2,r2,#4
 7262  00006b14  20840001	addi	r4,r4,#1
 7263  00006b18  0bffffc4	j	L232_LF6
 7264  00006b1c  54000000	nop; not filled.
 7265  00006b20          	L233_LF6:
 7266  00006b20  2081fffe	addi	r1,r4,#-2
 7267  00006b24  afc1fd70	sw	-656(r30),r1
 7268  00006b28  50210002	slli	r1,r1,#0x2
 7269  00006b2c  00e10822	sub	r1,r7,r1
 7270  00006b30  afc1fd74	sw	-652(r30),r1
 7271  00006b34  23bdfff0	addi	r29,r29,#-16
 7272  00006b38  afa50000	sw	(r29),r5
 7273  00006b3c  23c1fd70	addi	r1,r30,#-656
 7274  00006b40  afa10004	sw	4(r29),r1
 7275  00006b44  50820002	slli	r2,r4,#0x2
 7276  00006b48  8cc1009c	lw	r1,156(r6)
 7277  00006b4c  00220822	sub	r1,r1,r2
 7278  00006b50  afa10008	sw	8(r29),r1
 7279  00006b54  afa2000c	sw	12(r29),r2
 7280  00006b58  0fffd504	jal	_MemoryCopySystemToUser
 7281  00006b5c  54000000	nop; not filled.
 7282  00006b60  8cc1009c	lw	r1,156(r6)
 7283  00006b64  00220822	sub	r1,r1,r2
 7284  00006b68  acc1009c	sw	156(r6),r1
 7285  00006b6c  8fccfd6c	lw	r12,-660(r30)
 7286  00006b70  accc0128	sw	296(r6),r12
 7287  00006b74  8ca1000c	lw	r1,12(r5)
 7288  00006b78  34210200	ori	r1,r1,#512
 7289  00006b7c  aca1000c	sw	12(r5),r1
 7290  00006b80  23bd0010	addi	r29,r29,#16
 7291  00006b84  08000038	j	L236_LF6
 7292  00006b88  54000000	nop; not filled.
 7293  00006b8c          	L202_LF6:
 7294  00006b8c  3c0c0000	lhi	r12,((_ProcessExit_LF6)>>16)&0xffff
 7295  00006b90  258c8620	addui	r12,r12,(_ProcessExit_LF6)&0xffff
 7296  00006b94  accc00a4	sw	164(r6),r12
 7297  00006b98  8ca10008	lw	r1,8(r5)
 7298  00006b9c  2421ffe0	addui	r1,r1,#65504
 7299  00006ba0  acc1009c	sw	156(r6),r1
 7300  00006ba4  ac2b0000	sw	(r1),r11
 7301  00006ba8  acc70128	sw	296(r6),r7
 7302  00006bac  200c0140	addi	r12,r0,#320
 7303  00006bb0  accc012c	sw	300(r6),r12
 7304  00006bb4  8ca1000c	lw	r1,12(r5)
 7305  00006bb8  34210100	ori	r1,r1,#256
 7306  00006bbc  aca1000c	sw	12(r5),r1
 7307  00006bc0          	L236_LF6:
 7308  00006bc0  23bdfff8	addi	r29,r29,#-8
 7309  00006bc4  200c000f	addi	r12,r0,#15
 7310  00006bc8  afac0000	sw	(r29),r12
 7311  00006bcc  0fffa6b8	jal	_SetIntrs
 7312  00006bd0  54000000	nop; not filled.
 7313  00006bd4  23bd0008	addi	r29,r29,#8
 7314  00006bd8  3c030001	lhi	r3,((_runQueue_LF6)>>16)&0xffff
 7315  00006bdc  24632028	addui	r3,r3,(_runQueue_LF6)&0xffff
 7316  00006be0  8c620004	lw	r2,4(r3)
 7317  00006be4  ad030008	sw	8(r8),r3
 7318  00006be8  ad020004	sw	4(r8),r2
 7319  00006bec  8c4c0000	lw	r12,(r2)
 7320  00006bf0  ad0c0000	sw	(r8),r12
 7321  00006bf4  ac480000	sw	(r2),r8
 7322  00006bf8  8d020000	lw	r2,(r8)
 7323  00006bfc  ac480004	sw	4(r2),r8
 7324  00006c00  8c620008	lw	r2,8(r3)
 7325  00006c04  20420001	addi	r2,r2,#1
 7326  00006c08  ac620008	sw	8(r3),r2
 7327  00006c0c  23bdfff8	addi	r29,r29,#-8
 7328  00006c10  afa10000	sw	(r29),r1
 7329  00006c14  0fffa670	jal	_SetIntrs
 7330  00006c18  54000000	nop; not filled.
 7331  00006c1c  23bd0008	addi	r29,r29,#8
 7332  00006c20  3c010001	lhi	r1,((_currentPCB)>>16)&0xffff
 7333  00006c24  24212018	addui	r1,r1,(_currentPCB)&0xffff
 7334  00006c28  8c210000	lw	r1,(r1)
 7335  00006c2c  64210000	snei	r1,r1,#0
 7336  00006c30  14200090	bnez	r1,L242_LF6
 7337  00006c34  54000000	nop; not filled.
 7338  00006c38  23bdfff8	addi	r29,r29,#-8
 7339  00006c3c  3c020001	lhi	r2,((_debugstr)>>16)&0xffff
 7340  00006c40  24421f50	addui	r2,r2,(_debugstr)&0xffff
 7341  00006c44  afa20000	sw	(r29),r2
 7342  00006c48  200c0070	addi	r12,r0,#112
 7343  00006c4c  afac0004	sw	4(r29),r12
 7344  00006c50  0fffdde4	jal	_dindex
 7345  00006c54  54000000	nop; not filled.
 7346  00006c58  23bd0008	addi	r29,r29,#8
 7347  00006c5c  64210000	snei	r1,r1,#0
 7348  00006c60  1420002c	bnez	r1,L244_LF6
 7349  00006c64  54000000	nop; not filled.
 7350  00006c68  23bdfff8	addi	r29,r29,#-8
 7351  00006c6c  afa20000	sw	(r29),r2
 7352  00006c70  200c002b	addi	r12,r0,#43
 7353  00006c74  afac0004	sw	4(r29),r12
 7354  00006c78  0fffddbc	jal	_dindex
 7355  00006c7c  54000000	nop; not filled.
 7356  00006c80  23bd0008	addi	r29,r29,#8
 7357  00006c84  64210000	snei	r1,r1,#0
 7358  00006c88  1020002c	beqz	r1,L243_LF6
 7359  00006c8c  54000000	nop; not filled.
 7360  00006c90          	L244_LF6:
 7361  00006c90  23bdfff0	addi	r29,r29,#-16
 7362  00006c94  3c0c0001	lhi	r12,((LC31_LF6)>>16)&0xffff
 7363  00006c98  258c1a10	addui	r12,r12,(LC31_LF6)&0xffff
 7364  00006c9c  afac0000	sw	(r29),r12
 7365  00006ca0  afa50004	sw	4(r29),r5
 7366  00006ca4  8cac0000	lw	r12,(r5)
 7367  00006ca8  afac0008	sw	8(r29),r12
 7368  00006cac  0c005cdc	jal	_printf
 7369  00006cb0  54000000	nop; not filled.
 7370  00006cb4  23bd0010	addi	r29,r29,#16
 7371  00006cb8          	L243_LF6:
 7372  00006cb8  3c010001	lhi	r1,((_currentPCB)>>16)&0xffff
 7373  00006cbc  24212018	addui	r1,r1,(_currentPCB)&0xffff
 7374  00006cc0  ac250000	sw	(r1),r5
 7375  00006cc4          	L242_LF6:
 7376  00006cc4  23bdfff8	addi	r29,r29,#-8
 7377  00006cc8  3c020001	lhi	r2,((_debugstr)>>16)&0xffff
 7378  00006ccc  24421f50	addui	r2,r2,(_debugstr)&0xffff
 7379  00006cd0  afa20000	sw	(r29),r2
 7380  00006cd4  200c0070	addi	r12,r0,#112
 7381  00006cd8  afac0004	sw	4(r29),r12
 7382  00006cdc  0fffdd58	jal	_dindex
 7383  00006ce0  54000000	nop; not filled.
 7384  00006ce4  23bd0008	addi	r29,r29,#8
 7385  00006ce8  64210000	snei	r1,r1,#0
 7386  00006cec  1420002c	bnez	r1,L246_LF6
 7387  00006cf0  54000000	nop; not filled.
 7388  00006cf4  23bdfff8	addi	r29,r29,#-8
 7389  00006cf8  afa20000	sw	(r29),r2
 7390  00006cfc  200c002b	addi	r12,r0,#43
 7391  00006d00  afac0004	sw	4(r29),r12
 7392  00006d04  0fffdd30	jal	_dindex
 7393  00006d08  54000000	nop; not filled.
 7394  00006d0c  23bd0008	addi	r29,r29,#8
 7395  00006d10  64210000	snei	r1,r1,#0
 7396  00006d14  10200024	beqz	r1,L245_LF6
 7397  00006d18  54000000	nop; not filled.
 7398  00006d1c          	L246_LF6:
 7399  00006d1c  23bdfff8	addi	r29,r29,#-8
 7400  00006d20  3c0c0001	lhi	r12,((LC32_LF6)>>16)&0xffff
 7401  00006d24  258c1a3c	addui	r12,r12,(LC32_LF6)&0xffff
 7402  00006d28  afac0000	sw	(r29),r12
 7403  00006d2c  afaa0004	sw	4(r29),r10
 7404  00006d30  0c005c58	jal	_printf
 7405  00006d34  54000000	nop; not filled.
 7406  00006d38  23bd0008	addi	r29,r29,#8
 7407  00006d3c          	L245_LF6:
 7408  00006d3c  3c0c0001	lhi	r12,((_pcbs_LF6)>>16)&0xffff
 7409  00006d40  258c204c	addui	r12,r12,(_pcbs_LF6)&0xffff
 7410  00006d44  00ac1022	sub	r2,r5,r12
 7411  00006d48  3c01a4fa	lhi	r1,#-23302
 7412  00006d4c  24214fa5	addui	r1,r1,#20389
 7413  00006d50  00400035	movi2fp	f0,r2
 7414  00006d54  00200835	movi2fp	f1,r1
 7415  00006d58  0401000e	mult	f0,f0,f1
 7416  00006d5c  00000834	movfp2i	r1,f0
 7417  00006d60  5c210002	srai	r1,r1,#0x2
 7418  00006d64          	L247_LF6:
 7419  00006d64  8fa20000	lw	r2,0(r29)
 7420  00006d68  8fa30004	lw	r3,4(r29)
 7421  00006d6c  8fa40008	lw	r4,8(r29)
 7422  00006d70  8fa5000c	lw	r5,12(r29)
 7423  00006d74  8fa60010	lw	r6,16(r29)
 7424  00006d78  8fa70014	lw	r7,20(r29)
 7425  00006d7c  8fa80018	lw	r8,24(r29)
 7426  00006d80  8fa9001c	lw	r9,28(r29)
 7427  00006d84  8faa0020	lw	r10,32(r29)
 7428  00006d88  8fab0024	lw	r11,36(r29)
 7429  00006d8c  8fac0028	lw	r12,40(r29)
 7430  00006d90  8fdffff8	lw	r31,-8(r30)
 7431  00006d94  001ee820	add	r29,r0,r30
 7432  00006d98  8fdefffc	lw	r30,-4(r30)
 7433  00006d9c  4be00000	jr	r31
 7434  00006da0  54000000	nop
 7435  00006da4          	.endproc _ProcessFork
 7436  00006da4          	.data
 7437  00011a56          	.align 2
 7438  00011a58          	LC33_LF6:
 7439  00011a58  50726f63	.ascii "ProcessGetCodeInfo: open of %s failed (%d).\n\000"
 7439  00011a5c  65737347	
 7439  00011a60  6574436f	
 7439  00011a64  6465496e	
 7439  00011a68  666f3a20	
 7439  00011a6c  6f70656e	
 7439  00011a70  206f6620	
 7439  00011a74  25732066	
 7439  00011a78  61696c65	
 7439  00011a7c  64202825	
 7439  00011a80  64292e0a	
 7439  00011a84  00      	
 7440  00011a85          	.align 2
 7441  00011a88          	LC34_LF6:
 7442  00011a88  46696c65	.ascii "File descriptor is now %d.\n\000"
 7442  00011a8c  20646573	
 7442  00011a90  63726970	
 7442  00011a94  746f7220	
 7442  00011a98  6973206e	
 7442  00011a9c  6f772025	
 7442  00011aa0  642e0a00	
 7443  00011aa4          	.align 2
 7444  00011aa4          	LC35_LF6:
 7445  00011aa4  50726f63	.ascii "ProcessGetCodeInfo: read got %d (not %d) bytes from %s\n\000"
 7445  00011aa8  65737347	
 7445  00011aac  6574436f	
 7445  00011ab0  6465496e	
 7445  00011ab4  666f3a20	
 7445  00011ab8  72656164	
 7445  00011abc  20676f74	
 7445  00011ac0  20256420	
 7445  00011ac4  286e6f74	
 7445  00011ac8  20256429	
 7445  00011acc  20627974	
 7445  00011ad0  65732066	
 7445  00011ad4  726f6d20	
 7445  00011ad8  25730a00	
 7446  00011adc          	.align 2
 7447  00011adc          	LC36_LF6:
 7448  00011adc  73746172	.ascii "start:\000"
 7448  00011ae0  743a00  	
 7449  00011ae3          	.align 2
 7450  00011ae4          	LC37_LF6:
 7451  00011ae4  50726f63	.ascii "ProcessGetCodeInfo: %s missing start line (not a DLX executable?)\n\000"
 7451  00011ae8  65737347	
 7451  00011aec  6574436f	
 7451  00011af0  6465496e	
 7451  00011af4  666f3a20	
 7451  00011af8  2573206d	
 7451  00011afc  69737369	
 7451  00011b00  6e672073	
 7451  00011b04  74617274	
 7451  00011b08  206c696e	
 7451  00011b0c  6520286e	
 7451  00011b10  6f742061	
 7451  00011b14  20444c58	
 7451  00011b18  20657865	
 7451  00011b1c  63757461	
 7451  00011b20  626c653f	
 7451  00011b24  290a00  	
 7452  00011b27          	.text
 7453  00006da4          	.align 2
 7454  00006da4          	.proc _ProcessGetCodeInfo
 7455  00006da4          	.global _ProcessGetCodeInfo
 7456  00006da4          	_ProcessGetCodeInfo:
 7457                      ;  Function 'ProcessGetCodeInfo'; 112 bytes of locals, 11 regs to save.
 7458  00006da4  afbefffc	sw	-4(r29),r30; push fp
 7459  00006da8  001df020	add	r30,r0,r29; fp = sp
 7460  00006dac  afbffff8	sw	-8(r29),r31; push ret addr
 7461  00006db0  2fbd00a8	subui	r29,r29,#168; alloc local storage
 7462  00006db4  afa20000	sw	0(r29),r2
 7463  00006db8  afa30004	sw	4(r29),r3
 7464  00006dbc  afa40008	sw	8(r29),r4
 7465  00006dc0  afa5000c	sw	12(r29),r5
 7466  00006dc4  afa60010	sw	16(r29),r6
 7467  00006dc8  afa70014	sw	20(r29),r7
 7468  00006dcc  afa80018	sw	24(r29),r8
 7469  00006dd0  afa9001c	sw	28(r29),r9
 7470  00006dd4  afaa0020	sw	32(r29),r10
 7471  00006dd8  afab0024	sw	36(r29),r11
 7472  00006ddc  afac0028	sw	40(r29),r12
 7473  00006de0  8fc60000	lw	r6,(r30)
 7474  00006de4  8fc70004	lw	r7,4(r30)
 7475  00006de8  8fc80008	lw	r8,8(r30)
 7476  00006dec  8fc9000c	lw	r9,12(r30)
 7477  00006df0  8fca0010	lw	r10,16(r30)
 7478  00006df4  8fcb0014	lw	r11,20(r30)
 7479  00006df8  23bdfff8	addi	r29,r29,#-8
 7480  00006dfc  afa60000	sw	(r29),r6
 7481  00006e00  200c0001	addi	r12,r0,#1
 7482  00006e04  afac0004	sw	4(r29),r12
 7483  00006e08  0fffb590	jal	_FsOpen
 7484  00006e0c  54000000	nop; not filled.
 7485  00006e10  00011820	add	r3,r0,r1
 7486  00006e14  23bd0008	addi	r29,r29,#8
 7487  00006e18  68610000	slti	r1,r3,#0
 7488  00006e1c  10200088	beqz	r1,L257_LF6
 7489  00006e20  54000000	nop; not filled.
 7490  00006e24  23bdfff8	addi	r29,r29,#-8
 7491  00006e28  3c020001	lhi	r2,((_debugstr)>>16)&0xffff
 7492  00006e2c  24421f50	addui	r2,r2,(_debugstr)&0xffff
 7493  00006e30  afa20000	sw	(r29),r2
 7494  00006e34  200c0066	addi	r12,r0,#102
 7495  00006e38  afac0004	sw	4(r29),r12
 7496  00006e3c  0fffdbf8	jal	_dindex
 7497  00006e40  54000000	nop; not filled.
 7498  00006e44  23bd0008	addi	r29,r29,#8
 7499  00006e48  64210000	snei	r1,r1,#0
 7500  00006e4c  1420002c	bnez	r1,L259_LF6
 7501  00006e50  54000000	nop; not filled.
 7502  00006e54  23bdfff8	addi	r29,r29,#-8
 7503  00006e58  afa20000	sw	(r29),r2
 7504  00006e5c  200c002b	addi	r12,r0,#43
 7505  00006e60  afac0004	sw	4(r29),r12
 7506  00006e64  0fffdbd0	jal	_dindex
 7507  00006e68  54000000	nop; not filled.
 7508  00006e6c  23bd0008	addi	r29,r29,#8
 7509  00006e70  64210000	snei	r1,r1,#0
 7510  00006e74  10200224	beqz	r1,L266_LF6
 7511  00006e78  54000000	nop; not filled.
 7512  00006e7c          	L259_LF6:
 7513  00006e7c  23bdfff0	addi	r29,r29,#-16
 7514  00006e80  3c0c0001	lhi	r12,((LC33_LF6)>>16)&0xffff
 7515  00006e84  258c1a58	addui	r12,r12,(LC33_LF6)&0xffff
 7516  00006e88  afac0000	sw	(r29),r12
 7517  00006e8c  afa60004	sw	4(r29),r6
 7518  00006e90  afa30008	sw	8(r29),r3
 7519  00006e94  0c005af4	jal	_printf
 7520  00006e98  54000000	nop; not filled.
 7521  00006e9c  23bd0010	addi	r29,r29,#16
 7522  00006ea0  080001f8	j	L266_LF6
 7523  00006ea4  54000000	nop; not filled.
 7524  00006ea8          	L257_LF6:
 7525  00006ea8  23bdfff8	addi	r29,r29,#-8
 7526  00006eac  3c020001	lhi	r2,((_debugstr)>>16)&0xffff
 7527  00006eb0  24421f50	addui	r2,r2,(_debugstr)&0xffff
 7528  00006eb4  afa20000	sw	(r29),r2
 7529  00006eb8  200c0066	addi	r12,r0,#102
 7530  00006ebc  afac0004	sw	4(r29),r12
 7531  00006ec0  0fffdb74	jal	_dindex
 7532  00006ec4  54000000	nop; not filled.
 7533  00006ec8  23bd0008	addi	r29,r29,#8
 7534  00006ecc  64210000	snei	r1,r1,#0
 7535  00006ed0  1420002c	bnez	r1,L261_LF6
 7536  00006ed4  54000000	nop; not filled.
 7537  00006ed8  23bdfff8	addi	r29,r29,#-8
 7538  00006edc  afa20000	sw	(r29),r2
 7539  00006ee0  200c002b	addi	r12,r0,#43
 7540  00006ee4  afac0004	sw	4(r29),r12
 7541  00006ee8  0fffdb4c	jal	_dindex
 7542  00006eec  54000000	nop; not filled.
 7543  00006ef0  23bd0008	addi	r29,r29,#8
 7544  00006ef4  64210000	snei	r1,r1,#0
 7545  00006ef8  10200024	beqz	r1,L260_LF6
 7546  00006efc  54000000	nop; not filled.
 7547  00006f00          	L261_LF6:
 7548  00006f00  23bdfff8	addi	r29,r29,#-8
 7549  00006f04  3c0c0001	lhi	r12,((LC34_LF6)>>16)&0xffff
 7550  00006f08  258c1a88	addui	r12,r12,(LC34_LF6)&0xffff
 7551  00006f0c  afac0000	sw	(r29),r12
 7552  00006f10  afa30004	sw	4(r29),r3
 7553  00006f14  0c005a74	jal	_printf
 7554  00006f18  54000000	nop; not filled.
 7555  00006f1c  23bd0008	addi	r29,r29,#8
 7556  00006f20          	L260_LF6:
 7557  00006f20  23bdfff0	addi	r29,r29,#-16
 7558  00006f24  afa30000	sw	(r29),r3
 7559  00006f28  23c4ff90	addi	r4,r30,#-112
 7560  00006f2c  afa40004	sw	4(r29),r4
 7561  00006f30  200c0064	addi	r12,r0,#100
 7562  00006f34  afac0008	sw	8(r29),r12
 7563  00006f38  0fffb8c4	jal	_FsRead
 7564  00006f3c  54000000	nop; not filled.
 7565  00006f40  00012820	add	r5,r0,r1
 7566  00006f44  23bd0010	addi	r29,r29,#16
 7567  00006f48  64a10064	snei	r1,r5,#100
 7568  00006f4c  102000a8	beqz	r1,L262_LF6
 7569  00006f50  54000000	nop; not filled.
 7570  00006f54  23bdfff8	addi	r29,r29,#-8
 7571  00006f58  3c020001	lhi	r2,((_debugstr)>>16)&0xffff
 7572  00006f5c  24421f50	addui	r2,r2,(_debugstr)&0xffff
 7573  00006f60  afa20000	sw	(r29),r2
 7574  00006f64  200c0066	addi	r12,r0,#102
 7575  00006f68  afac0004	sw	4(r29),r12
 7576  00006f6c  0fffdac8	jal	_dindex
 7577  00006f70  54000000	nop; not filled.
 7578  00006f74  23bd0008	addi	r29,r29,#8
 7579  00006f78  64210000	snei	r1,r1,#0
 7580  00006f7c  1420002c	bnez	r1,L264_LF6
 7581  00006f80  54000000	nop; not filled.
 7582  00006f84  23bdfff8	addi	r29,r29,#-8
 7583  00006f88  afa20000	sw	(r29),r2
 7584  00006f8c  200c002b	addi	r12,r0,#43
 7585  00006f90  afac0004	sw	4(r29),r12
 7586  00006f94  0fffdaa0	jal	_dindex
 7587  00006f98  54000000	nop; not filled.
 7588  00006f9c  23bd0008	addi	r29,r29,#8
 7589  00006fa0  64210000	snei	r1,r1,#0
 7590  00006fa4  10200030	beqz	r1,L263_LF6
 7591  00006fa8  54000000	nop; not filled.
 7592  00006fac          	L264_LF6:
 7593  00006fac  23bdfff0	addi	r29,r29,#-16
 7594  00006fb0  3c0c0001	lhi	r12,((LC35_LF6)>>16)&0xffff
 7595  00006fb4  258c1aa4	addui	r12,r12,(LC35_LF6)&0xffff
 7596  00006fb8  afac0000	sw	(r29),r12
 7597  00006fbc  afa50004	sw	4(r29),r5
 7598  00006fc0  200c0064	addi	r12,r0,#100
 7599  00006fc4  afac0008	sw	8(r29),r12
 7600  00006fc8  afa6000c	sw	12(r29),r6
 7601  00006fcc  0c0059bc	jal	_printf
 7602  00006fd0  54000000	nop; not filled.
 7603  00006fd4  23bd0010	addi	r29,r29,#16
 7604  00006fd8          	L263_LF6:
 7605  00006fd8  23bdfff8	addi	r29,r29,#-8
 7606  00006fdc  afa30000	sw	(r29),r3
 7607  00006fe0  0fffb714	jal	_FsClose
 7608  00006fe4  54000000	nop; not filled.
 7609  00006fe8  2001ffff	addi	r1,r0,#-1
 7610  00006fec  23bd0008	addi	r29,r29,#8
 7611  00006ff0  080001d0	j	L256_LF6
 7612  00006ff4  54000000	nop; not filled.
 7613  00006ff8          	L262_LF6:
 7614  00006ff8  23bdfff8	addi	r29,r29,#-8
 7615  00006ffc  afa40000	sw	(r29),r4
 7616  00007000  3c010001	lhi	r1,((LC36_LF6)>>16)&0xffff
 7617  00007004  24211adc	addui	r1,r1,(LC36_LF6)&0xffff
 7618  00007008  afa10004	sw	4(r29),r1
 7619  0000700c  0fffd810	jal	_dstrstr
 7620  00007010  54000000	nop; not filled.
 7621  00007014  23bd0008	addi	r29,r29,#8
 7622  00007018  64210000	snei	r1,r1,#0
 7623  0000701c  14200088	bnez	r1,L265_LF6
 7624  00007020  54000000	nop; not filled.
 7625  00007024  23bdfff8	addi	r29,r29,#-8
 7626  00007028  3c020001	lhi	r2,((_debugstr)>>16)&0xffff
 7627  0000702c  24421f50	addui	r2,r2,(_debugstr)&0xffff
 7628  00007030  afa20000	sw	(r29),r2
 7629  00007034  200c0066	addi	r12,r0,#102
 7630  00007038  afac0004	sw	4(r29),r12
 7631  0000703c  0fffd9f8	jal	_dindex
 7632  00007040  54000000	nop; not filled.
 7633  00007044  23bd0008	addi	r29,r29,#8
 7634  00007048  64210000	snei	r1,r1,#0
 7635  0000704c  1420002c	bnez	r1,L267_LF6
 7636  00007050  54000000	nop; not filled.
 7637  00007054  23bdfff8	addi	r29,r29,#-8
 7638  00007058  afa20000	sw	(r29),r2
 7639  0000705c  200c002b	addi	r12,r0,#43
 7640  00007060  afac0004	sw	4(r29),r12
 7641  00007064  0fffd9d0	jal	_dindex
 7642  00007068  54000000	nop; not filled.
 7643  0000706c  23bd0008	addi	r29,r29,#8
 7644  00007070  64210000	snei	r1,r1,#0
 7645  00007074  10200024	beqz	r1,L266_LF6
 7646  00007078  54000000	nop; not filled.
 7647  0000707c          	L267_LF6:
 7648  0000707c  23bdfff8	addi	r29,r29,#-8
 7649  00007080  3c0c0001	lhi	r12,((LC37_LF6)>>16)&0xffff
 7650  00007084  258c1ae4	addui	r12,r12,(LC37_LF6)&0xffff
 7651  00007088  afac0000	sw	(r29),r12
 7652  0000708c  afa60004	sw	4(r29),r6
 7653  00007090  0c0058f8	jal	_printf
 7654  00007094  54000000	nop; not filled.
 7655  00007098  23bd0008	addi	r29,r29,#8
 7656  0000709c          	L266_LF6:
 7657  0000709c  2001ffff	addi	r1,r0,#-1
 7658  000070a0  08000120	j	L256_LF6
 7659  000070a4  54000000	nop; not filled.
 7660  000070a8          	L265_LF6:
 7661  000070a8  23bdfff8	addi	r29,r29,#-8
 7662  000070ac  afa40000	sw	(r29),r4
 7663  000070b0  200c003a	addi	r12,r0,#58
 7664  000070b4  afac0004	sw	4(r29),r12
 7665  000070b8  0fffd97c	jal	_dindex
 7666  000070bc  54000000	nop; not filled.
 7667  000070c0  20210001	addi	r1,r1,#1
 7668  000070c4  afc1ff8c	sw	-116(r30),r1
 7669  000070c8  23bdfff8	addi	r29,r29,#-8
 7670  000070cc  afa10000	sw	(r29),r1
 7671  000070d0  23c2ff8c	addi	r2,r30,#-116
 7672  000070d4  afa20004	sw	4(r29),r2
 7673  000070d8  200c0010	addi	r12,r0,#16
 7674  000070dc  afac0008	sw	8(r29),r12
 7675  000070e0  0fffdadc	jal	_dstrtol
 7676  000070e4  54000000	nop; not filled.
 7677  000070e8  ace10000	sw	(r7),r1
 7678  000070ec  8fccff8c	lw	r12,-116(r30)
 7679  000070f0  afac0000	sw	(r29),r12
 7680  000070f4  afa20004	sw	4(r29),r2
 7681  000070f8  200c0010	addi	r12,r0,#16
 7682  000070fc  afac0008	sw	8(r29),r12
 7683  00007100  0fffdabc	jal	_dstrtol
 7684  00007104  54000000	nop; not filled.
 7685  00007108  8fccff8c	lw	r12,-116(r30)
 7686  0000710c  afac0000	sw	(r29),r12
 7687  00007110  afa20004	sw	4(r29),r2
 7688  00007114  200c0010	addi	r12,r0,#16
 7689  00007118  afac0008	sw	8(r29),r12
 7690  0000711c  0fffdaa0	jal	_dstrtol
 7691  00007120  54000000	nop; not filled.
 7692  00007124  ad010000	sw	(r8),r1
 7693  00007128  8fccff8c	lw	r12,-116(r30)
 7694  0000712c  afac0000	sw	(r29),r12
 7695  00007130  afa20004	sw	4(r29),r2
 7696  00007134  200c0010	addi	r12,r0,#16
 7697  00007138  afac0008	sw	8(r29),r12
 7698  0000713c  0fffda80	jal	_dstrtol
 7699  00007140  54000000	nop; not filled.
 7700  00007144  ad210000	sw	(r9),r1
 7701  00007148  8fccff8c	lw	r12,-116(r30)
 7702  0000714c  afac0000	sw	(r29),r12
 7703  00007150  afa20004	sw	4(r29),r2
 7704  00007154  200c0010	addi	r12,r0,#16
 7705  00007158  afac0008	sw	8(r29),r12
 7706  0000715c  0fffda60	jal	_dstrtol
 7707  00007160  54000000	nop; not filled.
 7708  00007164  ad410000	sw	(r10),r1
 7709  00007168  8fccff8c	lw	r12,-116(r30)
 7710  0000716c  afac0000	sw	(r29),r12
 7711  00007170  afa20004	sw	4(r29),r2
 7712  00007174  200c0010	addi	r12,r0,#16
 7713  00007178  afac0008	sw	8(r29),r12
 7714  0000717c  0fffda40	jal	_dstrtol
 7715  00007180  54000000	nop; not filled.
 7716  00007184  ad610000	sw	(r11),r1
 7717  00007188  afa40000	sw	(r29),r4
 7718  0000718c  200c000a	addi	r12,r0,#10
 7719  00007190  afac0004	sw	4(r29),r12
 7720  00007194  0fffd8a0	jal	_dindex
 7721  00007198  54000000	nop; not filled.
 7722  0000719c  23c2ff8f	addi	r2,r30,#-113
 7723  000071a0  00220822	sub	r1,r1,r2
 7724  000071a4  afa30000	sw	(r29),r3
 7725  000071a8  afa10004	sw	4(r29),r1
 7726  000071ac  200c0000	addi	r12,r0,#0
 7727  000071b0  afac0008	sw	8(r29),r12
 7728  000071b4  0fffb840	jal	_FsSeek
 7729  000071b8  54000000	nop; not filled.
 7730  000071bc  00030820	add	r1,r0,r3
 7731  000071c0  23bd0010	addi	r29,r29,#16
 7732  000071c4          	L256_LF6:
 7733  000071c4  8fa20000	lw	r2,0(r29)
 7734  000071c8  8fa30004	lw	r3,4(r29)
 7735  000071cc  8fa40008	lw	r4,8(r29)
 7736  000071d0  8fa5000c	lw	r5,12(r29)
 7737  000071d4  8fa60010	lw	r6,16(r29)
 7738  000071d8  8fa70014	lw	r7,20(r29)
 7739  000071dc  8fa80018	lw	r8,24(r29)
 7740  000071e0  8fa9001c	lw	r9,28(r29)
 7741  000071e4  8faa0020	lw	r10,32(r29)
 7742  000071e8  8fab0024	lw	r11,36(r29)
 7743  000071ec  8fac0028	lw	r12,40(r29)
 7744  000071f0  8fdffff8	lw	r31,-8(r30)
 7745  000071f4  001ee820	add	r29,r0,r30
 7746  000071f8  8fdefffc	lw	r30,-4(r30)
 7747  000071fc  4be00000	jr	r31
 7748  00007200  54000000	nop
 7749  00007204          	.endproc _ProcessGetCodeInfo
 7750  00007204          	.data
 7751  00011b27          	.align 2
 7752  00011b28          	LC38_LF6:
 7753  00011b28  476f7420	.ascii "Got %d bytes at offset %d ...\000"
 7753  00011b2c  25642062	
 7753  00011b30  79746573	
 7753  00011b34  20617420	
 7753  00011b38  6f666673	
 7753  00011b3c  65742025	
 7753  00011b40  64202e2e	
 7753  00011b44  2e00    	
 7754  00011b46          	.align 2
 7755  00011b48          	LC39_LF6:
 7756  00011b48  20746572	.ascii " terminated at %d.\n\000"
 7756  00011b4c  6d696e61	
 7756  00011b50  74656420	
 7756  00011b54  61742025	
 7756  00011b58  642e0a00	
 7757  00011b5c          	.align 2
 7758  00011b5c          	LC40_LF6:
 7759  00011b5c  42756666	.ascii "Buffer is \'%s\'\n\000"
 7759  00011b60  65722069	
 7759  00011b64  73202725	
 7759  00011b68  73270a00	
 7760  00011b6c          	.align 2
 7761  00011b6c          	LC41_LF6:
 7762  00011b6c  4e657720	.ascii "New address is 0x%x.\n\000"
 7762  00011b70  61646472	
 7762  00011b74  65737320	
 7762  00011b78  69732030	
 7762  00011b7c  7825782e	
 7762  00011b80  0a00    	
 7763  00011b82          	.align 2
 7764  00011b84          	LC42_LF6:
 7765  00011b84  5365656b	.ascii "Seeking to %d and returning %d bytes!\n\000"
 7765  00011b88  696e6720	
 7765  00011b8c  746f2025	
 7765  00011b90  6420616e	
 7765  00011b94  64207265	
 7765  00011b98  7475726e	
 7765  00011b9c  696e6720	
 7765  00011ba0  25642062	
 7765  00011ba4  79746573	
 7765  00011ba8  210a00  	
 7766  00011bab          	.text
 7767  00007204          	.align 2
 7768  00007204          	.proc _ProcessGetFromFile
 7769  00007204          	.global _ProcessGetFromFile
 7770  00007204          	_ProcessGetFromFile:
 7771                      ;  Function 'ProcessGetFromFile'; 216 bytes of locals, 11 regs to save.
 7772  00007204  afbefffc	sw	-4(r29),r30; push fp
 7773  00007208  001df020	add	r30,r0,r29; fp = sp
 7774  0000720c  afbffff8	sw	-8(r29),r31; push ret addr
 7775  00007210  2fbd0110	subui	r29,r29,#272; alloc local storage
 7776  00007214  afa20000	sw	0(r29),r2
 7777  00007218  afa30004	sw	4(r29),r3
 7778  0000721c  afa40008	sw	8(r29),r4
 7779  00007220  afa5000c	sw	12(r29),r5
 7780  00007224  afa60010	sw	16(r29),r6
 7781  00007228  afa70014	sw	20(r29),r7
 7782  0000722c  afa80018	sw	24(r29),r8
 7783  00007230  afa9001c	sw	28(r29),r9
 7784  00007234  afaa0020	sw	32(r29),r10
 7785  00007238  afab0024	sw	36(r29),r11
 7786  0000723c  afac0028	sw	40(r29),r12
 7787  00007240  8fca0000	lw	r10,(r30)
 7788  00007244  8fc70008	lw	r7,8(r30)
 7789  00007248  8fc2000c	lw	r2,12(r30)
 7790  0000724c  8fcb0004	lw	r11,4(r30)
 7791  00007250  23c3ff28	addi	r3,r30,#-216
 7792  00007254  afc3ff24	sw	-220(r30),r3
 7793  00007258  23bdfff0	addi	r29,r29,#-16
 7794  0000725c  afaa0000	sw	(r29),r10
 7795  00007260  200c0000	addi	r12,r0,#0
 7796  00007264  afac0004	sw	4(r29),r12
 7797  00007268  200c0001	addi	r12,r0,#1
 7798  0000726c  afac0008	sw	8(r29),r12
 7799  00007270  0fffb784	jal	_FsSeek
 7800  00007274  54000000	nop; not filled.
 7801  00007278  00014820	add	r9,r0,r1
 7802  0000727c  50420001	slli	r2,r2,#0x1
 7803  00007280  23bd0010	addi	r29,r29,#16
 7804  00007284  6c4100c8	sgtui	r1,r2,#200
 7805  00007288  10200008	beqz	r1,L270_LF6
 7806  0000728c  54000000	nop; not filled.
 7807  00007290  200200c8	addi	r2,r0,#200
 7808  00007294          	L270_LF6:
 7809  00007294  23bdfff0	addi	r29,r29,#-16
 7810  00007298  afaa0000	sw	(r29),r10
 7811  0000729c  afa30004	sw	4(r29),r3
 7812  000072a0  afa20008	sw	8(r29),r2
 7813  000072a4  0fffb558	jal	_FsRead
 7814  000072a8  54000000	nop; not filled.
 7815  000072ac  00012820	add	r5,r0,r1
 7816  000072b0  23bd0010	addi	r29,r29,#16
 7817  000072b4  70a10000	slei	r1,r5,#0
 7818  000072b8  10200010	beqz	r1,L271_LF6
 7819  000072bc  54000000	nop; not filled.
 7820  000072c0  20010000	addi	r1,r0,#0
 7821  000072c4  08000594	j	L325_LF6
 7822  000072c8  54000000	nop; not filled.
 7823  000072cc          	L271_LF6:
 7824  000072cc  23bdfff8	addi	r29,r29,#-8
 7825  000072d0  3c020001	lhi	r2,((_debugstr)>>16)&0xffff
 7826  000072d4  24421f50	addui	r2,r2,(_debugstr)&0xffff
 7827  000072d8  afa20000	sw	(r29),r2
 7828  000072dc  200c0066	addi	r12,r0,#102
 7829  000072e0  afac0004	sw	4(r29),r12
 7830  000072e4  0fffd750	jal	_dindex
 7831  000072e8  54000000	nop; not filled.
 7832  000072ec  23bd0008	addi	r29,r29,#8
 7833  000072f0  64210000	snei	r1,r1,#0
 7834  000072f4  1420002c	bnez	r1,L273_LF6
 7835  000072f8  54000000	nop; not filled.
 7836  000072fc  23bdfff8	addi	r29,r29,#-8
 7837  00007300  afa20000	sw	(r29),r2
 7838  00007304  200c002b	addi	r12,r0,#43
 7839  00007308  afac0004	sw	4(r29),r12
 7840  0000730c  0fffd728	jal	_dindex
 7841  00007310  54000000	nop; not filled.
 7842  00007314  23bd0008	addi	r29,r29,#8
 7843  00007318  64210000	snei	r1,r1,#0
 7844  0000731c  10200028	beqz	r1,L272_LF6
 7845  00007320  54000000	nop; not filled.
 7846  00007324          	L273_LF6:
 7847  00007324  23bdfff0	addi	r29,r29,#-16
 7848  00007328  3c0c0001	lhi	r12,((LC38_LF6)>>16)&0xffff
 7849  0000732c  258c1b28	addui	r12,r12,(LC38_LF6)&0xffff
 7850  00007330  afac0000	sw	(r29),r12
 7851  00007334  afa50004	sw	4(r29),r5
 7852  00007338  afa90008	sw	8(r29),r9
 7853  0000733c  0c00564c	jal	_printf
 7854  00007340  54000000	nop; not filled.
 7855  00007344  23bd0010	addi	r29,r29,#16
 7856  00007348          	L272_LF6:
 7857  00007348  20a5ffff	addi	r5,r5,#-1
 7858  0000734c  23c1ff28	addi	r1,r30,#-216
 7859  00007350  00251020	add	r2,r1,r5
 7860  00007354  0800000c	j	L328_LF6
 7861  00007358  54000000	nop; not filled.
 7862  0000735c          	L274_LF6:
 7863  0000735c  2042ffff	addi	r2,r2,#-1
 7864  00007360  20a5ffff	addi	r5,r5,#-1
 7865  00007364          	L328_LF6:
 7866  00007364  90410000	lbu	r1,(r2)
 7867  00007368  6421000a	snei	r1,r1,#10
 7868  0000736c  1420ffec	bnez	r1,L274_LF6
 7869  00007370  54000000	nop; not filled.
 7870  00007374  23c1ff29	addi	r1,r30,#-215
 7871  00007378  00250820	add	r1,r1,r5
 7872  0000737c  200c005a	addi	r12,r0,(#0x5a)&0xff
 7873  00007380  a02c0000	sb	(r1),r12
 7874  00007384  23c1ff2a	addi	r1,r30,#-214
 7875  00007388  00250820	add	r1,r1,r5
 7876  0000738c  200c0000	addi	r12,r0,(#0x0)&0xff
 7877  00007390  a02c0000	sb	(r1),r12
 7878  00007394  23bdfff8	addi	r29,r29,#-8
 7879  00007398  3c020001	lhi	r2,((_debugstr)>>16)&0xffff
 7880  0000739c  24421f50	addui	r2,r2,(_debugstr)&0xffff
 7881  000073a0  afa20000	sw	(r29),r2
 7882  000073a4  200c0066	addi	r12,r0,#102
 7883  000073a8  afac0004	sw	4(r29),r12
 7884  000073ac  0fffd688	jal	_dindex
 7885  000073b0  54000000	nop; not filled.
 7886  000073b4  23bd0008	addi	r29,r29,#8
 7887  000073b8  64210000	snei	r1,r1,#0
 7888  000073bc  1420002c	bnez	r1,L279_LF6
 7889  000073c0  54000000	nop; not filled.
 7890  000073c4  23bdfff8	addi	r29,r29,#-8
 7891  000073c8  afa20000	sw	(r29),r2
 7892  000073cc  200c002b	addi	r12,r0,#43
 7893  000073d0  afac0004	sw	4(r29),r12
 7894  000073d4  0fffd660	jal	_dindex
 7895  000073d8  54000000	nop; not filled.
 7896  000073dc  23bd0008	addi	r29,r29,#8
 7897  000073e0  64210000	snei	r1,r1,#0
 7898  000073e4  10200024	beqz	r1,L278_LF6
 7899  000073e8  54000000	nop; not filled.
 7900  000073ec          	L279_LF6:
 7901  000073ec  23bdfff8	addi	r29,r29,#-8
 7902  000073f0  3c0c0001	lhi	r12,((LC39_LF6)>>16)&0xffff
 7903  000073f4  258c1b48	addui	r12,r12,(LC39_LF6)&0xffff
 7904  000073f8  afac0000	sw	(r29),r12
 7905  000073fc  afa50004	sw	4(r29),r5
 7906  00007400  0c005588	jal	_printf
 7907  00007404  54000000	nop; not filled.
 7908  00007408  23bd0008	addi	r29,r29,#8
 7909  0000740c          	L278_LF6:
 7910  0000740c  23bdfff8	addi	r29,r29,#-8
 7911  00007410  3c020001	lhi	r2,((_debugstr)>>16)&0xffff
 7912  00007414  24421f50	addui	r2,r2,(_debugstr)&0xffff
 7913  00007418  afa20000	sw	(r29),r2
 7914  0000741c  200c0066	addi	r12,r0,#102
 7915  00007420  afac0004	sw	4(r29),r12
 7916  00007424  0fffd610	jal	_dindex
 7917  00007428  54000000	nop; not filled.
 7918  0000742c  23bd0008	addi	r29,r29,#8
 7919  00007430  64210000	snei	r1,r1,#0
 7920  00007434  1420002c	bnez	r1,L281_LF6
 7921  00007438  54000000	nop; not filled.
 7922  0000743c  23bdfff8	addi	r29,r29,#-8
 7923  00007440  afa20000	sw	(r29),r2
 7924  00007444  200c002b	addi	r12,r0,#43
 7925  00007448  afac0004	sw	4(r29),r12
 7926  0000744c  0fffd5e8	jal	_dindex
 7927  00007450  54000000	nop; not filled.
 7928  00007454  23bd0008	addi	r29,r29,#8
 7929  00007458  64210000	snei	r1,r1,#0
 7930  0000745c  10200028	beqz	r1,L280_LF6
 7931  00007460  54000000	nop; not filled.
 7932  00007464          	L281_LF6:
 7933  00007464  23bdfff8	addi	r29,r29,#-8
 7934  00007468  3c0c0001	lhi	r12,((LC40_LF6)>>16)&0xffff
 7935  0000746c  258c1b5c	addui	r12,r12,(LC40_LF6)&0xffff
 7936  00007470  afac0000	sw	(r29),r12
 7937  00007474  23c1ff28	addi	r1,r30,#-216
 7938  00007478  afa10004	sw	4(r29),r1
 7939  0000747c  0c00550c	jal	_printf
 7940  00007480  54000000	nop; not filled.
 7941  00007484  23bd0008	addi	r29,r29,#8
 7942  00007488          	L280_LF6:
 7943  00007488  20050000	addi	r5,r0,#0
 7944  0000748c  3c080001	lhi	r8,((_debugstr)>>16)&0xffff
 7945  00007490  25081f50	addui	r8,r8,(_debugstr)&0xffff
 7946  00007494          	L282_LF6:
 7947  00007494  23bdfff8	addi	r29,r29,#-8
 7948  00007498  8fccff24	lw	r12,-220(r30)
 7949  0000749c  afac0000	sw	(r29),r12
 7950  000074a0  200c005a	addi	r12,r0,#90
 7951  000074a4  afac0004	sw	4(r29),r12
 7952  000074a8  0fffd58c	jal	_dindex
 7953  000074ac  54000000	nop; not filled.
 7954  000074b0  23bd0008	addi	r29,r29,#8
 7955  000074b4  64210000	snei	r1,r1,#0
 7956  000074b8  102002ec	beqz	r1,L283_LF6
 7957  000074bc  54000000	nop; not filled.
 7958  000074c0  23bdfff8	addi	r29,r29,#-8
 7959  000074c4  8fccff24	lw	r12,-220(r30)
 7960  000074c8  afac0000	sw	(r29),r12
 7961  000074cc  200c003a	addi	r12,r0,#58
 7962  000074d0  afac0004	sw	4(r29),r12
 7963  000074d4  0fffd560	jal	_dindex
 7964  000074d8  54000000	nop; not filled.
 7965  000074dc  23bd0008	addi	r29,r29,#8
 7966  000074e0  64210000	snei	r1,r1,#0
 7967  000074e4  102002c0	beqz	r1,L283_LF6
 7968  000074e8  54000000	nop; not filled.
 7969  000074ec  8fc2ff24	lw	r2,-220(r30)
 7970  000074f0  90410000	lbu	r1,(r2)
 7971  000074f4  6421003a	snei	r1,r1,#58
 7972  000074f8  102000b8	beqz	r1,L327_LF6
 7973  000074fc  54000000	nop; not filled.
 7974  00007500  6ca10000	sgti	r1,r5,#0
 7975  00007504  142002a0	bnez	r1,L283_LF6
 7976  00007508  54000000	nop; not filled.
 7977  0000750c  23bdfff0	addi	r29,r29,#-16
 7978  00007510  afa20000	sw	(r29),r2
 7979  00007514  23c1ff24	addi	r1,r30,#-220
 7980  00007518  afa10004	sw	4(r29),r1
 7981  0000751c  200c0010	addi	r12,r0,#16
 7982  00007520  afac0008	sw	8(r29),r12
 7983  00007524  0fffd698	jal	_dstrtol
 7984  00007528  54000000	nop; not filled.
 7985  0000752c  ace10000	sw	(r7),r1
 7986  00007530  afa80000	sw	(r29),r8
 7987  00007534  200c0066	addi	r12,r0,#102
 7988  00007538  afac0004	sw	4(r29),r12
 7989  0000753c  0fffd4f8	jal	_dindex
 7990  00007540  54000000	nop; not filled.
 7991  00007544  23bd0010	addi	r29,r29,#16
 7992  00007548  64210000	snei	r1,r1,#0
 7993  0000754c  1420002c	bnez	r1,L289_LF6
 7994  00007550  54000000	nop; not filled.
 7995  00007554  23bdfff8	addi	r29,r29,#-8
 7996  00007558  afa80000	sw	(r29),r8
 7997  0000755c  200c002b	addi	r12,r0,#43
 7998  00007560  afac0004	sw	4(r29),r12
 7999  00007564  0fffd4d0	jal	_dindex
 8000  00007568  54000000	nop; not filled.
 8001  0000756c  23bd0008	addi	r29,r29,#8
 8002  00007570  64210000	snei	r1,r1,#0
 8003  00007574  10200028	beqz	r1,L286_LF6
 8004  00007578  54000000	nop; not filled.
 8005  0000757c          	L289_LF6:
 8006  0000757c  23bdfff8	addi	r29,r29,#-8
 8007  00007580  3c0c0001	lhi	r12,((LC41_LF6)>>16)&0xffff
 8008  00007584  258c1b6c	addui	r12,r12,(LC41_LF6)&0xffff
 8009  00007588  afac0000	sw	(r29),r12
 8010  0000758c  8ce10000	lw	r1,(r7)
 8011  00007590  afa10004	sw	4(r29),r1
 8012  00007594  0c0053f4	jal	_printf
 8013  00007598  54000000	nop; not filled.
 8014  0000759c  23bd0008	addi	r29,r29,#8
 8015  000075a0          	L286_LF6:
 8016  000075a0  8fc1ff24	lw	r1,-220(r30)
 8017  000075a4  90210000	lbu	r1,(r1)
 8018  000075a8  6421003a	snei	r1,r1,#58
 8019  000075ac  142001f8	bnez	r1,L283_LF6
 8020  000075b0  54000000	nop; not filled.
 8021  000075b4          	L327_LF6:
 8022  000075b4  8fc1ff24	lw	r1,-220(r30)
 8023  000075b8  20210001	addi	r1,r1,#1
 8024  000075bc  afc1ff24	sw	-220(r30),r1
 8025  000075c0  00ab3020	add	r6,r5,r11
 8026  000075c4          	L293_LF6:
 8027  000075c4  8fc1ff24	lw	r1,-220(r30)
 8028  000075c8  08000010	j	L329_LF6
 8029  000075cc  54000000	nop; not filled.
 8030  000075d0          	L296_LF6:
 8031  000075d0  8fc1ff24	lw	r1,-220(r30)
 8032  000075d4  20210001	addi	r1,r1,#1
 8033  000075d8  afc1ff24	sw	-220(r30),r1
 8034  000075dc          	L329_LF6:
 8035  000075dc  903f0000	lbu	r31,(r1)
 8036  000075e0  63e10020	seqi	r1,r31,#32
 8037  000075e4  1420ffe8	bnez	r1,L296_LF6
 8038  000075e8  54000000	nop; not filled.
 8039  000075ec  63e10009	seqi	r1,r31,#9
 8040  000075f0  1420ffdc	bnez	r1,L296_LF6
 8041  000075f4  54000000	nop; not filled.
 8042  000075f8  8fc2ff24	lw	r2,-220(r30)
 8043  000075fc  805f0000	lb	r31,(r2)
 8044  00007600  33e300ff	andi	r3,r31,#0x00ff
 8045  00007604  6061000a	seqi	r1,r3,#10
 8046  00007608  10200014	beqz	r1,L298_LF6
 8047  0000760c  54000000	nop; not filled.
 8048  00007610  20410001	addi	r1,r2,#1
 8049  00007614  afc1ff24	sw	-220(r30),r1
 8050  00007618  0bfffe78	j	L282_LF6
 8051  0000761c  54000000	nop; not filled.
 8052  00007620          	L298_LF6:
 8053  00007620  20020000	addi	r2,r0,#0
 8054  00007624  23e1ffd0	addi	r1,r31,#-48
 8055  00007628  302100ff	andi	r1,r1,#0x00ff
 8056  0000762c  70210009	sleui	r1,r1,#9
 8057  00007630  14200024	bnez	r1,L304_LF6
 8058  00007634  54000000	nop; not filled.
 8059  00007638  23e1ff9f	addi	r1,r31,#-97
 8060  0000763c  302100ff	andi	r1,r1,#0x00ff
 8061  00007640  70210005	sleui	r1,r1,#5
 8062  00007644  14200010	bnez	r1,L304_LF6
 8063  00007648  54000000	nop; not filled.
 8064  0000764c  64610041	snei	r1,r3,#65
 8065  00007650  14200008	bnez	r1,L303_LF6
 8066  00007654  54000000	nop; not filled.
 8067  00007658          	L304_LF6:
 8068  00007658  20020001	addi	r2,r0,#1
 8069  0000765c          	L303_LF6:
 8070  0000765c  64410000	snei	r1,r2,#0
 8071  00007660  1020fe30	beqz	r1,L282_LF6
 8072  00007664  54000000	nop; not filled.
 8073  00007668  8fc1ff24	lw	r1,-220(r30)
 8074  0000766c  80220001	lb	r2,1(r1)
 8075  00007670  20030000	addi	r3,r0,#0
 8076  00007674  2041ffd0	addi	r1,r2,#-48
 8077  00007678  302100ff	andi	r1,r1,#0x00ff
 8078  0000767c  70210009	sleui	r1,r1,#9
 8079  00007680  14200028	bnez	r1,L307_LF6
 8080  00007684  54000000	nop; not filled.
 8081  00007688  2041ff9f	addi	r1,r2,#-97
 8082  0000768c  302100ff	andi	r1,r1,#0x00ff
 8083  00007690  70210005	sleui	r1,r1,#5
 8084  00007694  14200014	bnez	r1,L307_LF6
 8085  00007698  54000000	nop; not filled.
 8086  0000769c  304100ff	andi	r1,r2,#0x00ff
 8087  000076a0  64210041	snei	r1,r1,#65
 8088  000076a4  14200008	bnez	r1,L306_LF6
 8089  000076a8  54000000	nop; not filled.
 8090  000076ac          	L307_LF6:
 8091  000076ac  20030001	addi	r3,r0,#1
 8092  000076b0          	L306_LF6:
 8093  000076b0  64610000	snei	r1,r3,#0
 8094  000076b4  1020fddc	beqz	r1,L282_LF6
 8095  000076b8  54000000	nop; not filled.
 8096  000076bc  8fc1ff24	lw	r1,-220(r30)
 8097  000076c0  90220000	lbu	r2,(r1)
 8098  000076c4  00021820	add	r3,r0,r2
 8099  000076c8  205fffd0	addi	r31,r2,#-48
 8100  000076cc  73e10009	sleui	r1,r31,#9
 8101  000076d0  10200010	beqz	r1,L309_LF6
 8102  000076d4  54000000	nop; not filled.
 8103  000076d8  001f2020	add	r4,r0,r31
 8104  000076dc  08000038	j	L308_LF6
 8105  000076e0  54000000	nop; not filled.
 8106  000076e4          	L309_LF6:
 8107  000076e4  2041ff9f	addi	r1,r2,#-97
 8108  000076e8  70210005	sleui	r1,r1,#5
 8109  000076ec  10200010	beqz	r1,L311_LF6
 8110  000076f0  54000000	nop; not filled.
 8111  000076f4  2044ffa9	addi	r4,r2,#-87
 8112  000076f8  0800001c	j	L308_LF6
 8113  000076fc  54000000	nop; not filled.
 8114  00007700          	L311_LF6:
 8115  00007700  2061ffbf	addi	r1,r3,#-65
 8116  00007704  70210005	sleui	r1,r1,#5
 8117  00007708  20040000	addi	r4,r0,#0
 8118  0000770c  10200008	beqz	r1,L308_LF6
 8119  00007710  54000000	nop; not filled.
 8120  00007714  2064ffc9	addi	r4,r3,#-55
 8121  00007718          	L308_LF6:
 8122  00007718  8fc1ff24	lw	r1,-220(r30)
 8123  0000771c  90220001	lbu	r2,1(r1)
 8124  00007720  00021820	add	r3,r0,r2
 8125  00007724  205fffd0	addi	r31,r2,#-48
 8126  00007728  73e10009	sleui	r1,r31,#9
 8127  0000772c  10200010	beqz	r1,L316_LF6
 8128  00007730  54000000	nop; not filled.
 8129  00007734  001f1020	add	r2,r0,r31
 8130  00007738  08000038	j	L315_LF6
 8131  0000773c  54000000	nop; not filled.
 8132  00007740          	L316_LF6:
 8133  00007740  2041ff9f	addi	r1,r2,#-97
 8134  00007744  70210005	sleui	r1,r1,#5
 8135  00007748  10200010	beqz	r1,L318_LF6
 8136  0000774c  54000000	nop; not filled.
 8137  00007750  2042ffa9	addi	r2,r2,#-87
 8138  00007754  0800001c	j	L315_LF6
 8139  00007758  54000000	nop; not filled.
 8140  0000775c          	L318_LF6:
 8141  0000775c  2061ffbf	addi	r1,r3,#-65
 8142  00007760  70210005	sleui	r1,r1,#5
 8143  00007764  20020000	addi	r2,r0,#0
 8144  00007768  10200008	beqz	r1,L315_LF6
 8145  0000776c  54000000	nop; not filled.
 8146  00007770  2062ffc9	addi	r2,r3,#-55
 8147  00007774          	L315_LF6:
 8148  00007774  50810004	slli	r1,r4,#0x4
 8149  00007778  00220820	add	r1,r1,r2
 8150  0000777c  a0c10000	sb	(r6),r1
 8151  00007780  20c60001	addi	r6,r6,#1
 8152  00007784  20a50001	addi	r5,r5,#1
 8153  00007788  8fc1ff24	lw	r1,-220(r30)
 8154  0000778c  20210002	addi	r1,r1,#2
 8155  00007790  afc1ff24	sw	-220(r30),r1
 8156  00007794  8ce10000	lw	r1,(r7)
 8157  00007798  20210001	addi	r1,r1,#1
 8158  0000779c  ace10000	sw	(r7),r1
 8159  000077a0  0bfffe20	j	L293_LF6
 8160  000077a4  54000000	nop; not filled.
 8161  000077a8          	L283_LF6:
 8162  000077a8  23bdfff0	addi	r29,r29,#-16
 8163  000077ac  afaa0000	sw	(r29),r10
 8164  000077b0  8fc1ff24	lw	r1,-220(r30)
 8165  000077b4  00290820	add	r1,r1,r9
 8166  000077b8  23c3ff28	addi	r3,r30,#-216
 8167  000077bc  00230822	sub	r1,r1,r3
 8168  000077c0  afa10004	sw	4(r29),r1
 8169  000077c4  200c0000	addi	r12,r0,#0
 8170  000077c8  afac0008	sw	8(r29),r12
 8171  000077cc  0fffb228	jal	_FsSeek
 8172  000077d0  54000000	nop; not filled.
 8173  000077d4  3c020001	lhi	r2,((_debugstr)>>16)&0xffff
 8174  000077d8  24421f50	addui	r2,r2,(_debugstr)&0xffff
 8175  000077dc  afa20000	sw	(r29),r2
 8176  000077e0  200c0066	addi	r12,r0,#102
 8177  000077e4  afac0004	sw	4(r29),r12
 8178  000077e8  0fffd24c	jal	_dindex
 8179  000077ec  54000000	nop; not filled.
 8180  000077f0  23bd0010	addi	r29,r29,#16
 8181  000077f4  64210000	snei	r1,r1,#0
 8182  000077f8  1420002c	bnez	r1,L324_LF6
 8183  000077fc  54000000	nop; not filled.
 8184  00007800  23bdfff8	addi	r29,r29,#-8
 8185  00007804  afa20000	sw	(r29),r2
 8186  00007808  200c002b	addi	r12,r0,#43
 8187  0000780c  afac0004	sw	4(r29),r12
 8188  00007810  0fffd224	jal	_dindex
 8189  00007814  54000000	nop; not filled.
 8190  00007818  23bd0008	addi	r29,r29,#8
 8191  0000781c  64210000	snei	r1,r1,#0
 8192  00007820  10200034	beqz	r1,L323_LF6
 8193  00007824  54000000	nop; not filled.
 8194  00007828          	L324_LF6:
 8195  00007828  23bdfff0	addi	r29,r29,#-16
 8196  0000782c  3c0c0001	lhi	r12,((LC42_LF6)>>16)&0xffff
 8197  00007830  258c1b84	addui	r12,r12,(LC42_LF6)&0xffff
 8198  00007834  afac0000	sw	(r29),r12
 8199  00007838  8fc1ff24	lw	r1,-220(r30)
 8200  0000783c  00290820	add	r1,r1,r9
 8201  00007840  00230822	sub	r1,r1,r3
 8202  00007844  afa10004	sw	4(r29),r1
 8203  00007848  afa50008	sw	8(r29),r5
 8204  0000784c  0c00513c	jal	_printf
 8205  00007850  54000000	nop; not filled.
 8206  00007854  23bd0010	addi	r29,r29,#16
 8207  00007858          	L323_LF6:
 8208  00007858  00050820	add	r1,r0,r5
 8209  0000785c          	L325_LF6:
 8210  0000785c  8fa20000	lw	r2,0(r29)
 8211  00007860  8fa30004	lw	r3,4(r29)
 8212  00007864  8fa40008	lw	r4,8(r29)
 8213  00007868  8fa5000c	lw	r5,12(r29)
 8214  0000786c  8fa60010	lw	r6,16(r29)
 8215  00007870  8fa70014	lw	r7,20(r29)
 8216  00007874  8fa80018	lw	r8,24(r29)
 8217  00007878  8fa9001c	lw	r9,28(r29)
 8218  0000787c  8faa0020	lw	r10,32(r29)
 8219  00007880  8fab0024	lw	r11,36(r29)
 8220  00007884  8fac0028	lw	r12,40(r29)
 8221  00007888  8fdffff8	lw	r31,-8(r30)
 8222  0000788c  001ee820	add	r29,r0,r30
 8223  00007890  8fdefffc	lw	r30,-4(r30)
 8224  00007894  4be00000	jr	r31
 8225  00007898  54000000	nop
 8226  0000789c          	.endproc _ProcessGetFromFile
 8227  0000789c          	.data
 8228  00011bab          	.align 2
 8229  00011bac          	_temppcb60_LF6:
 8230  00011bac          	.space 180
 8231  00011c60          	.align 2
 8232  00011c60          	LC43_LF6:
 8233  00011c60  476f7420	.ascii "Got %d arguments.\n\000"
 8233  00011c64  25642061	
 8233  00011c68  7267756d	
 8233  00011c6c  656e7473	
 8233  00011c70  2e0a00  	
 8234  00011c73          	.align 2
 8235  00011c74          	LC44_LF6:
 8236  00011c74  41766169	.ascii "Available memory: 0x%x -> 0x%x.\n\000"
 8236  00011c78  6c61626c	
 8236  00011c7c  65206d65	
 8236  00011c80  6d6f7279	
 8236  00011c84  3a203078	
 8236  00011c88  2578202d	
 8236  00011c8c  3e203078	
 8236  00011c90  25782e0a	
 8236  00011c94  00      	
 8237  00011c95          	.align 2
 8238  00011c98          	LC45_LF6:
 8239  00011c98  41726775	.ascii "Argument count is %d.\n\000"
 8239  00011c9c  6d656e74	
 8239  00011ca0  20636f75	
 8239  00011ca4  6e742069	
 8239  00011ca8  73202564	
 8239  00011cac  2e0a00  	
 8240  00011caf          	.align 2
 8241  00011cb0          	LC46_LF6:
 8242  00011cb0  41726775	.ascii "Argument %d is %s.\n\000"
 8242  00011cb4  6d656e74	
 8242  00011cb8  20256420	
 8242  00011cbc  69732025	
 8242  00011cc0  732e0a00	
 8243  00011cc4          	.align 2
 8244  00011cc4          	LC47_LF6:
 8245  00011cc4  436f6e76	.ascii "Converted %s to %d=%s\n\000"
 8245  00011cc8  65727465	
 8245  00011ccc  64202573	
 8245  00011cd0  20746f20	
 8245  00011cd4  25643d25	
 8245  00011cd8  730a00  	
 8246  00011cdb          	_buf61_LF6:
 8247  00011cdb          	.space 200
 8248  00011da3          	.align 2
 8249  00011da4          	LC48_LF6:
 8250  00011da4  25303878	.ascii "%08x: %02x%02x%02x%02x\n\000"
 8250  00011da8  3a202530	
 8250  00011dac  32782530	
 8250  00011db0  32782530	
 8250  00011db4  32782530	
 8250  00011db8  32780a00	
 8251  00011dbc          	.align 2
 8252  00011dbc          	LC49_LF6:
 8253  00011dbc  4f707469	.ascii "Option %s not recognized.\n\000"
 8253  00011dc0  6f6e2025	
 8253  00011dc4  73206e6f	
 8253  00011dc8  74207265	
 8253  00011dcc  636f676e	
 8253  00011dd0  697a6564	
 8253  00011dd4  2e0a00  	
 8254  00011dd7          	.align 2
 8255  00011dd8          	LC50_LF6:
 8256  00011dd8  41626f75	.ascii "About to initialize queues.\n\000"
 8256  00011ddc  7420746f	
 8256  00011de0  20696e69	
 8256  00011de4  7469616c	
 8256  00011de8  697a6520	
 8256  00011dec  71756575	
 8256  00011df0  65732e0a	
 8256  00011df4  00      	
 8257  00011df5          	.align 2
 8258  00011df8          	LC51_LF6:
 8259  00011df8  41667465	.ascii "After initializing queues.\n\000"
 8259  00011dfc  7220696e	
 8259  00011e00  69746961	
 8259  00011e04  6c697a69	
 8259  00011e08  6e672071	
 8259  00011e0c  75657565	
 8259  00011e10  732e0a00	
 8260  00011e14          	.align 2
 8261  00011e14          	LC52_LF6:
 8262  00011e14  41667465	.ascii "After initializing memory.\n\000"
 8262  00011e18  7220696e	
 8262  00011e1c  69746961	
 8262  00011e20  6c697a69	
 8262  00011e24  6e67206d	
 8262  00011e28  656d6f72	
 8262  00011e2c  792e0a00	
 8263  00011e30          	.align 2
 8264  00011e30          	LC53_LF6:
 8265  00011e30  41667465	.ascii "After initializing processes.\n\000"
 8265  00011e34  7220696e	
 8265  00011e38  69746961	
 8265  00011e3c  6c697a69	
 8265  00011e40  6e672070	
 8265  00011e44  726f6365	
 8265  00011e48  73736573	
 8265  00011e4c  2e0a00  	
 8266  00011e4f          	.align 2
 8267  00011e50          	LC54_LF6:
 8268  00011e50  41667465	.ascii "After initializing shared memory.\n\000"
 8268  00011e54  7220696e	
 8268  00011e58  69746961	
 8268  00011e5c  6c697a69	
 8268  00011e60  6e672073	
 8268  00011e64  68617265	
 8268  00011e68  64206d65	
 8268  00011e6c  6d6f7279	
 8268  00011e70  2e0a00  	
 8269  00011e73          	.align 2
 8270  00011e74          	LC55_LF6:
 8271  00011e74  41667465	.ascii "After initializing synchronization tools.\n\000"
 8271  00011e78  7220696e	
 8271  00011e7c  69746961	
 8271  00011e80  6c697a69	
 8271  00011e84  6e672073	
 8271  00011e88  796e6368	
 8271  00011e8c  726f6e69	
 8271  00011e90  7a617469	
 8271  00011e94  6f6e2074	
 8271  00011e98  6f6f6c73	
 8271  00011e9c  2e0a00  	
 8272  00011e9f          	.align 2
 8273  00011ea0          	LC56_LF6:
 8274  00011ea0  41667465	.ascii "After initializing keyboard.\n\000"
 8274  00011ea4  7220696e	
 8274  00011ea8  69746961	
 8274  00011eac  6c697a69	
 8274  00011eb0  6e67206b	
 8274  00011eb4  6579626f	
 8274  00011eb8  6172642e	
 8274  00011ebc  0a00    	
 8275  00011ebe          	.align 2
 8276  00011ec0          	LC57_LF6:
 8277  00011ec0  766d00  	.ascii "vm\000"
 8278  00011ec3          	.align 2
 8279  00011ec4          	LC58_LF6:
 8280  00011ec4  564d2044	.ascii "VM Descriptor is %d\n\000"
 8280  00011ec8  65736372	
 8280  00011ecc  6970746f	
 8280  00011ed0  72206973	
 8280  00011ed4  2025640a	
 8280  00011ed8  00      	
 8281  00011ed9          	.align 2
 8282  00011edc          	LC59_LF6:
 8283  00011edc  43726561	.ascii "Created processes - about to set timer quantum.\n\000"
 8283  00011ee0  74656420	
 8283  00011ee4  70726f63	
 8283  00011ee8  65737365	
 8283  00011eec  73202d20	
 8283  00011ef0  61626f75	
 8283  00011ef4  7420746f	
 8283  00011ef8  20736574	
 8283  00011efc  2074696d	
 8283  00011f00  65722071	
 8283  00011f04  75616e74	
 8283  00011f08  756d2e0a	
 8283  00011f0c  00      	
 8284  00011f0d          	.align 2
 8285  00011f10          	LC60_LF6:
 8286  00011f10  53657420	.ascii "Set timer quantum to %d, about to run first process.\n\000"
 8286  00011f14  74696d65	
 8286  00011f18  72207175	
 8286  00011f1c  616e7475	
 8286  00011f20  6d20746f	
 8286  00011f24  2025642c	
 8286  00011f28  2061626f	
 8286  00011f2c  75742074	
 8286  00011f30  6f207275	
 8286  00011f34  6e206669	
 8286  00011f38  72737420	
 8286  00011f3c  70726f63	
 8286  00011f40  6573732e	
 8286  00011f44  0a00    	
 8287  00011f46          	.text
 8288  0000789c          	.align 2
 8289  0000789c          	.proc _main
 8290  0000789c          	.global _main
 8291  0000789c          	_main:
 8292                      ;  Function 'main'; 192 bytes of locals, 0 regs to save.
 8293  0000789c  afbefffc	sw	-4(r29),r30; push fp
 8294  000078a0  001df020	add	r30,r0,r29; fp = sp
 8295  000078a4  afbffff8	sw	-8(r29),r31; push ret addr
 8296  000078a8  2fbd00c8	subui	r29,r29,#200; alloc local storage
 8297  000078ac  8fce0000	lw	r14,(r30)
 8298  000078b0  8fd40004	lw	r20,4(r30)
 8299  000078b4  0c00503c	jal	___main
 8300  000078b8  54000000	nop; not filled.
 8301  000078bc  20100000	addi	r16,r0,#0
 8302  000078c0  20150000	addi	r21,r0,#0
 8303  000078c4  afd5ff50	sw	-176(r30),r21
 8304  000078c8  afd5ff54	sw	-172(r30),r21
 8305  000078cc  afd5ff58	sw	-168(r30),r21
 8306  000078d0  afd5ff5c	sw	-164(r30),r21
 8307  000078d4  afd5ff60	sw	-160(r30),r21
 8308  000078d8  afd5ff64	sw	-156(r30),r21
 8309  000078dc  afd5ff68	sw	-152(r30),r21
 8310  000078e0  afd5ff6c	sw	-148(r30),r21
 8311  000078e4  afd5ff70	sw	-144(r30),r21
 8312  000078e8  afd5ff74	sw	-140(r30),r21
 8313  000078ec  afd5ff78	sw	-136(r30),r21
 8314  000078f0  afd5ff7c	sw	-132(r30),r21
 8315  000078f4  3c010001	lhi	r1,((_debugstr)>>16)&0xffff
 8316  000078f8  24211f50	addui	r1,r1,(_debugstr)&0xffff
 8317  000078fc  20150000	addi	r21,r0,(#0x0)&0xff
 8318  00007900  a0350000	sb	(r1),r21
 8319  00007904  23bdfff8	addi	r29,r29,#-8
 8320  00007908  3c150001	lhi	r21,((LC43_LF6)>>16)&0xffff
 8321  0000790c  26b51c60	addui	r21,r21,(LC43_LF6)&0xffff
 8322  00007910  afb50000	sw	(r29),r21
 8323  00007914  afae0004	sw	4(r29),r14
 8324  00007918  0c005070	jal	_printf
 8325  0000791c  54000000	nop; not filled.
 8326  00007920  0fffbcec	jal	_MemoryGetSize
 8327  00007924  54000000	nop; not filled.
 8328  00007928  23bdfff8	addi	r29,r29,#-8
 8329  0000792c  3c150001	lhi	r21,((LC44_LF6)>>16)&0xffff
 8330  00007930  26b51c74	addui	r21,r21,(LC44_LF6)&0xffff
 8331  00007934  afb50000	sw	(r29),r21
 8332  00007938  3c020001	lhi	r2,((_lastosaddress)>>16)&0xffff
 8333  0000793c  24426004	addui	r2,r2,(_lastosaddress)&0xffff
 8334  00007940  8c420000	lw	r2,(r2)
 8335  00007944  afa20004	sw	4(r29),r2
 8336  00007948  afa10008	sw	8(r29),r1
 8337  0000794c  0c00503c	jal	_printf
 8338  00007950  54000000	nop; not filled.
 8339  00007954  3c150001	lhi	r21,((LC45_LF6)>>16)&0xffff
 8340  00007958  26b51c98	addui	r21,r21,(LC45_LF6)&0xffff
 8341  0000795c  afb50000	sw	(r29),r21
 8342  00007960  afae0004	sw	4(r29),r14
 8343  00007964  0c005024	jal	_printf
 8344  00007968  54000000	nop; not filled.
 8345  0000796c  20090000	addi	r9,r0,#0
 8346  00007970  23bd0010	addi	r29,r29,#16
 8347  00007974  012e082a	slt	r1,r9,r14
 8348  00007978  10200044	beqz	r1,L332_LF6
 8349  0000797c  54000000	nop; not filled.
 8350  00007980  00141020	add	r2,r0,r20
 8351  00007984          	L334_LF6:
 8352  00007984  23bdfff0	addi	r29,r29,#-16
 8353  00007988  3c150001	lhi	r21,((LC46_LF6)>>16)&0xffff
 8354  0000798c  26b51cb0	addui	r21,r21,(LC46_LF6)&0xffff
 8355  00007990  afb50000	sw	(r29),r21
 8356  00007994  afa90004	sw	4(r29),r9
 8357  00007998  8c550000	lw	r21,(r2)
 8358  0000799c  afb50008	sw	8(r29),r21
 8359  000079a0  0c004fe8	jal	_printf
 8360  000079a4  54000000	nop; not filled.
 8361  000079a8  23bd0010	addi	r29,r29,#16
 8362  000079ac  20420004	addi	r2,r2,#4
 8363  000079b0  21290001	addi	r9,r9,#1
 8364  000079b4  012e082a	slt	r1,r9,r14
 8365  000079b8  1420ffc8	bnez	r1,L334_LF6
 8366  000079bc  54000000	nop; not filled.
 8367  000079c0          	L332_LF6:
 8368  000079c0  0fffb6c0	jal	_FsModuleInit
 8369  000079c4  54000000	nop; not filled.
 8370  000079c8  20090000	addi	r9,r0,#0
 8371  000079cc  012e082a	slt	r1,r9,r14
 8372  000079d0  1020033c	beqz	r1,L337_LF6
 8373  000079d4  54000000	nop; not filled.
 8374  000079d8  23ccff80	addi	r12,r30,#-128
 8375  000079dc  23cdff38	addi	r13,r30,#-200
 8376  000079e0  3c0f0001	lhi	r15,((_buf61_LF6)>>16)&0xffff
 8377  000079e4  25ef1cdb	addui	r15,r15,(_buf61_LF6)&0xffff
 8378  000079e8  21f20001	addi	r18,r15,#1
 8379  000079ec  21f10002	addi	r17,r15,#2
 8380  000079f0  00144020	add	r8,r0,r20
 8381  000079f4          	L339_LF6:
 8382  000079f4  8d020000	lw	r2,(r8)
 8383  000079f8  90410000	lbu	r1,(r2)
 8384  000079fc  6021002d	seqi	r1,r1,#45
 8385  00007a00  102002f8	beqz	r1,L338_LF6
 8386  00007a04  54000000	nop; not filled.
 8387  00007a08  90420001	lbu	r2,1(r2)
 8388  00007a0c  60410066	seqi	r1,r2,#102
 8389  00007a10  142000e0	bnez	r1,L344_LF6
 8390  00007a14  54000000	nop; not filled.
 8391  00007a18  6c410066	sgti	r1,r2,#102
 8392  00007a1c  14200018	bnez	r1,L356_LF6
 8393  00007a20  54000000	nop; not filled.
 8394  00007a24  60410044	seqi	r1,r2,#68
 8395  00007a28  102002a0	beqz	r1,L354_LF6
 8396  00007a2c  54000000	nop; not filled.
 8397  00007a30  08000024	j	L342_LF6
 8398  00007a34  54000000	nop; not filled.
 8399  00007a38          	L356_LF6:
 8400  00007a38  60410069	seqi	r1,r2,#105
 8401  00007a3c  14200048	bnez	r1,L343_LF6
 8402  00007a40  54000000	nop; not filled.
 8403  00007a44  60410075	seqi	r1,r2,#117
 8404  00007a48  10200280	beqz	r1,L354_LF6
 8405  00007a4c  54000000	nop; not filled.
 8406  00007a50  08000260	j	L353_LF6
 8407  00007a54  54000000	nop; not filled.
 8408  00007a58          	L342_LF6:
 8409  00007a58  23bdfff8	addi	r29,r29,#-8
 8410  00007a5c  3c150001	lhi	r21,((_debugstr)>>16)&0xffff
 8411  00007a60  26b51f50	addui	r21,r21,(_debugstr)&0xffff
 8412  00007a64  afb50000	sw	(r29),r21
 8413  00007a68  21080004	addi	r8,r8,#4
 8414  00007a6c  21290001	addi	r9,r9,#1
 8415  00007a70  8d010000	lw	r1,(r8)
 8416  00007a74  afa10004	sw	4(r29),r1
 8417  00007a78  0fffcafc	jal	_dstrcpy
 8418  00007a7c  54000000	nop; not filled.
 8419  00007a80  08000268	j	L391_LF6
 8420  00007a84  54000000	nop; not filled.
 8421  00007a88          	L343_LF6:
 8422  00007a88  23bdfff0	addi	r29,r29,#-16
 8423  00007a8c  21080004	addi	r8,r8,#4
 8424  00007a90  21290001	addi	r9,r9,#1
 8425  00007a94  8d150000	lw	r21,(r8)
 8426  00007a98  afb50000	sw	(r29),r21
 8427  00007a9c  20150000	addi	r21,r0,#0
 8428  00007aa0  afb50004	sw	4(r29),r21
 8429  00007aa4  afb50008	sw	8(r29),r21
 8430  00007aa8  0fffd114	jal	_dstrtol
 8431  00007aac  54000000	nop; not filled.
 8432  00007ab0  00011820	add	r3,r0,r1
 8433  00007ab4  afa10000	sw	(r29),r1
 8434  00007ab8  afac0004	sw	4(r29),r12
 8435  00007abc  0fffcff4	jal	_ditoa
 8436  00007ac0  54000000	nop; not filled.
 8437  00007ac4  3c150001	lhi	r21,((LC47_LF6)>>16)&0xffff
 8438  00007ac8  26b51cc4	addui	r21,r21,(LC47_LF6)&0xffff
 8439  00007acc  afb50000	sw	(r29),r21
 8440  00007ad0  8d010000	lw	r1,(r8)
 8441  00007ad4  afa10004	sw	4(r29),r1
 8442  00007ad8  afa30008	sw	8(r29),r3
 8443  00007adc  afac000c	sw	12(r29),r12
 8444  00007ae0  0c004ea8	jal	_printf
 8445  00007ae4  54000000	nop; not filled.
 8446  00007ae8  23bd0010	addi	r29,r29,#16
 8447  00007aec  08000200	j	L341_LF6
 8448  00007af0  54000000	nop; not filled.
 8449  00007af4          	L344_LF6:
 8450  00007af4  20150000	addi	r21,r0,#0
 8451  00007af8  afd5ff38	sw	-200(r30),r21
 8452  00007afc  23bdffe8	addi	r29,r29,#-24
 8453  00007b00  21080004	addi	r8,r8,#4
 8454  00007b04  21290001	addi	r9,r9,#1
 8455  00007b08  8d150000	lw	r21,(r8)
 8456  00007b0c  afb50000	sw	(r29),r21
 8457  00007b10  23c1ff4c	addi	r1,r30,#-180
 8458  00007b14  afa10004	sw	4(r29),r1
 8459  00007b18  23c1ff48	addi	r1,r30,#-184
 8460  00007b1c  afa10008	sw	8(r29),r1
 8461  00007b20  23c1ff44	addi	r1,r30,#-188
 8462  00007b24  afa1000c	sw	12(r29),r1
 8463  00007b28  23c1ff40	addi	r1,r30,#-192
 8464  00007b2c  afa10010	sw	16(r29),r1
 8465  00007b30  23c1ff3c	addi	r1,r30,#-196
 8466  00007b34  afa10014	sw	20(r29),r1
 8467  00007b38  0ffff268	jal	_ProcessGetCodeInfo
 8468  00007b3c  54000000	nop; not filled.
 8469  00007b40  00015020	add	r10,r0,r1
 8470  00007b44  3c150001	lhi	r21,((LC27_LF6)>>16)&0xffff
 8471  00007b48  26b51980	addui	r21,r21,(LC27_LF6)&0xffff
 8472  00007b4c  afb50000	sw	(r29),r21
 8473  00007b50  8d010000	lw	r1,(r8)
 8474  00007b54  afa10004	sw	4(r29),r1
 8475  00007b58  8fd5ff4c	lw	r21,-180(r30)
 8476  00007b5c  afb50008	sw	8(r29),r21
 8477  00007b60  0c004e28	jal	_printf
 8478  00007b64  54000000	nop; not filled.
 8479  00007b68  3c150001	lhi	r21,((LC28_LF6)>>16)&0xffff
 8480  00007b6c  26b5199c	addui	r21,r21,(LC28_LF6)&0xffff
 8481  00007b70  afb50000	sw	(r29),r21
 8482  00007b74  8d010000	lw	r1,(r8)
 8483  00007b78  afa10004	sw	4(r29),r1
 8484  00007b7c  8fd5ff48	lw	r21,-184(r30)
 8485  00007b80  afb50008	sw	8(r29),r21
 8486  00007b84  8fd5ff44	lw	r21,-188(r30)
 8487  00007b88  afb5000c	sw	12(r29),r21
 8488  00007b8c  0c004dfc	jal	_printf
 8489  00007b90  54000000	nop; not filled.
 8490  00007b94  3c150001	lhi	r21,((LC29_LF6)>>16)&0xffff
 8491  00007b98  26b519c4	addui	r21,r21,(LC29_LF6)&0xffff
 8492  00007b9c  afb50000	sw	(r29),r21
 8493  00007ba0  8d010000	lw	r1,(r8)
 8494  00007ba4  afa10004	sw	4(r29),r1
 8495  00007ba8  8fd5ff40	lw	r21,-192(r30)
 8496  00007bac  afb50008	sw	8(r29),r21
 8497  00007bb0  8fd5ff3c	lw	r21,-196(r30)
 8498  00007bb4  afb5000c	sw	12(r29),r21
 8499  00007bb8  0c004dd0	jal	_printf
 8500  00007bbc  54000000	nop; not filled.
 8501  00007bc0  23bd0018	addi	r29,r29,#24
 8502  00007bc4  3c0b0001	lhi	r11,((_buf61_LF6+3)>>16)&0xffff
 8503  00007bc8  256b1cde	addui	r11,r11,(_buf61_LF6+3)&0xffff
 8504  00007bcc          	L345_LF6:
 8505  00007bcc  23bdfff0	addi	r29,r29,#-16
 8506  00007bd0  afaa0000	sw	(r29),r10
 8507  00007bd4  3c150001	lhi	r21,((_buf61_LF6)>>16)&0xffff
 8508  00007bd8  26b51cdb	addui	r21,r21,(_buf61_LF6)&0xffff
 8509  00007bdc  afb50004	sw	4(r29),r21
 8510  00007be0  afad0008	sw	8(r29),r13
 8511  00007be4  201500c8	addi	r21,r0,#200
 8512  00007be8  afb5000c	sw	12(r29),r21
 8513  00007bec  0ffff614	jal	_ProcessGetFromFile
 8514  00007bf0  54000000	nop; not filled.
 8515  00007bf4  00011820	add	r3,r0,r1
 8516  00007bf8  23bd0010	addi	r29,r29,#16
 8517  00007bfc  6c610000	sgti	r1,r3,#0
 8518  00007c00  10200098	beqz	r1,L346_LF6
 8519  00007c04  54000000	nop; not filled.
 8520  00007c08  20020000	addi	r2,r0,#0
 8521  00007c0c  0043082a	slt	r1,r2,r3
 8522  00007c10  1020ffb8	beqz	r1,L345_LF6
 8523  00007c14  54000000	nop; not filled.
 8524  00007c18  000b3820	add	r7,r0,r11
 8525  00007c1c  00113020	add	r6,r0,r17
 8526  00007c20  00122820	add	r5,r0,r18
 8527  00007c24  000f2020	add	r4,r0,r15
 8528  00007c28          	L351_LF6:
 8529  00007c28  23bdffe8	addi	r29,r29,#-24
 8530  00007c2c  3c150001	lhi	r21,((LC48_LF6)>>16)&0xffff
 8531  00007c30  26b51da4	addui	r21,r21,(LC48_LF6)&0xffff
 8532  00007c34  afb50000	sw	(r29),r21
 8533  00007c38  8fc1ff38	lw	r1,-200(r30)
 8534  00007c3c  00220820	add	r1,r1,r2
 8535  00007c40  00230822	sub	r1,r1,r3
 8536  00007c44  afa10004	sw	4(r29),r1
 8537  00007c48  90810000	lbu	r1,(r4)
 8538  00007c4c  afa10008	sw	8(r29),r1
 8539  00007c50  90a10000	lbu	r1,(r5)
 8540  00007c54  afa1000c	sw	12(r29),r1
 8541  00007c58  90c10000	lbu	r1,(r6)
 8542  00007c5c  afa10010	sw	16(r29),r1
 8543  00007c60  90e10000	lbu	r1,(r7)
 8544  00007c64  afa10014	sw	20(r29),r1
 8545  00007c68  0c004d20	jal	_printf
 8546  00007c6c  54000000	nop; not filled.
 8547  00007c70  23bd0018	addi	r29,r29,#24
 8548  00007c74  20e70004	addi	r7,r7,#4
 8549  00007c78  20c60004	addi	r6,r6,#4
 8550  00007c7c  20a50004	addi	r5,r5,#4
 8551  00007c80  20840004	addi	r4,r4,#4
 8552  00007c84  20420004	addi	r2,r2,#4
 8553  00007c88  0043082a	slt	r1,r2,r3
 8554  00007c8c  1420ff98	bnez	r1,L351_LF6
 8555  00007c90  54000000	nop; not filled.
 8556  00007c94  0bffff34	j	L345_LF6
 8557  00007c98  54000000	nop; not filled.
 8558  00007c9c          	L346_LF6:
 8559  00007c9c  23bdfff8	addi	r29,r29,#-8
 8560  00007ca0  afaa0000	sw	(r29),r10
 8561  00007ca4  0c004c60	jal	_close
 8562  00007ca8  54000000	nop; not filled.
 8563  00007cac  0800003c	j	L391_LF6
 8564  00007cb0  54000000	nop; not filled.
 8565  00007cb4          	L353_LF6:
 8566  00007cb4  21080004	addi	r8,r8,#4
 8567  00007cb8  21290001	addi	r9,r9,#1
 8568  00007cbc  8d100000	lw	r16,(r8)
 8569  00007cc0  00099820	add	r19,r0,r9
 8570  00007cc4  08000028	j	L341_LF6
 8571  00007cc8  54000000	nop; not filled.
 8572  00007ccc          	L354_LF6:
 8573  00007ccc  23bdfff8	addi	r29,r29,#-8
 8574  00007cd0  3c150001	lhi	r21,((LC49_LF6)>>16)&0xffff
 8575  00007cd4  26b51dbc	addui	r21,r21,(LC49_LF6)&0xffff
 8576  00007cd8  afb50000	sw	(r29),r21
 8577  00007cdc  8d010000	lw	r1,(r8)
 8578  00007ce0  afa10004	sw	4(r29),r1
 8579  00007ce4  0c004ca4	jal	_printf
 8580  00007ce8  54000000	nop; not filled.
 8581  00007cec          	L391_LF6:
 8582  00007cec  23bd0008	addi	r29,r29,#8
 8583  00007cf0          	L341_LF6:
 8584  00007cf0  66010000	snei	r1,r16,#0
 8585  00007cf4  14200018	bnez	r1,L337_LF6
 8586  00007cf8  54000000	nop; not filled.
 8587  00007cfc          	L338_LF6:
 8588  00007cfc  21080004	addi	r8,r8,#4
 8589  00007d00  21290001	addi	r9,r9,#1
 8590  00007d04  012e082a	slt	r1,r9,r14
 8591  00007d08  1420fce8	bnez	r1,L339_LF6
 8592  00007d0c  54000000	nop; not filled.
 8593  00007d10          	L337_LF6:
 8594  00007d10  23bdfff8	addi	r29,r29,#-8
 8595  00007d14  3c020001	lhi	r2,((_debugstr)>>16)&0xffff
 8596  00007d18  24421f50	addui	r2,r2,(_debugstr)&0xffff
 8597  00007d1c  afa20000	sw	(r29),r2
 8598  00007d20  20150069	addi	r21,r0,#105
 8599  00007d24  afb50004	sw	4(r29),r21
 8600  00007d28  0fffcd0c	jal	_dindex
 8601  00007d2c  54000000	nop; not filled.
 8602  00007d30  23bd0008	addi	r29,r29,#8
 8603  00007d34  64210000	snei	r1,r1,#0
 8604  00007d38  1420002c	bnez	r1,L360_LF6
 8605  00007d3c  54000000	nop; not filled.
 8606  00007d40  23bdfff8	addi	r29,r29,#-8
 8607  00007d44  afa20000	sw	(r29),r2
 8608  00007d48  2015002b	addi	r21,r0,#43
 8609  00007d4c  afb50004	sw	4(r29),r21
 8610  00007d50  0fffcce4	jal	_dindex
 8611  00007d54  54000000	nop; not filled.
 8612  00007d58  23bd0008	addi	r29,r29,#8
 8613  00007d5c  64210000	snei	r1,r1,#0
 8614  00007d60  10200020	beqz	r1,L359_LF6
 8615  00007d64  54000000	nop; not filled.
 8616  00007d68          	L360_LF6:
 8617  00007d68  23bdfff8	addi	r29,r29,#-8
 8618  00007d6c  3c150001	lhi	r21,((LC50_LF6)>>16)&0xffff
 8619  00007d70  26b51dd8	addui	r21,r21,(LC50_LF6)&0xffff
 8620  00007d74  afb50000	sw	(r29),r21
 8621  00007d78  0c004c10	jal	_printf
 8622  00007d7c  54000000	nop; not filled.
 8623  00007d80  23bd0008	addi	r29,r29,#8
 8624  00007d84          	L359_LF6:
 8625  00007d84  0c000d60	jal	_QueueModuleInit
 8626  00007d88  54000000	nop; not filled.
 8627  00007d8c  23bdfff8	addi	r29,r29,#-8
 8628  00007d90  3c020001	lhi	r2,((_debugstr)>>16)&0xffff
 8629  00007d94  24421f50	addui	r2,r2,(_debugstr)&0xffff
 8630  00007d98  afa20000	sw	(r29),r2
 8631  00007d9c  20150069	addi	r21,r0,#105
 8632  00007da0  afb50004	sw	4(r29),r21
 8633  00007da4  0fffcc90	jal	_dindex
 8634  00007da8  54000000	nop; not filled.
 8635  00007dac  23bd0008	addi	r29,r29,#8
 8636  00007db0  64210000	snei	r1,r1,#0
 8637  00007db4  1420002c	bnez	r1,L362_LF6
 8638  00007db8  54000000	nop; not filled.
 8639  00007dbc  23bdfff8	addi	r29,r29,#-8
 8640  00007dc0  afa20000	sw	(r29),r2
 8641  00007dc4  2015002b	addi	r21,r0,#43
 8642  00007dc8  afb50004	sw	4(r29),r21
 8643  00007dcc  0fffcc68	jal	_dindex
 8644  00007dd0  54000000	nop; not filled.
 8645  00007dd4  23bd0008	addi	r29,r29,#8
 8646  00007dd8  64210000	snei	r1,r1,#0
 8647  00007ddc  10200020	beqz	r1,L361_LF6
 8648  00007de0  54000000	nop; not filled.
 8649  00007de4          	L362_LF6:
 8650  00007de4  23bdfff8	addi	r29,r29,#-8
 8651  00007de8  3c150001	lhi	r21,((LC51_LF6)>>16)&0xffff
 8652  00007dec  26b51df8	addui	r21,r21,(LC51_LF6)&0xffff
 8653  00007df0  afb50000	sw	(r29),r21
 8654  00007df4  0c004b94	jal	_printf
 8655  00007df8  54000000	nop; not filled.
 8656  00007dfc  23bd0008	addi	r29,r29,#8
 8657  00007e00          	L361_LF6:
 8658  00007e00  0fffb96c	jal	_MemoryModuleInit
 8659  00007e04  54000000	nop; not filled.
 8660  00007e08  23bdfff8	addi	r29,r29,#-8
 8661  00007e0c  3c020001	lhi	r2,((_debugstr)>>16)&0xffff
 8662  00007e10  24421f50	addui	r2,r2,(_debugstr)&0xffff
 8663  00007e14  afa20000	sw	(r29),r2
 8664  00007e18  20150069	addi	r21,r0,#105
 8665  00007e1c  afb50004	sw	4(r29),r21
 8666  00007e20  0fffcc14	jal	_dindex
 8667  00007e24  54000000	nop; not filled.
 8668  00007e28  23bd0008	addi	r29,r29,#8
 8669  00007e2c  64210000	snei	r1,r1,#0
 8670  00007e30  1420002c	bnez	r1,L364_LF6
 8671  00007e34  54000000	nop; not filled.
 8672  00007e38  23bdfff8	addi	r29,r29,#-8
 8673  00007e3c  afa20000	sw	(r29),r2
 8674  00007e40  2015002b	addi	r21,r0,#43
 8675  00007e44  afb50004	sw	4(r29),r21
 8676  00007e48  0fffcbec	jal	_dindex
 8677  00007e4c  54000000	nop; not filled.
 8678  00007e50  23bd0008	addi	r29,r29,#8
 8679  00007e54  64210000	snei	r1,r1,#0
 8680  00007e58  10200020	beqz	r1,L363_LF6
 8681  00007e5c  54000000	nop; not filled.
 8682  00007e60          	L364_LF6:
 8683  00007e60  23bdfff8	addi	r29,r29,#-8
 8684  00007e64  3c150001	lhi	r21,((LC52_LF6)>>16)&0xffff
 8685  00007e68  26b51e14	addui	r21,r21,(LC52_LF6)&0xffff
 8686  00007e6c  afb50000	sw	(r29),r21
 8687  00007e70  0c004b18	jal	_printf
 8688  00007e74  54000000	nop; not filled.
 8689  00007e78  23bd0008	addi	r29,r29,#8
 8690  00007e7c          	L363_LF6:
 8691  00007e7c  0fffd4bc	jal	_ProcessModuleInit
 8692  00007e80  54000000	nop; not filled.
 8693  00007e84  23bdfff8	addi	r29,r29,#-8
 8694  00007e88  3c020001	lhi	r2,((_debugstr)>>16)&0xffff
 8695  00007e8c  24421f50	addui	r2,r2,(_debugstr)&0xffff
 8696  00007e90  afa20000	sw	(r29),r2
 8697  00007e94  20150069	addi	r21,r0,#105
 8698  00007e98  afb50004	sw	4(r29),r21
 8699  00007e9c  0fffcb98	jal	_dindex
 8700  00007ea0  54000000	nop; not filled.
 8701  00007ea4  23bd0008	addi	r29,r29,#8
 8702  00007ea8  64210000	snei	r1,r1,#0
 8703  00007eac  1420002c	bnez	r1,L366_LF6
 8704  00007eb0  54000000	nop; not filled.
 8705  00007eb4  23bdfff8	addi	r29,r29,#-8
 8706  00007eb8  afa20000	sw	(r29),r2
 8707  00007ebc  2015002b	addi	r21,r0,#43
 8708  00007ec0  afb50004	sw	4(r29),r21
 8709  00007ec4  0fffcb70	jal	_dindex
 8710  00007ec8  54000000	nop; not filled.
 8711  00007ecc  23bd0008	addi	r29,r29,#8
 8712  00007ed0  64210000	snei	r1,r1,#0
 8713  00007ed4  10200020	beqz	r1,L365_LF6
 8714  00007ed8  54000000	nop; not filled.
 8715  00007edc          	L366_LF6:
 8716  00007edc  23bdfff8	addi	r29,r29,#-8
 8717  00007ee0  3c150001	lhi	r21,((LC53_LF6)>>16)&0xffff
 8718  00007ee4  26b51e30	addui	r21,r21,(LC53_LF6)&0xffff
 8719  00007ee8  afb50000	sw	(r29),r21
 8720  00007eec  0c004a9c	jal	_printf
 8721  00007ef0  54000000	nop; not filled.
 8722  00007ef4  23bd0008	addi	r29,r29,#8
 8723  00007ef8          	L365_LF6:
 8724  00007ef8  0fff989c	jal	_ShareModuleInit
 8725  00007efc  54000000	nop; not filled.
 8726  00007f00  23bdfff8	addi	r29,r29,#-8
 8727  00007f04  3c020001	lhi	r2,((_debugstr)>>16)&0xffff
 8728  00007f08  24421f50	addui	r2,r2,(_debugstr)&0xffff
 8729  00007f0c  afa20000	sw	(r29),r2
 8730  00007f10  20150069	addi	r21,r0,#105
 8731  00007f14  afb50004	sw	4(r29),r21
 8732  00007f18  0fffcb1c	jal	_dindex
 8733  00007f1c  54000000	nop; not filled.
 8734  00007f20  23bd0008	addi	r29,r29,#8
 8735  00007f24  64210000	snei	r1,r1,#0
 8736  00007f28  1420002c	bnez	r1,L368_LF6
 8737  00007f2c  54000000	nop; not filled.
 8738  00007f30  23bdfff8	addi	r29,r29,#-8
 8739  00007f34  afa20000	sw	(r29),r2
 8740  00007f38  2015002b	addi	r21,r0,#43
 8741  00007f3c  afb50004	sw	4(r29),r21
 8742  00007f40  0fffcaf4	jal	_dindex
 8743  00007f44  54000000	nop; not filled.
 8744  00007f48  23bd0008	addi	r29,r29,#8
 8745  00007f4c  64210000	snei	r1,r1,#0
 8746  00007f50  10200020	beqz	r1,L367_LF6
 8747  00007f54  54000000	nop; not filled.
 8748  00007f58          	L368_LF6:
 8749  00007f58  23bdfff8	addi	r29,r29,#-8
 8750  00007f5c  3c150001	lhi	r21,((LC54_LF6)>>16)&0xffff
 8751  00007f60  26b51e50	addui	r21,r21,(LC54_LF6)&0xffff
 8752  00007f64  afb50000	sw	(r29),r21
 8753  00007f68  0c004a20	jal	_printf
 8754  00007f6c  54000000	nop; not filled.
 8755  00007f70  23bd0008	addi	r29,r29,#8
 8756  00007f74          	L367_LF6:
 8757  00007f74  0c0012fc	jal	_SynchModuleInit
 8758  00007f78  54000000	nop; not filled.
 8759  00007f7c  23bdfff8	addi	r29,r29,#-8
 8760  00007f80  3c020001	lhi	r2,((_debugstr)>>16)&0xffff
 8761  00007f84  24421f50	addui	r2,r2,(_debugstr)&0xffff
 8762  00007f88  afa20000	sw	(r29),r2
 8763  00007f8c  20150069	addi	r21,r0,#105
 8764  00007f90  afb50004	sw	4(r29),r21
 8765  00007f94  0fffcaa0	jal	_dindex
 8766  00007f98  54000000	nop; not filled.
 8767  00007f9c  23bd0008	addi	r29,r29,#8
 8768  00007fa0  64210000	snei	r1,r1,#0
 8769  00007fa4  1420002c	bnez	r1,L370_LF6
 8770  00007fa8  54000000	nop; not filled.
 8771  00007fac  23bdfff8	addi	r29,r29,#-8
 8772  00007fb0  afa20000	sw	(r29),r2
 8773  00007fb4  2015002b	addi	r21,r0,#43
 8774  00007fb8  afb50004	sw	4(r29),r21
 8775  00007fbc  0fffca78	jal	_dindex
 8776  00007fc0  54000000	nop; not filled.
 8777  00007fc4  23bd0008	addi	r29,r29,#8
 8778  00007fc8  64210000	snei	r1,r1,#0
 8779  00007fcc  10200020	beqz	r1,L369_LF6
 8780  00007fd0  54000000	nop; not filled.
 8781  00007fd4          	L370_LF6:
 8782  00007fd4  23bdfff8	addi	r29,r29,#-8
 8783  00007fd8  3c150001	lhi	r21,((LC55_LF6)>>16)&0xffff
 8784  00007fdc  26b51e74	addui	r21,r21,(LC55_LF6)&0xffff
 8785  00007fe0  afb50000	sw	(r29),r21
 8786  00007fe4  0c0049a4	jal	_printf
 8787  00007fe8  54000000	nop; not filled.
 8788  00007fec  23bd0008	addi	r29,r29,#8
 8789  00007ff0          	L369_LF6:
 8790  00007ff0  0c002824	jal	_KbdModuleInit
 8791  00007ff4  54000000	nop; not filled.
 8792  00007ff8  23bdfff8	addi	r29,r29,#-8
 8793  00007ffc  3c020001	lhi	r2,((_debugstr)>>16)&0xffff
 8794  00008000  24421f50	addui	r2,r2,(_debugstr)&0xffff
 8795  00008004  afa20000	sw	(r29),r2
 8796  00008008  20150069	addi	r21,r0,#105
 8797  0000800c  afb50004	sw	4(r29),r21
 8798  00008010  0fffca24	jal	_dindex
 8799  00008014  54000000	nop; not filled.
 8800  00008018  23bd0008	addi	r29,r29,#8
 8801  0000801c  64210000	snei	r1,r1,#0
 8802  00008020  1420002c	bnez	r1,L372_LF6
 8803  00008024  54000000	nop; not filled.
 8804  00008028  23bdfff8	addi	r29,r29,#-8
 8805  0000802c  afa20000	sw	(r29),r2
 8806  00008030  2015002b	addi	r21,r0,#43
 8807  00008034  afb50004	sw	4(r29),r21
 8808  00008038  0fffc9fc	jal	_dindex
 8809  0000803c  54000000	nop; not filled.
 8810  00008040  23bd0008	addi	r29,r29,#8
 8811  00008044  64210000	snei	r1,r1,#0
 8812  00008048  10200020	beqz	r1,L371_LF6
 8813  0000804c  54000000	nop; not filled.
 8814  00008050          	L372_LF6:
 8815  00008050  23bdfff8	addi	r29,r29,#-8
 8816  00008054  3c150001	lhi	r21,((LC56_LF6)>>16)&0xffff
 8817  00008058  26b51ea0	addui	r21,r21,(LC56_LF6)&0xffff
 8818  0000805c  afb50000	sw	(r29),r21
 8819  00008060  0c004928	jal	_printf
 8820  00008064  54000000	nop; not filled.
 8821  00008068  23bd0008	addi	r29,r29,#8
 8822  0000806c          	L371_LF6:
 8823  0000806c  23c2ff80	addi	r2,r30,#-128
 8824  00008070  23c3ffe3	addi	r3,r30,#-29
 8825  00008074          	L376_LF6:
 8826  00008074  20150061	addi	r21,r0,(#0x61)&0xff
 8827  00008078  a0550000	sb	(r2),r21
 8828  0000807c  20420001	addi	r2,r2,#1
 8829  00008080  0043082c	sle	r1,r2,r3
 8830  00008084  1420ffec	bnez	r1,L376_LF6
 8831  00008088  54000000	nop; not filled.
 8832  0000808c  23bdfff8	addi	r29,r29,#-8
 8833  00008090  3c150001	lhi	r21,((LC57_LF6)>>16)&0xffff
 8834  00008094  26b51ec0	addui	r21,r21,(LC57_LF6)&0xffff
 8835  00008098  afb50000	sw	(r29),r21
 8836  0000809c  20150002	addi	r21,r0,#2
 8837  000080a0  afb50004	sw	4(r29),r21
 8838  000080a4  0fffa2f4	jal	_FsOpen
 8839  000080a8  54000000	nop; not filled.
 8840  000080ac  00014820	add	r9,r0,r1
 8841  000080b0  3c020001	lhi	r2,((_debugstr)>>16)&0xffff
 8842  000080b4  24421f50	addui	r2,r2,(_debugstr)&0xffff
 8843  000080b8  afa20000	sw	(r29),r2
 8844  000080bc  20150069	addi	r21,r0,#105
 8845  000080c0  afb50004	sw	4(r29),r21
 8846  000080c4  0fffc970	jal	_dindex
 8847  000080c8  54000000	nop; not filled.
 8848  000080cc  23bd0008	addi	r29,r29,#8
 8849  000080d0  64210000	snei	r1,r1,#0
 8850  000080d4  1420002c	bnez	r1,L379_LF6
 8851  000080d8  54000000	nop; not filled.
 8852  000080dc  23bdfff8	addi	r29,r29,#-8
 8853  000080e0  afa20000	sw	(r29),r2
 8854  000080e4  2015002b	addi	r21,r0,#43
 8855  000080e8  afb50004	sw	4(r29),r21
 8856  000080ec  0fffc948	jal	_dindex
 8857  000080f0  54000000	nop; not filled.
 8858  000080f4  23bd0008	addi	r29,r29,#8
 8859  000080f8  64210000	snei	r1,r1,#0
 8860  000080fc  10200024	beqz	r1,L378_LF6
 8861  00008100  54000000	nop; not filled.
 8862  00008104          	L379_LF6:
 8863  00008104  23bdfff8	addi	r29,r29,#-8
 8864  00008108  3c150001	lhi	r21,((LC58_LF6)>>16)&0xffff
 8865  0000810c  26b51ec4	addui	r21,r21,(LC58_LF6)&0xffff
 8866  00008110  afb50000	sw	(r29),r21
 8867  00008114  afa90004	sw	4(r29),r9
 8868  00008118  0c004870	jal	_printf
 8869  0000811c  54000000	nop; not filled.
 8870  00008120  23bd0008	addi	r29,r29,#8
 8871  00008124          	L378_LF6:
 8872  00008124  23bdfff0	addi	r29,r29,#-16
 8873  00008128  afa90000	sw	(r29),r9
 8874  0000812c  20150000	addi	r21,r0,#0
 8875  00008130  afb50004	sw	4(r29),r21
 8876  00008134  afb50008	sw	8(r29),r21
 8877  00008138  0fffa8bc	jal	_FsSeek
 8878  0000813c  54000000	nop; not filled.
 8879  00008140  afa90000	sw	(r29),r9
 8880  00008144  23c1ff80	addi	r1,r30,#-128
 8881  00008148  afa10004	sw	4(r29),r1
 8882  0000814c  20150050	addi	r21,r0,#80
 8883  00008150  afb50008	sw	8(r29),r21
 8884  00008154  0fffa7a4	jal	_FsWrite
 8885  00008158  54000000	nop; not filled.
 8886  0000815c  afa90000	sw	(r29),r9
 8887  00008160  0fffa594	jal	_FsClose
 8888  00008164  54000000	nop; not filled.
 8889  00008168  23bd0010	addi	r29,r29,#16
 8890  0000816c  66010000	snei	r1,r16,#0
 8891  00008170  102000c4	beqz	r1,L380_LF6
 8892  00008174  54000000	nop; not filled.
 8893  00008178  00134820	add	r9,r0,r19
 8894  0000817c  026e082a	slt	r1,r19,r14
 8895  00008180  10200044	beqz	r1,L382_LF6
 8896  00008184  54000000	nop; not filled.
 8897  00008188  23c4fff8	addi	r4,r30,#-8
 8898  0000818c  51210002	slli	r1,r9,#0x2
 8899  00008190  00341820	add	r3,r1,r20
 8900  00008194          	L386_LF6:
 8901  00008194  01331022	sub	r2,r9,r19
 8902  00008198  7041000a	slei	r1,r2,#10
 8903  0000819c  10200028	beqz	r1,L382_LF6
 8904  000081a0  54000000	nop; not filled.
 8905  000081a4  50410002	slli	r1,r2,#0x2
 8906  000081a8  00240820	add	r1,r1,r4
 8907  000081ac  8c750000	lw	r21,(r3)
 8908  000081b0  ac35ff58	sw	-168(r1),r21
 8909  000081b4  20630004	addi	r3,r3,#4
 8910  000081b8  21290001	addi	r9,r9,#1
 8911  000081bc  012e082a	slt	r1,r9,r14
 8912  000081c0  1420ffd0	bnez	r1,L386_LF6
 8913  000081c4  54000000	nop; not filled.
 8914  000081c8          	L382_LF6:
 8915  000081c8  23bdffd0	addi	r29,r29,#-48
 8916  000081cc  8fd5ff50	lw	r21,-176(r30)
 8917  000081d0  afb50000	sw	(r29),r21
 8918  000081d4  8fc1ff54	lw	r1,-172(r30)
 8919  000081d8  afa10004	sw	4(r29),r1
 8920  000081dc  8fd5ff58	lw	r21,-168(r30)
 8921  000081e0  afb50008	sw	8(r29),r21
 8922  000081e4  8fd5ff5c	lw	r21,-164(r30)
 8923  000081e8  afb5000c	sw	12(r29),r21
 8924  000081ec  8fd5ff60	lw	r21,-160(r30)
 8925  000081f0  afb50010	sw	16(r29),r21
 8926  000081f4  8fd5ff64	lw	r21,-156(r30)
 8927  000081f8  afb50014	sw	20(r29),r21
 8928  000081fc  8fd5ff68	lw	r21,-152(r30)
 8929  00008200  afb50018	sw	24(r29),r21
 8930  00008204  8fd5ff6c	lw	r21,-148(r30)
 8931  00008208  afb5001c	sw	28(r29),r21
 8932  0000820c  8fd5ff70	lw	r21,-144(r30)
 8933  00008210  afb50020	sw	32(r29),r21
 8934  00008214  8fd5ff74	lw	r21,-140(r30)
 8935  00008218  afb50024	sw	36(r29),r21
 8936  0000821c  8fd5ff78	lw	r21,-136(r30)
 8937  00008220  afb50028	sw	40(r29),r21
 8938  00008224  8fd5ff7c	lw	r21,-132(r30)
 8939  00008228  afb5002c	sw	44(r29),r21
 8940  0000822c  0c0002f0	jal	_process_create
 8941  00008230  54000000	nop; not filled.
 8942  00008234  23bd0030	addi	r29,r29,#48
 8943  00008238          	L380_LF6:
 8944  00008238  0c004638	jal	_SysprocCreateProcesses
 8945  0000823c  54000000	nop; not filled.
 8946  00008240  23bdfff8	addi	r29,r29,#-8
 8947  00008244  3c020001	lhi	r2,((_debugstr)>>16)&0xffff
 8948  00008248  24421f50	addui	r2,r2,(_debugstr)&0xffff
 8949  0000824c  afa20000	sw	(r29),r2
 8950  00008250  20150069	addi	r21,r0,#105
 8951  00008254  afb50004	sw	4(r29),r21
 8952  00008258  0fffc7dc	jal	_dindex
 8953  0000825c  54000000	nop; not filled.
 8954  00008260  23bd0008	addi	r29,r29,#8
 8955  00008264  64210000	snei	r1,r1,#0
 8956  00008268  1420002c	bnez	r1,L388_LF6
 8957  0000826c  54000000	nop; not filled.
 8958  00008270  23bdfff8	addi	r29,r29,#-8
 8959  00008274  afa20000	sw	(r29),r2
 8960  00008278  2015002b	addi	r21,r0,#43
 8961  0000827c  afb50004	sw	4(r29),r21
 8962  00008280  0fffc7b4	jal	_dindex
 8963  00008284  54000000	nop; not filled.
 8964  00008288  23bd0008	addi	r29,r29,#8
 8965  0000828c  64210000	snei	r1,r1,#0
 8966  00008290  10200020	beqz	r1,L387_LF6
 8967  00008294  54000000	nop; not filled.
 8968  00008298          	L388_LF6:
 8969  00008298  23bdfff8	addi	r29,r29,#-8
 8970  0000829c  3c150001	lhi	r21,((LC59_LF6)>>16)&0xffff
 8971  000082a0  26b51edc	addui	r21,r21,(LC59_LF6)&0xffff
 8972  000082a4  afb50000	sw	(r29),r21
 8973  000082a8  0c0046e0	jal	_printf
 8974  000082ac  54000000	nop; not filled.
 8975  000082b0  23bd0008	addi	r29,r29,#8
 8976  000082b4          	L387_LF6:
 8977  000082b4  23bdfff8	addi	r29,r29,#-8
 8978  000082b8  3c030001	lhi	r3,((_processQuantum_LF6)>>16)&0xffff
 8979  000082bc  246315cc	addui	r3,r3,(_processQuantum_LF6)&0xffff
 8980  000082c0  8c750000	lw	r21,(r3)
 8981  000082c4  afb50000	sw	(r29),r21
 8982  000082c8  0c002518	jal	_TimerSet
 8983  000082cc  54000000	nop; not filled.
 8984  000082d0  3c020001	lhi	r2,((_debugstr)>>16)&0xffff
 8985  000082d4  24421f50	addui	r2,r2,(_debugstr)&0xffff
 8986  000082d8  afa20000	sw	(r29),r2
 8987  000082dc  20150069	addi	r21,r0,#105
 8988  000082e0  afb50004	sw	4(r29),r21
 8989  000082e4  0fffc750	jal	_dindex
 8990  000082e8  54000000	nop; not filled.
 8991  000082ec  23bd0008	addi	r29,r29,#8
 8992  000082f0  64210000	snei	r1,r1,#0
 8993  000082f4  1420002c	bnez	r1,L390_LF6
 8994  000082f8  54000000	nop; not filled.
 8995  000082fc  23bdfff8	addi	r29,r29,#-8
 8996  00008300  afa20000	sw	(r29),r2
 8997  00008304  2015002b	addi	r21,r0,#43
 8998  00008308  afb50004	sw	4(r29),r21
 8999  0000830c  0fffc728	jal	_dindex
 9000  00008310  54000000	nop; not filled.
 9001  00008314  23bd0008	addi	r29,r29,#8
 9002  00008318  64210000	snei	r1,r1,#0
 9003  0000831c  10200028	beqz	r1,L389_LF6
 9004  00008320  54000000	nop; not filled.
 9005  00008324          	L390_LF6:
 9006  00008324  23bdfff8	addi	r29,r29,#-8
 9007  00008328  3c150001	lhi	r21,((LC60_LF6)>>16)&0xffff
 9008  0000832c  26b51f10	addui	r21,r21,(LC60_LF6)&0xffff
 9009  00008330  afb50000	sw	(r29),r21
 9010  00008334  8c610000	lw	r1,(r3)
 9011  00008338  afa10004	sw	4(r29),r1
 9012  0000833c  0c00464c	jal	_printf
 9013  00008340  54000000	nop; not filled.
 9014  00008344  23bd0008	addi	r29,r29,#8
 9015  00008348          	L389_LF6:
 9016  00008348  0fff8e1c	jal	_intrreturn
 9017  0000834c  54000000	nop; not filled.
 9018  00008350  0c004620	jal	_exitsim
 9019  00008354  54000000	nop; not filled.
 9020  00008358  0c004624	jal	_exit
 9021  0000835c  54000000	nop
 9022  00008360          	.endproc _main
 9023  00008360          	.align 2
 9024  00008360          	.proc _GetCurrentPid
 9025  00008360          	.global _GetCurrentPid
 9026  00008360          	_GetCurrentPid:
 9027                      ;  Function 'GetCurrentPid'; 0 bytes of locals, 1 regs to save.
 9028  00008360  afbefffc	sw	-4(r29),r30; push fp
 9029  00008364  001df020	add	r30,r0,r29; fp = sp
 9030  00008368  afbffff8	sw	-8(r29),r31; push ret addr
 9031  0000836c  2fbd0010	subui	r29,r29,#16; alloc local storage
 9032  00008370  afa20000	sw	0(r29),r2
 9033  00008374  3c010001	lhi	r1,((_currentPCB)>>16)&0xffff
 9034  00008378  24212018	addui	r1,r1,(_currentPCB)&0xffff
 9035  0000837c  8c210000	lw	r1,(r1)
 9036  00008380  3c1f0001	lhi	r31,((_pcbs_LF6)>>16)&0xffff
 9037  00008384  27ff204c	addui	r31,r31,(_pcbs_LF6)&0xffff
 9038  00008388  003f1022	sub	r2,r1,r31
 9039  0000838c  3c01a4fa	lhi	r1,#-23302
 9040  00008390  24214fa5	addui	r1,r1,#20389
 9041  00008394  00400035	movi2fp	f0,r2
 9042  00008398  00200835	movi2fp	f1,r1
 9043  0000839c  0401000e	mult	f0,f0,f1
 9044  000083a0  00000834	movfp2i	r1,f0
 9045  000083a4  5c210002	srai	r1,r1,#0x2
 9046  000083a8  8fa20000	lw	r2,0(r29)
 9047  000083ac  8fdffff8	lw	r31,-8(r30)
 9048  000083b0  001ee820	add	r29,r0,r30
 9049  000083b4  8fdefffc	lw	r30,-4(r30)
 9050  000083b8  4be00000	jr	r31
 9051  000083bc  54000000	nop
 9052  000083c0          	.endproc _GetCurrentPid
 9053  000083c0          	.align 2
 9054  000083c0          	.proc _findpid
 9055  000083c0          	.global _findpid
 9056  000083c0          	_findpid:
 9057                      ;  Function 'findpid'; 0 bytes of locals, 1 regs to save.
 9058  000083c0  afbefffc	sw	-4(r29),r30; push fp
 9059  000083c4  001df020	add	r30,r0,r29; fp = sp
 9060  000083c8  afbffff8	sw	-8(r29),r31; push ret addr
 9061  000083cc  2fbd0010	subui	r29,r29,#16; alloc local storage
 9062  000083d0  afa20000	sw	0(r29),r2
 9063  000083d4  8fc10000	lw	r1,(r30)
 9064  000083d8  3c1f0001	lhi	r31,((_pcbs_LF6)>>16)&0xffff
 9065  000083dc  27ff204c	addui	r31,r31,(_pcbs_LF6)&0xffff
 9066  000083e0  003f1022	sub	r2,r1,r31
 9067  000083e4  3c01a4fa	lhi	r1,#-23302
 9068  000083e8  24214fa5	addui	r1,r1,#20389
 9069  000083ec  00400035	movi2fp	f0,r2
 9070  000083f0  00200835	movi2fp	f1,r1
 9071  000083f4  0401000e	mult	f0,f0,f1
 9072  000083f8  00000834	movfp2i	r1,f0
 9073  000083fc  5c210002	srai	r1,r1,#0x2
 9074  00008400  8fa20000	lw	r2,0(r29)
 9075  00008404  8fdffff8	lw	r31,-8(r30)
 9076  00008408  001ee820	add	r29,r0,r30
 9077  0000840c  8fdefffc	lw	r30,-4(r30)
 9078  00008410  4be00000	jr	r31
 9079  00008414  54000000	nop
 9080  00008418          	.endproc _findpid
 9081  00008418          	.data
 9082  00011f46          	.align 2
 9083  00011f48          	_str68_LF6:
 9084  00011f48          	.space 4
 9085  00011f4c          	.align 2
 9086  00011f4c          	_location69_LF6:
 9087  00011f4c  00000000	.word 0
 9088  00011f50          	.text
 9089  00008418          	.align 2
 9090  00008418          	.proc _get_argument
 9091  00008418          	.global _get_argument
 9092  00008418          	_get_argument:
 9093                      ;  Function 'get_argument'; 0 bytes of locals, 4 regs to save.
 9094  00008418  afbefffc	sw	-4(r29),r30; push fp
 9095  0000841c  001df020	add	r30,r0,r29; fp = sp
 9096  00008420  afbffff8	sw	-8(r29),r31; push ret addr
 9097  00008424  2fbd0018	subui	r29,r29,#24; alloc local storage
 9098  00008428  afa20000	sw	0(r29),r2
 9099  0000842c  afa30004	sw	4(r29),r3
 9100  00008430  afa40008	sw	8(r29),r4
 9101  00008434  afa5000c	sw	12(r29),r5
 9102  00008438  8fc20000	lw	r2,(r30)
 9103  0000843c  64410000	snei	r1,r2,#0
 9104  00008440  10200020	beqz	r1,L407_LF6
 9105  00008444  54000000	nop; not filled.
 9106  00008448  3c010001	lhi	r1,((_str68_LF6)>>16)&0xffff
 9107  0000844c  24211f48	addui	r1,r1,(_str68_LF6)&0xffff
 9108  00008450  ac220000	sw	(r1),r2
 9109  00008454  3c010001	lhi	r1,((_location69_LF6)>>16)&0xffff
 9110  00008458  24211f4c	addui	r1,r1,(_location69_LF6)&0xffff
 9111  0000845c  20050000	addi	r5,r0,#0
 9112  00008460  ac250000	sw	(r1),r5
 9113  00008464          	L407_LF6:
 9114  00008464  3c1f0001	lhi	r31,((_location69_LF6)>>16)&0xffff
 9115  00008468  27ff1f4c	addui	r31,r31,(_location69_LF6)&0xffff
 9116  0000846c  8fe30000	lw	r3,(r31)
 9117  00008470  3c010001	lhi	r1,((_str68_LF6)>>16)&0xffff
 9118  00008474  24211f48	addui	r1,r1,(_str68_LF6)&0xffff
 9119  00008478  8c220000	lw	r2,(r1)
 9120  0000847c  00430820	add	r1,r2,r3
 9121  00008480  90210000	lbu	r1,(r1)
 9122  00008484  64210000	snei	r1,r1,#0
 9123  00008488  10200010	beqz	r1,L409_LF6
 9124  0000848c  54000000	nop; not filled.
 9125  00008490  6c610062	sgti	r1,r3,#98
 9126  00008494  10200020	beqz	r1,L408_LF6
 9127  00008498  54000000	nop; not filled.
 9128  0000849c          	L409_LF6:
 9129  0000849c  20010000	addi	r1,r0,#0
 9130  000084a0  08000058	j	L416_LF6
 9131  000084a4  54000000	nop; not filled.
 9132  000084a8          	L417_LF6:
 9133  000084a8  23e10001	addi	r1,r31,#1
 9134  000084ac  ac410000	sw	(r2),r1
 9135  000084b0  08000044	j	L411_LF6
 9136  000084b4  54000000	nop; not filled.
 9137  000084b8          	L408_LF6:
 9138  000084b8  70610063	slei	r1,r3,#99
 9139  000084bc  10200038	beqz	r1,L411_LF6
 9140  000084c0  54000000	nop; not filled.
 9141  000084c4  00022020	add	r4,r0,r2
 9142  000084c8  001f1020	add	r2,r0,r31
 9143  000084cc          	L413_LF6:
 9144  000084cc  8c5f0000	lw	r31,(r2)
 9145  000084d0  009f0820	add	r1,r4,r31
 9146  000084d4  90210000	lbu	r1,(r1)
 9147  000084d8  64210000	snei	r1,r1,#0
 9148  000084dc  1020ffc8	beqz	r1,L417_LF6
 9149  000084e0  54000000	nop; not filled.
 9150  000084e4  23e10001	addi	r1,r31,#1
 9151  000084e8  ac410000	sw	(r2),r1
 9152  000084ec  70210063	slei	r1,r1,#99
 9153  000084f0  1420ffd8	bnez	r1,L413_LF6
 9154  000084f4  54000000	nop; not filled.
 9155  000084f8          	L411_LF6:
 9156  000084f8  00030820	add	r1,r0,r3
 9157  000084fc          	L416_LF6:
 9158  000084fc  8fa20000	lw	r2,0(r29)
 9159  00008500  8fa30004	lw	r3,4(r29)
 9160  00008504  8fa40008	lw	r4,8(r29)
 9161  00008508  8fa5000c	lw	r5,12(r29)
 9162  0000850c  8fdffff8	lw	r31,-8(r30)
 9163  00008510  001ee820	add	r29,r0,r30
 9164  00008514  8fdefffc	lw	r30,-4(r30)
 9165  00008518  4be00000	jr	r31
 9166  0000851c  54000000	nop
 9167  00008520          	.endproc _get_argument
 9168  00008520          	.align 2
 9169  00008520          	.proc _process_create
 9170  00008520          	.global _process_create
 9171  00008520          	_process_create:
 9172                      ;  Function 'process_create'; 1000 bytes of locals, 5 regs to save.
 9173  00008520  afbefffc	sw	-4(r29),r30; push fp
 9174  00008524  001df020	add	r30,r0,r29; fp = sp
 9175  00008528  afbffff8	sw	-8(r29),r31; push ret addr
 9176  0000852c  2fbd0408	subui	r29,r29,#1032; alloc local storage
 9177  00008530  afa20000	sw	0(r29),r2
 9178  00008534  afa30004	sw	4(r29),r3
 9179  00008538  afa40008	sw	8(r29),r4
 9180  0000853c  afa5000c	sw	12(r29),r5
 9181  00008540  afa60010	sw	16(r29),r6
 9182  00008544  20040000	addi	r4,r0,#0
 9183  00008548  8fc10000	lw	r1,(r30)
 9184  0000854c  64210000	snei	r1,r1,#0
 9185  00008550  1020005c	beqz	r1,L420_LF6
 9186  00008554  54000000	nop; not filled.
 9187  00008558  23c5fc10	addi	r5,r30,#-1008
 9188  0000855c  001ef820	add	r31,r0,r30
 9189  00008560          	L422_LF6:
 9190  00008560  20020000	addi	r2,r0,#0
 9191  00008564  00851820	add	r3,r4,r5
 9192  00008568          	L423_LF6:
 9193  00008568  8fe10000	lw	r1,(r31)
 9194  0000856c  00220820	add	r1,r1,r2
 9195  00008570  80210000	lb	r1,(r1)
 9196  00008574  a0610000	sb	(r3),r1
 9197  00008578  20420001	addi	r2,r2,#1
 9198  0000857c  20630001	addi	r3,r3,#1
 9199  00008580  20840001	addi	r4,r4,#1
 9200  00008584  8fe10000	lw	r1,(r31)
 9201  00008588  00410820	add	r1,r2,r1
 9202  0000858c  9021ffff	lbu	r1,-1(r1)
 9203  00008590  64210000	snei	r1,r1,#0
 9204  00008594  1420ffd0	bnez	r1,L423_LF6
 9205  00008598  54000000	nop; not filled.
 9206  0000859c  23ff0004	addi	r31,r31,#4
 9207  000085a0  8fe10000	lw	r1,(r31)
 9208  000085a4  64210000	snei	r1,r1,#0
 9209  000085a8  1420ffb4	bnez	r1,L422_LF6
 9210  000085ac  54000000	nop; not filled.
 9211  000085b0          	L420_LF6:
 9212  000085b0  23c3fc10	addi	r3,r30,#-1008
 9213  000085b4  00641020	add	r2,r3,r4
 9214  000085b8  23c1fc11	addi	r1,r30,#-1007
 9215  000085bc  00240820	add	r1,r1,r4
 9216  000085c0  20060000	addi	r6,r0,(#0x0)&0xff
 9217  000085c4  a0260000	sb	(r1),r6
 9218  000085c8  a0460000	sb	(r2),r6
 9219  000085cc  23bdfff0	addi	r29,r29,#-16
 9220  000085d0  20060000	addi	r6,r0,#0
 9221  000085d4  afa60000	sw	(r29),r6
 9222  000085d8  afa30004	sw	4(r29),r3
 9223  000085dc  8fc60000	lw	r6,(r30)
 9224  000085e0  afa60008	sw	8(r29),r6
 9225  000085e4  20060001	addi	r6,r0,#1
 9226  000085e8  afa6000c	sw	12(r29),r6
 9227  000085ec  0fffdb30	jal	_ProcessFork
 9228  000085f0  54000000	nop; not filled.
 9229  000085f4  23bd0010	addi	r29,r29,#16
 9230  000085f8  8fa20000	lw	r2,0(r29)
 9231  000085fc  8fa30004	lw	r3,4(r29)
 9232  00008600  8fa40008	lw	r4,8(r29)
 9233  00008604  8fa5000c	lw	r5,12(r29)
 9234  00008608  8fa60010	lw	r6,16(r29)
 9235  0000860c  8fdffff8	lw	r31,-8(r30)
 9236  00008610  001ee820	add	r29,r0,r30
 9237  00008614  8fdefffc	lw	r30,-4(r30)
 9238  00008618  4be00000	jr	r31
 9239  0000861c  54000000	nop
 9240  00008620          	.endproc _process_create
 9241  00008620          	.data
 9242  00011f50          	.global _debugstr
 9243  00011f50          	_debugstr:
 9244  00011f50          	.space 200
 9245  00012018          	.align 2
 9246  00012018          	.global _currentPCB
 9247  00012018          	_currentPCB:
 9248  00012018          	.space 4
 9249  0001201c          	.align 2
 9250  0001201c          	_freepcbs_LF6:
 9251  0001201c          	.space 12
 9252  00012028          	.align 2
 9253  00012028          	_runQueue_LF6:
 9254  00012028          	.space 12
 9255  00012034          	.align 2
 9256  00012034          	_waitQueue_LF6:
 9257  00012034          	.space 12
 9258  00012040          	.align 2
 9259  00012040          	_zombieQueue_LF6:
 9260  00012040          	.space 12
 9261  0001204c          	.align 2
 9262  0001204c          	_pcbs_LF6:
 9263  0001204c          	.space 5760
 9264  000136cc          	.text
 9265  00008620          	.align 2
 9266  00008620          	.proc _ProcessExit_LF6
 9267  00008620          	_ProcessExit_LF6:
 9268                      ;  Function 'ProcessExit'; 0 bytes of locals, 0 regs to save.
 9269  00008620  afbefffc	sw	-4(r29),r30; push fp
 9270  00008624  001df020	add	r30,r0,r29; fp = sp
 9271  00008628  afbffff8	sw	-8(r29),r31; push ret addr
 9272  0000862c  2fbd0008	subui	r29,r29,#8; alloc local storage
 9273  00008630  0c00434c	jal	_exit
 9274  00008634  54000000	nop; not filled.
 9275  00008638  8fdffff8	lw	r31,-8(r30)
 9276  0000863c  001ee820	add	r29,r0,r30
 9277  00008640  8fdefffc	lw	r30,-4(r30)
 9278  00008644  4be00000	jr	r31
 9279  00008648  54000000	nop
 9280  0000864c          	.endproc _ProcessExit_LF6
 9281                      ; Compiled by GCC
 9283  0000864c          	.align 2
 9284  0000864c          	.proc _isspace
 9285  0000864c          	.global _isspace
 9286  0000864c          	_isspace:
 9287                      ;  Function 'isspace'; 0 bytes of locals, 1 regs to save.
 9288  0000864c  afbefffc	sw	-4(r29),r30; push fp
 9289  00008650  001df020	add	r30,r0,r29; fp = sp
 9290  00008654  afbffff8	sw	-8(r29),r31; push ret addr
 9291  00008658  2fbd0010	subui	r29,r29,#16; alloc local storage
 9292  0000865c  afa20000	sw	0(r29),r2
 9293  00008660  83c20003	lb	r2,3(r30)
 9294  00008664  201f0000	addi	r31,r0,#0
 9295  00008668  304100ff	andi	r1,r2,#0x00ff
 9296  0000866c  60210020	seqi	r1,r1,#32
 9297  00008670  14200018	bnez	r1,L6_LF7
 9298  00008674  54000000	nop; not filled.
 9299  00008678  2041fff7	addi	r1,r2,#-9
 9300  0000867c  302100ff	andi	r1,r1,#0x00ff
 9301  00008680  70210001	sleui	r1,r1,#1
 9302  00008684  10200008	beqz	r1,L5_LF7
 9303  00008688  54000000	nop; not filled.
 9304  0000868c          	L6_LF7:
 9305  0000868c  201f0001	addi	r31,r0,#1
 9306  00008690          	L5_LF7:
 9307  00008690  001f0820	add	r1,r0,r31
 9308  00008694  8fa20000	lw	r2,0(r29)
 9309  00008698  8fdffff8	lw	r31,-8(r30)
 9310  0000869c  001ee820	add	r29,r0,r30
 9311  000086a0  8fdefffc	lw	r30,-4(r30)
 9312  000086a4  4be00000	jr	r31
 9313  000086a8  54000000	nop
 9314  000086ac          	.endproc _isspace
 9315  000086ac          	.align 2
 9316  000086ac          	.proc _isxdigit
 9317  000086ac          	.global _isxdigit
 9318  000086ac          	_isxdigit:
 9319                      ;  Function 'isxdigit'; 0 bytes of locals, 1 regs to save.
 9320  000086ac  afbefffc	sw	-4(r29),r30; push fp
 9321  000086b0  001df020	add	r30,r0,r29; fp = sp
 9322  000086b4  afbffff8	sw	-8(r29),r31; push ret addr
 9323  000086b8  2fbd0010	subui	r29,r29,#16; alloc local storage
 9324  000086bc  afa20000	sw	0(r29),r2
 9325  000086c0  83df0003	lb	r31,3(r30)
 9326  000086c4  20020000	addi	r2,r0,#0
 9327  000086c8  23e1ffd0	addi	r1,r31,#-48
 9328  000086cc  302100ff	andi	r1,r1,#0x00ff
 9329  000086d0  70210009	sleui	r1,r1,#9
 9330  000086d4  14200028	bnez	r1,L12_LF7
 9331  000086d8  54000000	nop; not filled.
 9332  000086dc  23e1ff9f	addi	r1,r31,#-97
 9333  000086e0  302100ff	andi	r1,r1,#0x00ff
 9334  000086e4  70210005	sleui	r1,r1,#5
 9335  000086e8  14200014	bnez	r1,L12_LF7
 9336  000086ec  54000000	nop; not filled.
 9337  000086f0  33e100ff	andi	r1,r31,#0x00ff
 9338  000086f4  64210041	snei	r1,r1,#65
 9339  000086f8  14200008	bnez	r1,L11_LF7
 9340  000086fc  54000000	nop; not filled.
 9341  00008700          	L12_LF7:
 9342  00008700  20020001	addi	r2,r0,#1
 9343  00008704          	L11_LF7:
 9344  00008704  00020820	add	r1,r0,r2
 9345  00008708  8fa20000	lw	r2,0(r29)
 9346  0000870c  8fdffff8	lw	r31,-8(r30)
 9347  00008710  001ee820	add	r29,r0,r30
 9348  00008714  8fdefffc	lw	r30,-4(r30)
 9349  00008718  4be00000	jr	r31
 9350  0000871c  54000000	nop
 9351  00008720          	.endproc _isxdigit
 9352  00008720          	.align 2
 9353  00008720          	.proc _DisableIntrs
 9354  00008720          	.global _DisableIntrs
 9355  00008720          	_DisableIntrs:
 9356                      ;  Function 'DisableIntrs'; 0 bytes of locals, 1 regs to save.
 9357  00008720  afbefffc	sw	-4(r29),r30; push fp
 9358  00008724  001df020	add	r30,r0,r29; fp = sp
 9359  00008728  afbffff8	sw	-8(r29),r31; push ret addr
 9360  0000872c  2fbd0010	subui	r29,r29,#16; alloc local storage
 9361  00008730  afa20000	sw	0(r29),r2
 9362  00008734  23bdfff8	addi	r29,r29,#-8
 9363  00008738  2002000f	addi	r2,r0,#15
 9364  0000873c  afa20000	sw	(r29),r2
 9365  00008740  0fff8b44	jal	_SetIntrs
 9366  00008744  54000000	nop; not filled.
 9367  00008748  23bd0008	addi	r29,r29,#8
 9368  0000874c  8fa20000	lw	r2,0(r29)
 9369  00008750  8fdffff8	lw	r31,-8(r30)
 9370  00008754  001ee820	add	r29,r0,r30
 9371  00008758  8fdefffc	lw	r30,-4(r30)
 9372  0000875c  4be00000	jr	r31
 9373  00008760  54000000	nop
 9374  00008764          	.endproc _DisableIntrs
 9375  00008764          	.align 2
 9376  00008764          	.proc _EnableIntrs
 9377  00008764          	.global _EnableIntrs
 9378  00008764          	_EnableIntrs:
 9379                      ;  Function 'EnableIntrs'; 0 bytes of locals, 1 regs to save.
 9380  00008764  afbefffc	sw	-4(r29),r30; push fp
 9381  00008768  001df020	add	r30,r0,r29; fp = sp
 9382  0000876c  afbffff8	sw	-8(r29),r31; push ret addr
 9383  00008770  2fbd0010	subui	r29,r29,#16; alloc local storage
 9384  00008774  afa20000	sw	0(r29),r2
 9385  00008778  23bdfff8	addi	r29,r29,#-8
 9386  0000877c  20020000	addi	r2,r0,#0
 9387  00008780  afa20000	sw	(r29),r2
 9388  00008784  0fff8b00	jal	_SetIntrs
 9389  00008788  54000000	nop; not filled.
 9390  0000878c  23bd0008	addi	r29,r29,#8
 9391  00008790  8fa20000	lw	r2,0(r29)
 9392  00008794  8fdffff8	lw	r31,-8(r30)
 9393  00008798  001ee820	add	r29,r0,r30
 9394  0000879c  8fdefffc	lw	r30,-4(r30)
 9395  000087a0  4be00000	jr	r31
 9396  000087a4  54000000	nop
 9397  000087a8          	.endproc _EnableIntrs
 9398  000087a8          	.align 2
 9399  000087a8          	.proc _RestoreIntrs
 9400  000087a8          	.global _RestoreIntrs
 9401  000087a8          	_RestoreIntrs:
 9402                      ;  Function 'RestoreIntrs'; 0 bytes of locals, 1 regs to save.
 9403  000087a8  afbefffc	sw	-4(r29),r30; push fp
 9404  000087ac  001df020	add	r30,r0,r29; fp = sp
 9405  000087b0  afbffff8	sw	-8(r29),r31; push ret addr
 9406  000087b4  2fbd0010	subui	r29,r29,#16; alloc local storage
 9407  000087b8  afa20000	sw	0(r29),r2
 9408  000087bc  23bdfff8	addi	r29,r29,#-8
 9409  000087c0  8fc20000	lw	r2,(r30)
 9410  000087c4  afa20000	sw	(r29),r2
 9411  000087c8  0fff8abc	jal	_SetIntrs
 9412  000087cc  54000000	nop; not filled.
 9413  000087d0  23bd0008	addi	r29,r29,#8
 9414  000087d4  8fa20000	lw	r2,0(r29)
 9415  000087d8  8fdffff8	lw	r31,-8(r30)
 9416  000087dc  001ee820	add	r29,r0,r30
 9417  000087e0  8fdefffc	lw	r30,-4(r30)
 9418  000087e4  4be00000	jr	r31
 9419  000087e8  54000000	nop
 9420  000087ec          	.endproc _RestoreIntrs
 9421  000087ec          	.align 2
 9422  000087ec          	.proc _QueueLinkInit
 9423  000087ec          	.global _QueueLinkInit
 9424  000087ec          	_QueueLinkInit:
 9425                      ;  Function 'QueueLinkInit'; 0 bytes of locals, 1 regs to save.
 9426  000087ec  afbefffc	sw	-4(r29),r30; push fp
 9427  000087f0  001df020	add	r30,r0,r29; fp = sp
 9428  000087f4  afbffff8	sw	-8(r29),r31; push ret addr
 9429  000087f8  2fbd0010	subui	r29,r29,#16; alloc local storage
 9430  000087fc  afa20000	sw	0(r29),r2
 9431  00008800  8fc10000	lw	r1,(r30)
 9432  00008804  8fc20004	lw	r2,4(r30)
 9433  00008808  201f0000	addi	r31,r0,#0
 9434  0000880c  ac3f0000	sw	(r1),r31
 9435  00008810  ac22000c	sw	12(r1),r2
 9436  00008814  8fa20000	lw	r2,0(r29)
 9437  00008818  8fdffff8	lw	r31,-8(r30)
 9438  0000881c  001ee820	add	r29,r0,r30
 9439  00008820  8fdefffc	lw	r30,-4(r30)
 9440  00008824  4be00000	jr	r31
 9441  00008828  54000000	nop
 9442  0000882c          	.endproc _QueueLinkInit
 9443  0000882c          	.align 2
 9444  0000882c          	.proc _QueueNext
 9445  0000882c          	.global _QueueNext
 9446  0000882c          	_QueueNext:
 9447                      ;  Function 'QueueNext'; 0 bytes of locals, 0 regs to save.
 9448  0000882c  afbefffc	sw	-4(r29),r30; push fp
 9449  00008830  001df020	add	r30,r0,r29; fp = sp
 9450  00008834  afbffff8	sw	-8(r29),r31; push ret addr
 9451  00008838  2fbd0008	subui	r29,r29,#8; alloc local storage
 9452  0000883c  8fc10000	lw	r1,(r30)
 9453  00008840  8c210000	lw	r1,(r1)
 9454  00008844  8fdffff8	lw	r31,-8(r30)
 9455  00008848  001ee820	add	r29,r0,r30
 9456  0000884c  8fdefffc	lw	r30,-4(r30)
 9457  00008850  4be00000	jr	r31
 9458  00008854  54000000	nop
 9459  00008858          	.endproc _QueueNext
 9460  00008858          	.align 2
 9461  00008858          	.proc _QueuePrev
 9462  00008858          	.global _QueuePrev
 9463  00008858          	_QueuePrev:
 9464                      ;  Function 'QueuePrev'; 0 bytes of locals, 0 regs to save.
 9465  00008858  afbefffc	sw	-4(r29),r30; push fp
 9466  0000885c  001df020	add	r30,r0,r29; fp = sp
 9467  00008860  afbffff8	sw	-8(r29),r31; push ret addr
 9468  00008864  2fbd0008	subui	r29,r29,#8; alloc local storage
 9469  00008868  8fc10000	lw	r1,(r30)
 9470  0000886c  8c210004	lw	r1,4(r1)
 9471  00008870  8fdffff8	lw	r31,-8(r30)
 9472  00008874  001ee820	add	r29,r0,r30
 9473  00008878  8fdefffc	lw	r30,-4(r30)
 9474  0000887c  4be00000	jr	r31
 9475  00008880  54000000	nop
 9476  00008884          	.endproc _QueuePrev
 9477  00008884          	.align 2
 9478  00008884          	.proc _QueueFirst
 9479  00008884          	.global _QueueFirst
 9480  00008884          	_QueueFirst:
 9481                      ;  Function 'QueueFirst'; 0 bytes of locals, 0 regs to save.
 9482  00008884  afbefffc	sw	-4(r29),r30; push fp
 9483  00008888  001df020	add	r30,r0,r29; fp = sp
 9484  0000888c  afbffff8	sw	-8(r29),r31; push ret addr
 9485  00008890  2fbd0008	subui	r29,r29,#8; alloc local storage
 9486  00008894  8fc10000	lw	r1,(r30)
 9487  00008898  8c210000	lw	r1,(r1)
 9488  0000889c  8fdffff8	lw	r31,-8(r30)
 9489  000088a0  001ee820	add	r29,r0,r30
 9490  000088a4  8fdefffc	lw	r30,-4(r30)
 9491  000088a8  4be00000	jr	r31
 9492  000088ac  54000000	nop
 9493  000088b0          	.endproc _QueueFirst
 9494  000088b0          	.align 2
 9495  000088b0          	.proc _QueueLast
 9496  000088b0          	.global _QueueLast
 9497  000088b0          	_QueueLast:
 9498                      ;  Function 'QueueLast'; 0 bytes of locals, 0 regs to save.
 9499  000088b0  afbefffc	sw	-4(r29),r30; push fp
 9500  000088b4  001df020	add	r30,r0,r29; fp = sp
 9501  000088b8  afbffff8	sw	-8(r29),r31; push ret addr
 9502  000088bc  2fbd0008	subui	r29,r29,#8; alloc local storage
 9503  000088c0  8fc10000	lw	r1,(r30)
 9504  000088c4  8c210004	lw	r1,4(r1)
 9505  000088c8  8fdffff8	lw	r31,-8(r30)
 9506  000088cc  001ee820	add	r29,r0,r30
 9507  000088d0  8fdefffc	lw	r30,-4(r30)
 9508  000088d4  4be00000	jr	r31
 9509  000088d8  54000000	nop
 9510  000088dc          	.endproc _QueueLast
 9511  000088dc          	.align 2
 9512  000088dc          	.proc _QueueInsertAfter
 9513  000088dc          	.global _QueueInsertAfter
 9514  000088dc          	_QueueInsertAfter:
 9515                      ;  Function 'QueueInsertAfter'; 0 bytes of locals, 2 regs to save.
 9516  000088dc  afbefffc	sw	-4(r29),r30; push fp
 9517  000088e0  001df020	add	r30,r0,r29; fp = sp
 9518  000088e4  afbffff8	sw	-8(r29),r31; push ret addr
 9519  000088e8  2fbd0010	subui	r29,r29,#16; alloc local storage
 9520  000088ec  afa20000	sw	0(r29),r2
 9521  000088f0  afa30004	sw	4(r29),r3
 9522  000088f4  8fc30000	lw	r3,(r30)
 9523  000088f8  8fc20004	lw	r2,4(r30)
 9524  000088fc  8fc10008	lw	r1,8(r30)
 9525  00008900  ac230008	sw	8(r1),r3
 9526  00008904  ac220004	sw	4(r1),r2
 9527  00008908  8c5f0000	lw	r31,(r2)
 9528  0000890c  ac3f0000	sw	(r1),r31
 9529  00008910  ac410000	sw	(r2),r1
 9530  00008914  8c220000	lw	r2,(r1)
 9531  00008918  ac410004	sw	4(r2),r1
 9532  0000891c  8c610008	lw	r1,8(r3)
 9533  00008920  20210001	addi	r1,r1,#1
 9534  00008924  ac610008	sw	8(r3),r1
 9535  00008928  8fa20000	lw	r2,0(r29)
 9536  0000892c  8fa30004	lw	r3,4(r29)
 9537  00008930  8fdffff8	lw	r31,-8(r30)
 9538  00008934  001ee820	add	r29,r0,r30
 9539  00008938  8fdefffc	lw	r30,-4(r30)
 9540  0000893c  4be00000	jr	r31
 9541  00008940  54000000	nop
 9542  00008944          	.endproc _QueueInsertAfter
 9543  00008944          	.align 2
 9544  00008944          	.proc _QueueInsertFirst
 9545  00008944          	.global _QueueInsertFirst
 9546  00008944          	_QueueInsertFirst:
 9547                      ;  Function 'QueueInsertFirst'; 0 bytes of locals, 2 regs to save.
 9548  00008944  afbefffc	sw	-4(r29),r30; push fp
 9549  00008948  001df020	add	r30,r0,r29; fp = sp
 9550  0000894c  afbffff8	sw	-8(r29),r31; push ret addr
 9551  00008950  2fbd0010	subui	r29,r29,#16; alloc local storage
 9552  00008954  afa20000	sw	0(r29),r2
 9553  00008958  afa30004	sw	4(r29),r3
 9554  0000895c  8fc30000	lw	r3,(r30)
 9555  00008960  8fc10004	lw	r1,4(r30)
 9556  00008964  ac230008	sw	8(r1),r3
 9557  00008968  ac230004	sw	4(r1),r3
 9558  0000896c  8c7f0000	lw	r31,(r3)
 9559  00008970  ac3f0000	sw	(r1),r31
 9560  00008974  ac610000	sw	(r3),r1
 9561  00008978  8c220000	lw	r2,(r1)
 9562  0000897c  ac410004	sw	4(r2),r1
 9563  00008980  8c610008	lw	r1,8(r3)
 9564  00008984  20210001	addi	r1,r1,#1
 9565  00008988  ac610008	sw	8(r3),r1
 9566  0000898c  8fa20000	lw	r2,0(r29)
 9567  00008990  8fa30004	lw	r3,4(r29)
 9568  00008994  8fdffff8	lw	r31,-8(r30)
 9569  00008998  001ee820	add	r29,r0,r30
 9570  0000899c  8fdefffc	lw	r30,-4(r30)
 9571  000089a0  4be00000	jr	r31
 9572  000089a4  54000000	nop
 9573  000089a8          	.endproc _QueueInsertFirst
 9574  000089a8          	.align 2
 9575  000089a8          	.proc _QueueInsertLast
 9576  000089a8          	.global _QueueInsertLast
 9577  000089a8          	_QueueInsertLast:
 9578                      ;  Function 'QueueInsertLast'; 0 bytes of locals, 2 regs to save.
 9579  000089a8  afbefffc	sw	-4(r29),r30; push fp
 9580  000089ac  001df020	add	r30,r0,r29; fp = sp
 9581  000089b0  afbffff8	sw	-8(r29),r31; push ret addr
 9582  000089b4  2fbd0010	subui	r29,r29,#16; alloc local storage
 9583  000089b8  afa20000	sw	0(r29),r2
 9584  000089bc  afa30004	sw	4(r29),r3
 9585  000089c0  8fc30000	lw	r3,(r30)
 9586  000089c4  8fc10004	lw	r1,4(r30)
 9587  000089c8  8c620004	lw	r2,4(r3)
 9588  000089cc  ac230008	sw	8(r1),r3
 9589  000089d0  ac220004	sw	4(r1),r2
 9590  000089d4  8c5f0000	lw	r31,(r2)
 9591  000089d8  ac3f0000	sw	(r1),r31
 9592  000089dc  ac410000	sw	(r2),r1
 9593  000089e0  8c220000	lw	r2,(r1)
 9594  000089e4  ac410004	sw	4(r2),r1
 9595  000089e8  8c610008	lw	r1,8(r3)
 9596  000089ec  20210001	addi	r1,r1,#1
 9597  000089f0  ac610008	sw	8(r3),r1
 9598  000089f4  8fa20000	lw	r2,0(r29)
 9599  000089f8  8fa30004	lw	r3,4(r29)
 9600  000089fc  8fdffff8	lw	r31,-8(r30)
 9601  00008a00  001ee820	add	r29,r0,r30
 9602  00008a04  8fdefffc	lw	r30,-4(r30)
 9603  00008a08  4be00000	jr	r31
 9604  00008a0c  54000000	nop
 9605  00008a10          	.endproc _QueueInsertLast
 9606  00008a10          	.align 2
 9607  00008a10          	.proc _QueueRemove
 9608  00008a10          	.global _QueueRemove
 9609  00008a10          	_QueueRemove:
 9610                      ;  Function 'QueueRemove'; 0 bytes of locals, 2 regs to save.
 9611  00008a10  afbefffc	sw	-4(r29),r30; push fp
 9612  00008a14  001df020	add	r30,r0,r29; fp = sp
 9613  00008a18  afbffff8	sw	-8(r29),r31; push ret addr
 9614  00008a1c  2fbd0010	subui	r29,r29,#16; alloc local storage
 9615  00008a20  afa20000	sw	0(r29),r2
 9616  00008a24  afa30004	sw	4(r29),r3
 9617  00008a28  8fdf0000	lw	r31,(r30)
 9618  00008a2c  8fe10008	lw	r1,8(r31)
 9619  00008a30  8c210008	lw	r1,8(r1)
 9620  00008a34  6c210000	sgti	r1,r1,#0
 9621  00008a38  1020002c	beqz	r1,L44_LF7
 9622  00008a3c  54000000	nop; not filled.
 9623  00008a40  8fe10004	lw	r1,4(r31)
 9624  00008a44  8fe30000	lw	r3,(r31)
 9625  00008a48  ac230000	sw	(r1),r3
 9626  00008a4c  8fe10000	lw	r1,(r31)
 9627  00008a50  8fe30004	lw	r3,4(r31)
 9628  00008a54  ac230004	sw	4(r1),r3
 9629  00008a58  8fe20008	lw	r2,8(r31)
 9630  00008a5c  8c410008	lw	r1,8(r2)
 9631  00008a60  2021ffff	addi	r1,r1,#-1
 9632  00008a64  ac410008	sw	8(r2),r1
 9633  00008a68          	L44_LF7:
 9634  00008a68  20030000	addi	r3,r0,#0
 9635  00008a6c  afe30000	sw	(r31),r3
 9636  00008a70  8fa20000	lw	r2,0(r29)
 9637  00008a74  8fa30004	lw	r3,4(r29)
 9638  00008a78  8fdffff8	lw	r31,-8(r30)
 9639  00008a7c  001ee820	add	r29,r0,r30
 9640  00008a80  8fdefffc	lw	r30,-4(r30)
 9641  00008a84  4be00000	jr	r31
 9642  00008a88  54000000	nop
 9643  00008a8c          	.endproc _QueueRemove
 9644  00008a8c          	.align 2
 9645  00008a8c          	.proc _QueueLength
 9646  00008a8c          	.global _QueueLength
 9647  00008a8c          	_QueueLength:
 9648                      ;  Function 'QueueLength'; 0 bytes of locals, 0 regs to save.
 9649  00008a8c  afbefffc	sw	-4(r29),r30; push fp
 9650  00008a90  001df020	add	r30,r0,r29; fp = sp
 9651  00008a94  afbffff8	sw	-8(r29),r31; push ret addr
 9652  00008a98  2fbd0008	subui	r29,r29,#8; alloc local storage
 9653  00008a9c  8fc10000	lw	r1,(r30)
 9654  00008aa0  8c210008	lw	r1,8(r1)
 9655  00008aa4  8fdffff8	lw	r31,-8(r30)
 9656  00008aa8  001ee820	add	r29,r0,r30
 9657  00008aac  8fdefffc	lw	r30,-4(r30)
 9658  00008ab0  4be00000	jr	r31
 9659  00008ab4  54000000	nop
 9660  00008ab8          	.endproc _QueueLength
 9661  00008ab8          	.align 2
 9662  00008ab8          	.proc _QueueEmpty
 9663  00008ab8          	.global _QueueEmpty
 9664  00008ab8          	_QueueEmpty:
 9665                      ;  Function 'QueueEmpty'; 0 bytes of locals, 0 regs to save.
 9666  00008ab8  afbefffc	sw	-4(r29),r30; push fp
 9667  00008abc  001df020	add	r30,r0,r29; fp = sp
 9668  00008ac0  afbffff8	sw	-8(r29),r31; push ret addr
 9669  00008ac4  2fbd0008	subui	r29,r29,#8; alloc local storage
 9670  00008ac8  8fc10000	lw	r1,(r30)
 9671  00008acc  8c210008	lw	r1,8(r1)
 9672  00008ad0  60210000	seqi	r1,r1,#0
 9673  00008ad4  8fdffff8	lw	r31,-8(r30)
 9674  00008ad8  001ee820	add	r29,r0,r30
 9675  00008adc  8fdefffc	lw	r30,-4(r30)
 9676  00008ae0  4be00000	jr	r31
 9677  00008ae4  54000000	nop
 9678  00008ae8          	.endproc _QueueEmpty
 9679  00008ae8          	.data
 9680  000136cc          	.align 2
 9681  000136cc          	LC0_LF7:
 9682  000136cc  496e6974	.ascii "Initializing queue link %d.\n\000"
 9682  000136d0  69616c69	
 9682  000136d4  7a696e67	
 9682  000136d8  20717565	
 9682  000136dc  7565206c	
 9682  000136e0  696e6b20	
 9682  000136e4  25642e0a	
 9682  000136e8  00      	
 9683  000136e9          	.text
 9684  00008ae8          	.align 2
 9685  00008ae8          	.proc _QueueModuleInit
 9686  00008ae8          	.global _QueueModuleInit
 9687  00008ae8          	_QueueModuleInit:
 9688                      ;  Function 'QueueModuleInit'; 0 bytes of locals, 4 regs to save.
 9689  00008ae8  afbefffc	sw	-4(r29),r30; push fp
 9690  00008aec  001df020	add	r30,r0,r29; fp = sp
 9691  00008af0  afbffff8	sw	-8(r29),r31; push ret addr
 9692  00008af4  2fbd0018	subui	r29,r29,#24; alloc local storage
 9693  00008af8  afa20000	sw	0(r29),r2
 9694  00008afc  afa30004	sw	4(r29),r3
 9695  00008b00  afa40008	sw	8(r29),r4
 9696  00008b04  afa5000c	sw	12(r29),r5
 9697  00008b08  23bdfff8	addi	r29,r29,#-8
 9698  00008b0c  3c050001	lhi	r5,((_freeLinks)>>16)&0xffff
 9699  00008b10  24a53738	addui	r5,r5,(_freeLinks)&0xffff
 9700  00008b14  afa50000	sw	(r29),r5
 9701  00008b18  0c0000e0	jal	_QueueInit
 9702  00008b1c  54000000	nop; not filled.
 9703  00008b20  20030000	addi	r3,r0,#0
 9704  00008b24  23bd0008	addi	r29,r29,#8
 9705  00008b28  3c040001	lhi	r4,((_debugstr)>>16)&0xffff
 9706  00008b2c  24841f50	addui	r4,r4,(_debugstr)&0xffff
 9707  00008b30  3c020001	lhi	r2,((_linkpool_LF7)>>16)&0xffff
 9708  00008b34  24423744	addui	r2,r2,(_linkpool_LF7)&0xffff
 9709  00008b38          	L63_LF7:
 9710  00008b38  23bdfff8	addi	r29,r29,#-8
 9711  00008b3c  afa40000	sw	(r29),r4
 9712  00008b40  20050069	addi	r5,r0,#105
 9713  00008b44  afa50004	sw	4(r29),r5
 9714  00008b48  0fffbeec	jal	_dindex
 9715  00008b4c  54000000	nop; not filled.
 9716  00008b50  23bd0008	addi	r29,r29,#8
 9717  00008b54  64210000	snei	r1,r1,#0
 9718  00008b58  1420002c	bnez	r1,L65_LF7
 9719  00008b5c  54000000	nop; not filled.
 9720  00008b60  23bdfff8	addi	r29,r29,#-8
 9721  00008b64  afa40000	sw	(r29),r4
 9722  00008b68  2005002b	addi	r5,r0,#43
 9723  00008b6c  afa50004	sw	4(r29),r5
 9724  00008b70  0fffbec4	jal	_dindex
 9725  00008b74  54000000	nop; not filled.
 9726  00008b78  23bd0008	addi	r29,r29,#8
 9727  00008b7c  64210000	snei	r1,r1,#0
 9728  00008b80  10200024	beqz	r1,L64_LF7
 9729  00008b84  54000000	nop; not filled.
 9730  00008b88          	L65_LF7:
 9731  00008b88  23bdfff8	addi	r29,r29,#-8
 9732  00008b8c  3c050001	lhi	r5,((LC0_LF7)>>16)&0xffff
 9733  00008b90  24a536cc	addui	r5,r5,(LC0_LF7)&0xffff
 9734  00008b94  afa50000	sw	(r29),r5
 9735  00008b98  afa30004	sw	4(r29),r3
 9736  00008b9c  0c003dec	jal	_printf
 9737  00008ba0  54000000	nop; not filled.
 9738  00008ba4  23bd0008	addi	r29,r29,#8
 9739  00008ba8          	L64_LF7:
 9740  00008ba8  20050000	addi	r5,r0,#0
 9741  00008bac  ac450000	sw	(r2),r5
 9742  00008bb0  23bdfff8	addi	r29,r29,#-8
 9743  00008bb4  afa20000	sw	(r29),r2
 9744  00008bb8  0c000078	jal	_QueueFreeLink
 9745  00008bbc  54000000	nop; not filled.
 9746  00008bc0  23bd0008	addi	r29,r29,#8
 9747  00008bc4  20420010	addi	r2,r2,#16
 9748  00008bc8  20630001	addi	r3,r3,#1
 9749  00008bcc  7061018f	slei	r1,r3,#399
 9750  00008bd0  1420ff64	bnez	r1,L63_LF7
 9751  00008bd4  54000000	nop; not filled.
 9752  00008bd8  8fa20000	lw	r2,0(r29)
 9753  00008bdc  8fa30004	lw	r3,4(r29)
 9754  00008be0  8fa40008	lw	r4,8(r29)
 9755  00008be4  8fa5000c	lw	r5,12(r29)
 9756  00008be8  8fdffff8	lw	r31,-8(r30)
 9757  00008bec  001ee820	add	r29,r0,r30
 9758  00008bf0  8fdefffc	lw	r30,-4(r30)
 9759  00008bf4  4be00000	jr	r31
 9760  00008bf8  54000000	nop
 9761  00008bfc          	.endproc _QueueModuleInit
 9762  00008bfc          	.align 2
 9763  00008bfc          	.proc _QueueInit
 9764  00008bfc          	.global _QueueInit
 9765  00008bfc          	_QueueInit:
 9766                      ;  Function 'QueueInit'; 0 bytes of locals, 0 regs to save.
 9767  00008bfc  afbefffc	sw	-4(r29),r30; push fp
 9768  00008c00  001df020	add	r30,r0,r29; fp = sp
 9769  00008c04  afbffff8	sw	-8(r29),r31; push ret addr
 9770  00008c08  2fbd0008	subui	r29,r29,#8; alloc local storage
 9771  00008c0c  8fc10000	lw	r1,(r30)
 9772  00008c10  ac210000	sw	(r1),r1
 9773  00008c14  ac210004	sw	4(r1),r1
 9774  00008c18  201f0000	addi	r31,r0,#0
 9775  00008c1c  ac3f0008	sw	8(r1),r31
 9776  00008c20  8fdffff8	lw	r31,-8(r30)
 9777  00008c24  001ee820	add	r29,r0,r30
 9778  00008c28  8fdefffc	lw	r30,-4(r30)
 9779  00008c2c  4be00000	jr	r31
 9780  00008c30  54000000	nop
 9781  00008c34          	.endproc _QueueInit
 9782  00008c34          	.data
 9783  000136e9          	.align 2
 9784  000136ec          	LC1_LF7:
 9785  000136ec  25733a20	.ascii "%s: %s\n\000"
 9785  000136f0  25730a00	
 9786  000136f4          	.align 2
 9787  000136f4          	LC2_LF7:
 9788  000136f4  51756575	.ascii "QueueFreeLink\000"
 9788  000136f8  65467265	
 9788  000136fc  654c696e	
 9788  00013700  6b00    	
 9789  00013702          	.align 2
 9790  00013704          	LC3_LF7:
 9791  00013704  4c696e6b	.ascii "Link not empty\000"
 9791  00013708  206e6f74	
 9791  0001370c  20656d70	
 9791  00013710  747900  	
 9792  00013713          	.text
 9793  00008c34          	.align 2
 9794  00008c34          	.proc _QueueFreeLink
 9795  00008c34          	.global _QueueFreeLink
 9796  00008c34          	_QueueFreeLink:
 9797                      ;  Function 'QueueFreeLink'; 0 bytes of locals, 3 regs to save.
 9798  00008c34  afbefffc	sw	-4(r29),r30; push fp
 9799  00008c38  001df020	add	r30,r0,r29; fp = sp
 9800  00008c3c  afbffff8	sw	-8(r29),r31; push ret addr
 9801  00008c40  2fbd0018	subui	r29,r29,#24; alloc local storage
 9802  00008c44  afa20000	sw	0(r29),r2
 9803  00008c48  afa30004	sw	4(r29),r3
 9804  00008c4c  afa40008	sw	8(r29),r4
 9805  00008c50  8fc30000	lw	r3,(r30)
 9806  00008c54  8c610000	lw	r1,(r3)
 9807  00008c58  64210000	snei	r1,r1,#0
 9808  00008c5c  10200038	beqz	r1,L77_LF7
 9809  00008c60  54000000	nop; not filled.
 9810  00008c64  23bdfff0	addi	r29,r29,#-16
 9811  00008c68  3c040001	lhi	r4,((LC1_LF7)>>16)&0xffff
 9812  00008c6c  248436ec	addui	r4,r4,(LC1_LF7)&0xffff
 9813  00008c70  afa40000	sw	(r29),r4
 9814  00008c74  3c010001	lhi	r1,((LC2_LF7)>>16)&0xffff
 9815  00008c78  242136f4	addui	r1,r1,(LC2_LF7)&0xffff
 9816  00008c7c  afa10004	sw	4(r29),r1
 9817  00008c80  3c040001	lhi	r4,((LC3_LF7)>>16)&0xffff
 9818  00008c84  24843704	addui	r4,r4,(LC3_LF7)&0xffff
 9819  00008c88  afa40008	sw	8(r29),r4
 9820  00008c8c  0c003cfc	jal	_printf
 9821  00008c90  54000000	nop; not filled.
 9822  00008c94  23bd0010	addi	r29,r29,#16
 9823  00008c98          	L77_LF7:
 9824  00008c98  3c020001	lhi	r2,((_freeLinks)>>16)&0xffff
 9825  00008c9c  24423738	addui	r2,r2,(_freeLinks)&0xffff
 9826  00008ca0  8c410004	lw	r1,4(r2)
 9827  00008ca4  ac620008	sw	8(r3),r2
 9828  00008ca8  ac610004	sw	4(r3),r1
 9829  00008cac  8c240000	lw	r4,(r1)
 9830  00008cb0  ac640000	sw	(r3),r4
 9831  00008cb4  ac230000	sw	(r1),r3
 9832  00008cb8  8c610000	lw	r1,(r3)
 9833  00008cbc  ac230004	sw	4(r1),r3
 9834  00008cc0  8c410008	lw	r1,8(r2)
 9835  00008cc4  20210001	addi	r1,r1,#1
 9836  00008cc8  ac410008	sw	8(r2),r1
 9837  00008ccc  8fa20000	lw	r2,0(r29)
 9838  00008cd0  8fa30004	lw	r3,4(r29)
 9839  00008cd4  8fa40008	lw	r4,8(r29)
 9840  00008cd8  8fdffff8	lw	r31,-8(r30)
 9841  00008cdc  001ee820	add	r29,r0,r30
 9842  00008ce0  8fdefffc	lw	r30,-4(r30)
 9843  00008ce4  4be00000	jr	r31
 9844  00008ce8  54000000	nop
 9845  00008cec          	.endproc _QueueFreeLink
 9846  00008cec          	.data
 9847  00013713          	.align 2
 9848  00013714          	LC4_LF7:
 9849  00013714  51756575	.ascii "QueueAllocLink\000"
 9849  00013718  65416c6c	
 9849  0001371c  6f634c69	
 9849  00013720  6e6b00  	
 9850  00013723          	.align 2
 9851  00013724          	LC5_LF7:
 9852  00013724  4c696e6b	.ascii "Link not allocated!\000"
 9852  00013728  206e6f74	
 9852  0001372c  20616c6c	
 9852  00013730  6f636174	
 9852  00013734  65642100	
 9853  00013738          	.text
 9854  00008cec          	.align 2
 9855  00008cec          	.proc _QueueAllocLink
 9856  00008cec          	.global _QueueAllocLink
 9857  00008cec          	_QueueAllocLink:
 9858                      ;  Function 'QueueAllocLink'; 0 bytes of locals, 3 regs to save.
 9859  00008cec  afbefffc	sw	-4(r29),r30; push fp
 9860  00008cf0  001df020	add	r30,r0,r29; fp = sp
 9861  00008cf4  afbffff8	sw	-8(r29),r31; push ret addr
 9862  00008cf8  2fbd0018	subui	r29,r29,#24; alloc local storage
 9863  00008cfc  afa20000	sw	0(r29),r2
 9864  00008d00  afa30004	sw	4(r29),r3
 9865  00008d04  afa40008	sw	8(r29),r4
 9866  00008d08  3c020001	lhi	r2,((_freeLinks)>>16)&0xffff
 9867  00008d0c  24423738	addui	r2,r2,(_freeLinks)&0xffff
 9868  00008d10  8c410008	lw	r1,8(r2)
 9869  00008d14  60210000	seqi	r1,r1,#0
 9870  00008d18  14200054	bnez	r1,L92_LF7
 9871  00008d1c  54000000	nop; not filled.
 9872  00008d20  8c430000	lw	r3,(r2)
 9873  00008d24  8c610008	lw	r1,8(r3)
 9874  00008d28  8c210008	lw	r1,8(r1)
 9875  00008d2c  6c210000	sgti	r1,r1,#0
 9876  00008d30  1020002c	beqz	r1,L97_LF7
 9877  00008d34  54000000	nop; not filled.
 9878  00008d38  8c610004	lw	r1,4(r3)
 9879  00008d3c  8c640000	lw	r4,(r3)
 9880  00008d40  ac240000	sw	(r1),r4
 9881  00008d44  8c610000	lw	r1,(r3)
 9882  00008d48  8c640004	lw	r4,4(r3)
 9883  00008d4c  ac240004	sw	4(r1),r4
 9884  00008d50  8c620008	lw	r2,8(r3)
 9885  00008d54  8c410008	lw	r1,8(r2)
 9886  00008d58  2021ffff	addi	r1,r1,#-1
 9887  00008d5c  ac410008	sw	8(r2),r1
 9888  00008d60          	L97_LF7:
 9889  00008d60  20040000	addi	r4,r0,#0
 9890  00008d64  ac640000	sw	(r3),r4
 9891  00008d68  08000008	j	L98_LF7
 9892  00008d6c  54000000	nop; not filled.
 9893  00008d70          	L92_LF7:
 9894  00008d70  20030000	addi	r3,r0,#0
 9895  00008d74          	L98_LF7:
 9896  00008d74  64610000	snei	r1,r3,#0
 9897  00008d78  14200038	bnez	r1,L100_LF7
 9898  00008d7c  54000000	nop; not filled.
 9899  00008d80  23bdfff0	addi	r29,r29,#-16
 9900  00008d84  3c040001	lhi	r4,((LC1_LF7)>>16)&0xffff
 9901  00008d88  248436ec	addui	r4,r4,(LC1_LF7)&0xffff
 9902  00008d8c  afa40000	sw	(r29),r4
 9903  00008d90  3c010001	lhi	r1,((LC4_LF7)>>16)&0xffff
 9904  00008d94  24213714	addui	r1,r1,(LC4_LF7)&0xffff
 9905  00008d98  afa10004	sw	4(r29),r1
 9906  00008d9c  3c040001	lhi	r4,((LC5_LF7)>>16)&0xffff
 9907  00008da0  24843724	addui	r4,r4,(LC5_LF7)&0xffff
 9908  00008da4  afa40008	sw	8(r29),r4
 9909  00008da8  0c003be0	jal	_printf
 9910  00008dac  54000000	nop; not filled.
 9911  00008db0  23bd0010	addi	r29,r29,#16
 9912  00008db4          	L100_LF7:
 9913  00008db4  00030820	add	r1,r0,r3
 9914  00008db8  8fa20000	lw	r2,0(r29)
 9915  00008dbc  8fa30004	lw	r3,4(r29)
 9916  00008dc0  8fa40008	lw	r4,8(r29)
 9917  00008dc4  8fdffff8	lw	r31,-8(r30)
 9918  00008dc8  001ee820	add	r29,r0,r30
 9919  00008dcc  8fdefffc	lw	r30,-4(r30)
 9920  00008dd0  4be00000	jr	r31
 9921  00008dd4  54000000	nop
 9922  00008dd8          	.endproc _QueueAllocLink
 9923  00008dd8          	.data
 9924  00013738          	.align 2
 9925  00013738          	.global _freeLinks
 9926  00013738          	_freeLinks:
 9927  00013738          	.space 12
 9928  00013744          	.align 2
 9929  00013744          	_linkpool_LF7:
 9930  00013744          	.space 6400
 9931                      ; Compiled by GCC
 9932  00015044          	.text
 9933  00008dd8          	.align 2
 9934  00008dd8          	.proc _isspace
 9935  00008dd8          	.global _isspace
 9936  00008dd8          	_isspace:
 9937                      ;  Function 'isspace'; 0 bytes of locals, 1 regs to save.
 9938  00008dd8  afbefffc	sw	-4(r29),r30; push fp
 9939  00008ddc  001df020	add	r30,r0,r29; fp = sp
 9940  00008de0  afbffff8	sw	-8(r29),r31; push ret addr
 9941  00008de4  2fbd0010	subui	r29,r29,#16; alloc local storage
 9942  00008de8  afa20000	sw	0(r29),r2
 9943  00008dec  83c20003	lb	r2,3(r30)
 9944  00008df0  201f0000	addi	r31,r0,#0
 9945  00008df4  304100ff	andi	r1,r2,#0x00ff
 9946  00008df8  60210020	seqi	r1,r1,#32
 9947  00008dfc  14200018	bnez	r1,L6_LF8
 9948  00008e00  54000000	nop; not filled.
 9949  00008e04  2041fff7	addi	r1,r2,#-9
 9950  00008e08  302100ff	andi	r1,r1,#0x00ff
 9951  00008e0c  70210001	sleui	r1,r1,#1
 9952  00008e10  10200008	beqz	r1,L5_LF8
 9953  00008e14  54000000	nop; not filled.
 9954  00008e18          	L6_LF8:
 9955  00008e18  201f0001	addi	r31,r0,#1
 9956  00008e1c          	L5_LF8:
 9957  00008e1c  001f0820	add	r1,r0,r31
 9958  00008e20  8fa20000	lw	r2,0(r29)
 9959  00008e24  8fdffff8	lw	r31,-8(r30)
 9960  00008e28  001ee820	add	r29,r0,r30
 9961  00008e2c  8fdefffc	lw	r30,-4(r30)
 9962  00008e30  4be00000	jr	r31
 9963  00008e34  54000000	nop
 9964  00008e38          	.endproc _isspace
 9965  00008e38          	.align 2
 9966  00008e38          	.proc _isxdigit
 9967  00008e38          	.global _isxdigit
 9968  00008e38          	_isxdigit:
 9969                      ;  Function 'isxdigit'; 0 bytes of locals, 1 regs to save.
 9970  00008e38  afbefffc	sw	-4(r29),r30; push fp
 9971  00008e3c  001df020	add	r30,r0,r29; fp = sp
 9972  00008e40  afbffff8	sw	-8(r29),r31; push ret addr
 9973  00008e44  2fbd0010	subui	r29,r29,#16; alloc local storage
 9974  00008e48  afa20000	sw	0(r29),r2
 9975  00008e4c  83df0003	lb	r31,3(r30)
 9976  00008e50  20020000	addi	r2,r0,#0
 9977  00008e54  23e1ffd0	addi	r1,r31,#-48
 9978  00008e58  302100ff	andi	r1,r1,#0x00ff
 9979  00008e5c  70210009	sleui	r1,r1,#9
 9980  00008e60  14200028	bnez	r1,L12_LF8
 9981  00008e64  54000000	nop; not filled.
 9982  00008e68  23e1ff9f	addi	r1,r31,#-97
 9983  00008e6c  302100ff	andi	r1,r1,#0x00ff
 9984  00008e70  70210005	sleui	r1,r1,#5
 9985  00008e74  14200014	bnez	r1,L12_LF8
 9986  00008e78  54000000	nop; not filled.
 9987  00008e7c  33e100ff	andi	r1,r31,#0x00ff
 9988  00008e80  64210041	snei	r1,r1,#65
 9989  00008e84  14200008	bnez	r1,L11_LF8
 9990  00008e88  54000000	nop; not filled.
 9991  00008e8c          	L12_LF8:
 9992  00008e8c  20020001	addi	r2,r0,#1
 9993  00008e90          	L11_LF8:
 9994  00008e90  00020820	add	r1,r0,r2
 9995  00008e94  8fa20000	lw	r2,0(r29)
 9996  00008e98  8fdffff8	lw	r31,-8(r30)
 9997  00008e9c  001ee820	add	r29,r0,r30
 9998  00008ea0  8fdefffc	lw	r30,-4(r30)
 9999  00008ea4  4be00000	jr	r31
10000  00008ea8  54000000	nop
10001  00008eac          	.endproc _isxdigit
10002  00008eac          	.align 2
10003  00008eac          	.proc _DisableIntrs
10004  00008eac          	.global _DisableIntrs
10005  00008eac          	_DisableIntrs:
10006                      ;  Function 'DisableIntrs'; 0 bytes of locals, 1 regs to save.
10007  00008eac  afbefffc	sw	-4(r29),r30; push fp
10008  00008eb0  001df020	add	r30,r0,r29; fp = sp
10009  00008eb4  afbffff8	sw	-8(r29),r31; push ret addr
10010  00008eb8  2fbd0010	subui	r29,r29,#16; alloc local storage
10011  00008ebc  afa20000	sw	0(r29),r2
10012  00008ec0  23bdfff8	addi	r29,r29,#-8
10013  00008ec4  2002000f	addi	r2,r0,#15
10014  00008ec8  afa20000	sw	(r29),r2
10015  00008ecc  0fff83b8	jal	_SetIntrs
10016  00008ed0  54000000	nop; not filled.
10017  00008ed4  23bd0008	addi	r29,r29,#8
10018  00008ed8  8fa20000	lw	r2,0(r29)
10019  00008edc  8fdffff8	lw	r31,-8(r30)
10020  00008ee0  001ee820	add	r29,r0,r30
10021  00008ee4  8fdefffc	lw	r30,-4(r30)
10022  00008ee8  4be00000	jr	r31
10023  00008eec  54000000	nop
10024  00008ef0          	.endproc _DisableIntrs
10025  00008ef0          	.align 2
10026  00008ef0          	.proc _EnableIntrs
10027  00008ef0          	.global _EnableIntrs
10028  00008ef0          	_EnableIntrs:
10029                      ;  Function 'EnableIntrs'; 0 bytes of locals, 1 regs to save.
10030  00008ef0  afbefffc	sw	-4(r29),r30; push fp
10031  00008ef4  001df020	add	r30,r0,r29; fp = sp
10032  00008ef8  afbffff8	sw	-8(r29),r31; push ret addr
10033  00008efc  2fbd0010	subui	r29,r29,#16; alloc local storage
10034  00008f00  afa20000	sw	0(r29),r2
10035  00008f04  23bdfff8	addi	r29,r29,#-8
10036  00008f08  20020000	addi	r2,r0,#0
10037  00008f0c  afa20000	sw	(r29),r2
10038  00008f10  0fff8374	jal	_SetIntrs
10039  00008f14  54000000	nop; not filled.
10040  00008f18  23bd0008	addi	r29,r29,#8
10041  00008f1c  8fa20000	lw	r2,0(r29)
10042  00008f20  8fdffff8	lw	r31,-8(r30)
10043  00008f24  001ee820	add	r29,r0,r30
10044  00008f28  8fdefffc	lw	r30,-4(r30)
10045  00008f2c  4be00000	jr	r31
10046  00008f30  54000000	nop
10047  00008f34          	.endproc _EnableIntrs
10048  00008f34          	.align 2
10049  00008f34          	.proc _RestoreIntrs
10050  00008f34          	.global _RestoreIntrs
10051  00008f34          	_RestoreIntrs:
10052                      ;  Function 'RestoreIntrs'; 0 bytes of locals, 1 regs to save.
10053  00008f34  afbefffc	sw	-4(r29),r30; push fp
10054  00008f38  001df020	add	r30,r0,r29; fp = sp
10055  00008f3c  afbffff8	sw	-8(r29),r31; push ret addr
10056  00008f40  2fbd0010	subui	r29,r29,#16; alloc local storage
10057  00008f44  afa20000	sw	0(r29),r2
10058  00008f48  23bdfff8	addi	r29,r29,#-8
10059  00008f4c  8fc20000	lw	r2,(r30)
10060  00008f50  afa20000	sw	(r29),r2
10061  00008f54  0fff8330	jal	_SetIntrs
10062  00008f58  54000000	nop; not filled.
10063  00008f5c  23bd0008	addi	r29,r29,#8
10064  00008f60  8fa20000	lw	r2,0(r29)
10065  00008f64  8fdffff8	lw	r31,-8(r30)
10066  00008f68  001ee820	add	r29,r0,r30
10067  00008f6c  8fdefffc	lw	r30,-4(r30)
10068  00008f70  4be00000	jr	r31
10069  00008f74  54000000	nop
10070  00008f78          	.endproc _RestoreIntrs
10071  00008f78          	.align 2
10072  00008f78          	.proc _QueueLinkInit
10073  00008f78          	.global _QueueLinkInit
10074  00008f78          	_QueueLinkInit:
10075                      ;  Function 'QueueLinkInit'; 0 bytes of locals, 1 regs to save.
10076  00008f78  afbefffc	sw	-4(r29),r30; push fp
10077  00008f7c  001df020	add	r30,r0,r29; fp = sp
10078  00008f80  afbffff8	sw	-8(r29),r31; push ret addr
10079  00008f84  2fbd0010	subui	r29,r29,#16; alloc local storage
10080  00008f88  afa20000	sw	0(r29),r2
10081  00008f8c  8fc10000	lw	r1,(r30)
10082  00008f90  8fc20004	lw	r2,4(r30)
10083  00008f94  201f0000	addi	r31,r0,#0
10084  00008f98  ac3f0000	sw	(r1),r31
10085  00008f9c  ac22000c	sw	12(r1),r2
10086  00008fa0  8fa20000	lw	r2,0(r29)
10087  00008fa4  8fdffff8	lw	r31,-8(r30)
10088  00008fa8  001ee820	add	r29,r0,r30
10089  00008fac  8fdefffc	lw	r30,-4(r30)
10090  00008fb0  4be00000	jr	r31
10091  00008fb4  54000000	nop
10092  00008fb8          	.endproc _QueueLinkInit
10093  00008fb8          	.align 2
10094  00008fb8          	.proc _QueueNext
10095  00008fb8          	.global _QueueNext
10096  00008fb8          	_QueueNext:
10097                      ;  Function 'QueueNext'; 0 bytes of locals, 0 regs to save.
10098  00008fb8  afbefffc	sw	-4(r29),r30; push fp
10099  00008fbc  001df020	add	r30,r0,r29; fp = sp
10100  00008fc0  afbffff8	sw	-8(r29),r31; push ret addr
10101  00008fc4  2fbd0008	subui	r29,r29,#8; alloc local storage
10102  00008fc8  8fc10000	lw	r1,(r30)
10103  00008fcc  8c210000	lw	r1,(r1)
10104  00008fd0  8fdffff8	lw	r31,-8(r30)
10105  00008fd4  001ee820	add	r29,r0,r30
10106  00008fd8  8fdefffc	lw	r30,-4(r30)
10107  00008fdc  4be00000	jr	r31
10108  00008fe0  54000000	nop
10109  00008fe4          	.endproc _QueueNext
10110  00008fe4          	.align 2
10111  00008fe4          	.proc _QueuePrev
10112  00008fe4          	.global _QueuePrev
10113  00008fe4          	_QueuePrev:
10114                      ;  Function 'QueuePrev'; 0 bytes of locals, 0 regs to save.
10115  00008fe4  afbefffc	sw	-4(r29),r30; push fp
10116  00008fe8  001df020	add	r30,r0,r29; fp = sp
10117  00008fec  afbffff8	sw	-8(r29),r31; push ret addr
10118  00008ff0  2fbd0008	subui	r29,r29,#8; alloc local storage
10119  00008ff4  8fc10000	lw	r1,(r30)
10120  00008ff8  8c210004	lw	r1,4(r1)
10121  00008ffc  8fdffff8	lw	r31,-8(r30)
10122  00009000  001ee820	add	r29,r0,r30
10123  00009004  8fdefffc	lw	r30,-4(r30)
10124  00009008  4be00000	jr	r31
10125  0000900c  54000000	nop
10126  00009010          	.endproc _QueuePrev
10127  00009010          	.align 2
10128  00009010          	.proc _QueueFirst
10129  00009010          	.global _QueueFirst
10130  00009010          	_QueueFirst:
10131                      ;  Function 'QueueFirst'; 0 bytes of locals, 0 regs to save.
10132  00009010  afbefffc	sw	-4(r29),r30; push fp
10133  00009014  001df020	add	r30,r0,r29; fp = sp
10134  00009018  afbffff8	sw	-8(r29),r31; push ret addr
10135  0000901c  2fbd0008	subui	r29,r29,#8; alloc local storage
10136  00009020  8fc10000	lw	r1,(r30)
10137  00009024  8c210000	lw	r1,(r1)
10138  00009028  8fdffff8	lw	r31,-8(r30)
10139  0000902c  001ee820	add	r29,r0,r30
10140  00009030  8fdefffc	lw	r30,-4(r30)
10141  00009034  4be00000	jr	r31
10142  00009038  54000000	nop
10143  0000903c          	.endproc _QueueFirst
10144  0000903c          	.align 2
10145  0000903c          	.proc _QueueLast
10146  0000903c          	.global _QueueLast
10147  0000903c          	_QueueLast:
10148                      ;  Function 'QueueLast'; 0 bytes of locals, 0 regs to save.
10149  0000903c  afbefffc	sw	-4(r29),r30; push fp
10150  00009040  001df020	add	r30,r0,r29; fp = sp
10151  00009044  afbffff8	sw	-8(r29),r31; push ret addr
10152  00009048  2fbd0008	subui	r29,r29,#8; alloc local storage
10153  0000904c  8fc10000	lw	r1,(r30)
10154  00009050  8c210004	lw	r1,4(r1)
10155  00009054  8fdffff8	lw	r31,-8(r30)
10156  00009058  001ee820	add	r29,r0,r30
10157  0000905c  8fdefffc	lw	r30,-4(r30)
10158  00009060  4be00000	jr	r31
10159  00009064  54000000	nop
10160  00009068          	.endproc _QueueLast
10161  00009068          	.align 2
10162  00009068          	.proc _QueueInsertAfter
10163  00009068          	.global _QueueInsertAfter
10164  00009068          	_QueueInsertAfter:
10165                      ;  Function 'QueueInsertAfter'; 0 bytes of locals, 2 regs to save.
10166  00009068  afbefffc	sw	-4(r29),r30; push fp
10167  0000906c  001df020	add	r30,r0,r29; fp = sp
10168  00009070  afbffff8	sw	-8(r29),r31; push ret addr
10169  00009074  2fbd0010	subui	r29,r29,#16; alloc local storage
10170  00009078  afa20000	sw	0(r29),r2
10171  0000907c  afa30004	sw	4(r29),r3
10172  00009080  8fc30000	lw	r3,(r30)
10173  00009084  8fc20004	lw	r2,4(r30)
10174  00009088  8fc10008	lw	r1,8(r30)
10175  0000908c  ac230008	sw	8(r1),r3
10176  00009090  ac220004	sw	4(r1),r2
10177  00009094  8c5f0000	lw	r31,(r2)
10178  00009098  ac3f0000	sw	(r1),r31
10179  0000909c  ac410000	sw	(r2),r1
10180  000090a0  8c220000	lw	r2,(r1)
10181  000090a4  ac410004	sw	4(r2),r1
10182  000090a8  8c610008	lw	r1,8(r3)
10183  000090ac  20210001	addi	r1,r1,#1
10184  000090b0  ac610008	sw	8(r3),r1
10185  000090b4  8fa20000	lw	r2,0(r29)
10186  000090b8  8fa30004	lw	r3,4(r29)
10187  000090bc  8fdffff8	lw	r31,-8(r30)
10188  000090c0  001ee820	add	r29,r0,r30
10189  000090c4  8fdefffc	lw	r30,-4(r30)
10190  000090c8  4be00000	jr	r31
10191  000090cc  54000000	nop
10192  000090d0          	.endproc _QueueInsertAfter
10193  000090d0          	.align 2
10194  000090d0          	.proc _QueueInsertFirst
10195  000090d0          	.global _QueueInsertFirst
10196  000090d0          	_QueueInsertFirst:
10197                      ;  Function 'QueueInsertFirst'; 0 bytes of locals, 2 regs to save.
10198  000090d0  afbefffc	sw	-4(r29),r30; push fp
10199  000090d4  001df020	add	r30,r0,r29; fp = sp
10200  000090d8  afbffff8	sw	-8(r29),r31; push ret addr
10201  000090dc  2fbd0010	subui	r29,r29,#16; alloc local storage
10202  000090e0  afa20000	sw	0(r29),r2
10203  000090e4  afa30004	sw	4(r29),r3
10204  000090e8  8fc30000	lw	r3,(r30)
10205  000090ec  8fc10004	lw	r1,4(r30)
10206  000090f0  ac230008	sw	8(r1),r3
10207  000090f4  ac230004	sw	4(r1),r3
10208  000090f8  8c7f0000	lw	r31,(r3)
10209  000090fc  ac3f0000	sw	(r1),r31
10210  00009100  ac610000	sw	(r3),r1
10211  00009104  8c220000	lw	r2,(r1)
10212  00009108  ac410004	sw	4(r2),r1
10213  0000910c  8c610008	lw	r1,8(r3)
10214  00009110  20210001	addi	r1,r1,#1
10215  00009114  ac610008	sw	8(r3),r1
10216  00009118  8fa20000	lw	r2,0(r29)
10217  0000911c  8fa30004	lw	r3,4(r29)
10218  00009120  8fdffff8	lw	r31,-8(r30)
10219  00009124  001ee820	add	r29,r0,r30
10220  00009128  8fdefffc	lw	r30,-4(r30)
10221  0000912c  4be00000	jr	r31
10222  00009130  54000000	nop
10223  00009134          	.endproc _QueueInsertFirst
10224  00009134          	.align 2
10225  00009134          	.proc _QueueInsertLast
10226  00009134          	.global _QueueInsertLast
10227  00009134          	_QueueInsertLast:
10228                      ;  Function 'QueueInsertLast'; 0 bytes of locals, 2 regs to save.
10229  00009134  afbefffc	sw	-4(r29),r30; push fp
10230  00009138  001df020	add	r30,r0,r29; fp = sp
10231  0000913c  afbffff8	sw	-8(r29),r31; push ret addr
10232  00009140  2fbd0010	subui	r29,r29,#16; alloc local storage
10233  00009144  afa20000	sw	0(r29),r2
10234  00009148  afa30004	sw	4(r29),r3
10235  0000914c  8fc30000	lw	r3,(r30)
10236  00009150  8fc10004	lw	r1,4(r30)
10237  00009154  8c620004	lw	r2,4(r3)
10238  00009158  ac230008	sw	8(r1),r3
10239  0000915c  ac220004	sw	4(r1),r2
10240  00009160  8c5f0000	lw	r31,(r2)
10241  00009164  ac3f0000	sw	(r1),r31
10242  00009168  ac410000	sw	(r2),r1
10243  0000916c  8c220000	lw	r2,(r1)
10244  00009170  ac410004	sw	4(r2),r1
10245  00009174  8c610008	lw	r1,8(r3)
10246  00009178  20210001	addi	r1,r1,#1
10247  0000917c  ac610008	sw	8(r3),r1
10248  00009180  8fa20000	lw	r2,0(r29)
10249  00009184  8fa30004	lw	r3,4(r29)
10250  00009188  8fdffff8	lw	r31,-8(r30)
10251  0000918c  001ee820	add	r29,r0,r30
10252  00009190  8fdefffc	lw	r30,-4(r30)
10253  00009194  4be00000	jr	r31
10254  00009198  54000000	nop
10255  0000919c          	.endproc _QueueInsertLast
10256  0000919c          	.align 2
10257  0000919c          	.proc _QueueRemove
10258  0000919c          	.global _QueueRemove
10259  0000919c          	_QueueRemove:
10260                      ;  Function 'QueueRemove'; 0 bytes of locals, 2 regs to save.
10261  0000919c  afbefffc	sw	-4(r29),r30; push fp
10262  000091a0  001df020	add	r30,r0,r29; fp = sp
10263  000091a4  afbffff8	sw	-8(r29),r31; push ret addr
10264  000091a8  2fbd0010	subui	r29,r29,#16; alloc local storage
10265  000091ac  afa20000	sw	0(r29),r2
10266  000091b0  afa30004	sw	4(r29),r3
10267  000091b4  8fdf0000	lw	r31,(r30)
10268  000091b8  8fe10008	lw	r1,8(r31)
10269  000091bc  8c210008	lw	r1,8(r1)
10270  000091c0  6c210000	sgti	r1,r1,#0
10271  000091c4  1020002c	beqz	r1,L44_LF8
10272  000091c8  54000000	nop; not filled.
10273  000091cc  8fe10004	lw	r1,4(r31)
10274  000091d0  8fe30000	lw	r3,(r31)
10275  000091d4  ac230000	sw	(r1),r3
10276  000091d8  8fe10000	lw	r1,(r31)
10277  000091dc  8fe30004	lw	r3,4(r31)
10278  000091e0  ac230004	sw	4(r1),r3
10279  000091e4  8fe20008	lw	r2,8(r31)
10280  000091e8  8c410008	lw	r1,8(r2)
10281  000091ec  2021ffff	addi	r1,r1,#-1
10282  000091f0  ac410008	sw	8(r2),r1
10283  000091f4          	L44_LF8:
10284  000091f4  20030000	addi	r3,r0,#0
10285  000091f8  afe30000	sw	(r31),r3
10286  000091fc  8fa20000	lw	r2,0(r29)
10287  00009200  8fa30004	lw	r3,4(r29)
10288  00009204  8fdffff8	lw	r31,-8(r30)
10289  00009208  001ee820	add	r29,r0,r30
10290  0000920c  8fdefffc	lw	r30,-4(r30)
10291  00009210  4be00000	jr	r31
10292  00009214  54000000	nop
10293  00009218          	.endproc _QueueRemove
10294  00009218          	.align 2
10295  00009218          	.proc _QueueLength
10296  00009218          	.global _QueueLength
10297  00009218          	_QueueLength:
10298                      ;  Function 'QueueLength'; 0 bytes of locals, 0 regs to save.
10299  00009218  afbefffc	sw	-4(r29),r30; push fp
10300  0000921c  001df020	add	r30,r0,r29; fp = sp
10301  00009220  afbffff8	sw	-8(r29),r31; push ret addr
10302  00009224  2fbd0008	subui	r29,r29,#8; alloc local storage
10303  00009228  8fc10000	lw	r1,(r30)
10304  0000922c  8c210008	lw	r1,8(r1)
10305  00009230  8fdffff8	lw	r31,-8(r30)
10306  00009234  001ee820	add	r29,r0,r30
10307  00009238  8fdefffc	lw	r30,-4(r30)
10308  0000923c  4be00000	jr	r31
10309  00009240  54000000	nop
10310  00009244          	.endproc _QueueLength
10311  00009244          	.align 2
10312  00009244          	.proc _QueueEmpty
10313  00009244          	.global _QueueEmpty
10314  00009244          	_QueueEmpty:
10315                      ;  Function 'QueueEmpty'; 0 bytes of locals, 0 regs to save.
10316  00009244  afbefffc	sw	-4(r29),r30; push fp
10317  00009248  001df020	add	r30,r0,r29; fp = sp
10318  0000924c  afbffff8	sw	-8(r29),r31; push ret addr
10319  00009250  2fbd0008	subui	r29,r29,#8; alloc local storage
10320  00009254  8fc10000	lw	r1,(r30)
10321  00009258  8c210008	lw	r1,8(r1)
10322  0000925c  60210000	seqi	r1,r1,#0
10323  00009260  8fdffff8	lw	r31,-8(r30)
10324  00009264  001ee820	add	r29,r0,r30
10325  00009268  8fdefffc	lw	r30,-4(r30)
10326  0000926c  4be00000	jr	r31
10327  00009270  54000000	nop
10328  00009274          	.endproc _QueueEmpty
10329  00009274          	.data
10330  00015044          	.align 2
10331  00015044          	LC0_LF8:
10332  00015044  456e7465	.ascii "Entering SynchModuleInit\n\000"
10332  00015048  72696e67	
10332  0001504c  2053796e	
10332  00015050  63684d6f	
10332  00015054  64756c65	
10332  00015058  496e6974	
10332  0001505c  0a00    	
10333  0001505e          	.align 2
10334  00015060          	LC1_LF8:
10335  00015060  4c656176	.ascii "Leaving SynchModuleInit\n\000"
10335  00015064  696e6720	
10335  00015068  53796e63	
10335  0001506c  684d6f64	
10335  00015070  756c6549	
10335  00015074  6e69740a	
10335  00015078  00      	
10336  00015079          	.text
10337  00009274          	.align 2
10338  00009274          	.proc _SynchModuleInit
10339  00009274          	.global _SynchModuleInit
10340  00009274          	_SynchModuleInit:
10341                      ;  Function 'SynchModuleInit'; 0 bytes of locals, 2 regs to save.
10342  00009274  afbefffc	sw	-4(r29),r30; push fp
10343  00009278  001df020	add	r30,r0,r29; fp = sp
10344  0000927c  afbffff8	sw	-8(r29),r31; push ret addr
10345  00009280  2fbd0010	subui	r29,r29,#16; alloc local storage
10346  00009284  afa20000	sw	0(r29),r2
10347  00009288  afa30004	sw	4(r29),r3
10348  0000928c  23bdfff8	addi	r29,r29,#-8
10349  00009290  3c020001	lhi	r2,((_debugstr)>>16)&0xffff
10350  00009294  24421f50	addui	r2,r2,(_debugstr)&0xffff
10351  00009298  afa20000	sw	(r29),r2
10352  0000929c  20030070	addi	r3,r0,#112
10353  000092a0  afa30004	sw	4(r29),r3
10354  000092a4  0fffb790	jal	_dindex
10355  000092a8  54000000	nop; not filled.
10356  000092ac  23bd0008	addi	r29,r29,#8
10357  000092b0  64210000	snei	r1,r1,#0
10358  000092b4  1420002c	bnez	r1,L53_LF8
10359  000092b8  54000000	nop; not filled.
10360  000092bc  23bdfff8	addi	r29,r29,#-8
10361  000092c0  afa20000	sw	(r29),r2
10362  000092c4  2003002b	addi	r3,r0,#43
10363  000092c8  afa30004	sw	4(r29),r3
10364  000092cc  0fffb768	jal	_dindex
10365  000092d0  54000000	nop; not filled.
10366  000092d4  23bd0008	addi	r29,r29,#8
10367  000092d8  64210000	snei	r1,r1,#0
10368  000092dc  10200020	beqz	r1,L52_LF8
10369  000092e0  54000000	nop; not filled.
10370  000092e4          	L53_LF8:
10371  000092e4  23bdfff8	addi	r29,r29,#-8
10372  000092e8  3c030001	lhi	r3,((LC0_LF8)>>16)&0xffff
10373  000092ec  24635044	addui	r3,r3,(LC0_LF8)&0xffff
10374  000092f0  afa30000	sw	(r29),r3
10375  000092f4  0c003694	jal	_printf
10376  000092f8  54000000	nop; not filled.
10377  000092fc  23bd0008	addi	r29,r29,#8
10378  00009300          	L52_LF8:
10379  00009300  3c1f0001	lhi	r31,((_sems_LF8)>>16)&0xffff
10380  00009304  27ff5128	addui	r31,r31,(_sems_LF8)&0xffff
10381  00009308  23e2026c	addi	r2,r31,#620
10382  0000930c          	L57_LF8:
10383  0000930c  20030000	addi	r3,r0,#0
10384  00009310  afe30010	sw	16(r31),r3
10385  00009314  23ff0014	addi	r31,r31,#20
10386  00009318  03e2082c	sle	r1,r31,r2
10387  0000931c  1420ffec	bnez	r1,L57_LF8
10388  00009320  54000000	nop; not filled.
10389  00009324  201f0000	addi	r31,r0,#0
10390  00009328          	L61_LF8:
10391  00009328  23ff0001	addi	r31,r31,#1
10392  0000932c  73e1003f	slei	r1,r31,#63
10393  00009330  1420fff4	bnez	r1,L61_LF8
10394  00009334  54000000	nop; not filled.
10395  00009338  201f0000	addi	r31,r0,#0
10396  0000933c          	L66_LF8:
10397  0000933c  23ff0001	addi	r31,r31,#1
10398  00009340  73e1001f	slei	r1,r31,#31
10399  00009344  1420fff4	bnez	r1,L66_LF8
10400  00009348  54000000	nop; not filled.
10401  0000934c  23bdfff8	addi	r29,r29,#-8
10402  00009350  3c020001	lhi	r2,((_debugstr)>>16)&0xffff
10403  00009354  24421f50	addui	r2,r2,(_debugstr)&0xffff
10404  00009358  afa20000	sw	(r29),r2
10405  0000935c  20030070	addi	r3,r0,#112
10406  00009360  afa30004	sw	4(r29),r3
10407  00009364  0fffb6d0	jal	_dindex
10408  00009368  54000000	nop; not filled.
10409  0000936c  23bd0008	addi	r29,r29,#8
10410  00009370  64210000	snei	r1,r1,#0
10411  00009374  1420002c	bnez	r1,L70_LF8
10412  00009378  54000000	nop; not filled.
10413  0000937c  23bdfff8	addi	r29,r29,#-8
10414  00009380  afa20000	sw	(r29),r2
10415  00009384  2003002b	addi	r3,r0,#43
10416  00009388  afa30004	sw	4(r29),r3
10417  0000938c  0fffb6a8	jal	_dindex
10418  00009390  54000000	nop; not filled.
10419  00009394  23bd0008	addi	r29,r29,#8
10420  00009398  64210000	snei	r1,r1,#0
10421  0000939c  10200020	beqz	r1,L69_LF8
10422  000093a0  54000000	nop; not filled.
10423  000093a4          	L70_LF8:
10424  000093a4  23bdfff8	addi	r29,r29,#-8
10425  000093a8  3c030001	lhi	r3,((LC1_LF8)>>16)&0xffff
10426  000093ac  24635060	addui	r3,r3,(LC1_LF8)&0xffff
10427  000093b0  afa30000	sw	(r29),r3
10428  000093b4  0c0035d4	jal	_printf
10429  000093b8  54000000	nop; not filled.
10430  000093bc  23bd0008	addi	r29,r29,#8
10431  000093c0          	L69_LF8:
10432  000093c0  8fa20000	lw	r2,0(r29)
10433  000093c4  8fa30004	lw	r3,4(r29)
10434  000093c8  8fdffff8	lw	r31,-8(r30)
10435  000093cc  001ee820	add	r29,r0,r30
10436  000093d0  8fdefffc	lw	r30,-4(r30)
10437  000093d4  4be00000	jr	r31
10438  000093d8  54000000	nop
10439  000093dc          	.endproc _SynchModuleInit
10440  000093dc          	.align 2
10441  000093dc          	.proc _SemInit
10442  000093dc          	.global _SemInit
10443  000093dc          	_SemInit:
10444                      ;  Function 'SemInit'; 0 bytes of locals, 2 regs to save.
10445  000093dc  afbefffc	sw	-4(r29),r30; push fp
10446  000093e0  001df020	add	r30,r0,r29; fp = sp
10447  000093e4  afbffff8	sw	-8(r29),r31; push ret addr
10448  000093e8  2fbd0010	subui	r29,r29,#16; alloc local storage
10449  000093ec  afa20000	sw	0(r29),r2
10450  000093f0  afa30004	sw	4(r29),r3
10451  000093f4  8fc20000	lw	r2,(r30)
10452  000093f8  8fc30004	lw	r3,4(r30)
10453  000093fc  23bdfff8	addi	r29,r29,#-8
10454  00009400  afa20000	sw	(r29),r2
10455  00009404  0ffff7f4	jal	_QueueInit
10456  00009408  54000000	nop; not filled.
10457  0000940c  ac43000c	sw	12(r2),r3
10458  00009410  23bd0008	addi	r29,r29,#8
10459  00009414  8fa20000	lw	r2,0(r29)
10460  00009418  8fa30004	lw	r3,4(r29)
10461  0000941c  8fdffff8	lw	r31,-8(r30)
10462  00009420  001ee820	add	r29,r0,r30
10463  00009424  8fdefffc	lw	r30,-4(r30)
10464  00009428  4be00000	jr	r31
10465  0000942c  54000000	nop
10466  00009430          	.endproc _SemInit
10467  00009430          	.align 2
10468  00009430          	.proc _SemCreate
10469  00009430          	.global _SemCreate
10470  00009430          	_SemCreate:
10471                      ;  Function 'SemCreate'; 0 bytes of locals, 4 regs to save.
10472  00009430  afbefffc	sw	-4(r29),r30; push fp
10473  00009434  001df020	add	r30,r0,r29; fp = sp
10474  00009438  afbffff8	sw	-8(r29),r31; push ret addr
10475  0000943c  2fbd0018	subui	r29,r29,#24; alloc local storage
10476  00009440  afa20000	sw	0(r29),r2
10477  00009444  afa30004	sw	4(r29),r3
10478  00009448  afa40008	sw	8(r29),r4
10479  0000944c  afa5000c	sw	12(r29),r5
10480  00009450  23bdfff8	addi	r29,r29,#-8
10481  00009454  2005000f	addi	r5,r0,#15
10482  00009458  afa50000	sw	(r29),r5
10483  0000945c  0fff7e28	jal	_SetIntrs
10484  00009460  54000000	nop; not filled.
10485  00009464  00012020	add	r4,r0,r1
10486  00009468  23bd0008	addi	r29,r29,#8
10487  0000946c  20030000	addi	r3,r0,#0
10488  00009470  3c1f0001	lhi	r31,((_sems_LF8)>>16)&0xffff
10489  00009474  27ff5128	addui	r31,r31,(_sems_LF8)&0xffff
10490  00009478          	L89_LF8:
10491  00009478  001f1020	add	r2,r0,r31
10492  0000947c  8fe10010	lw	r1,16(r31)
10493  00009480  64210000	snei	r1,r1,#0
10494  00009484  10200078	beqz	r1,L96_LF8
10495  00009488  54000000	nop; not filled.
10496  0000948c  205f0014	addi	r31,r2,#20
10497  00009490  20630001	addi	r3,r3,#1
10498  00009494  7061001f	slei	r1,r3,#31
10499  00009498  1420ffdc	bnez	r1,L89_LF8
10500  0000949c  54000000	nop; not filled.
10501  000094a0          	L87_LF8:
10502  000094a0  23bdfff8	addi	r29,r29,#-8
10503  000094a4  afa40000	sw	(r29),r4
10504  000094a8  0fff7ddc	jal	_SetIntrs
10505  000094ac  54000000	nop; not filled.
10506  000094b0  23bd0008	addi	r29,r29,#8
10507  000094b4  60610020	seqi	r1,r3,#32
10508  000094b8  14200054	bnez	r1,L93_LF8
10509  000094bc  54000000	nop; not filled.
10510  000094c0  50610002	slli	r1,r3,#0x2
10511  000094c4  00230820	add	r1,r1,r3
10512  000094c8  50210002	slli	r1,r1,#0x2
10513  000094cc  3c050001	lhi	r5,((_sems_LF8)>>16)&0xffff
10514  000094d0  24a55128	addui	r5,r5,(_sems_LF8)&0xffff
10515  000094d4  00251020	add	r2,r1,r5
10516  000094d8  23bdfff8	addi	r29,r29,#-8
10517  000094dc  afa20000	sw	(r29),r2
10518  000094e0  0ffff718	jal	_QueueInit
10519  000094e4  54000000	nop; not filled.
10520  000094e8  8fc50000	lw	r5,(r30)
10521  000094ec  ac45000c	sw	12(r2),r5
10522  000094f0  23bd0008	addi	r29,r29,#8
10523  000094f4  00030820	add	r1,r0,r3
10524  000094f8  08000018	j	L95_LF8
10525  000094fc  54000000	nop; not filled.
10526  00009500          	L96_LF8:
10527  00009500  20050001	addi	r5,r0,#1
10528  00009504  afe50010	sw	16(r31),r5
10529  00009508  0bffff94	j	L87_LF8
10530  0000950c  54000000	nop; not filled.
10531  00009510          	L93_LF8:
10532  00009510  2001ffff	addi	r1,r0,#-1
10533  00009514          	L95_LF8:
10534  00009514  8fa20000	lw	r2,0(r29)
10535  00009518  8fa30004	lw	r3,4(r29)
10536  0000951c  8fa40008	lw	r4,8(r29)
10537  00009520  8fa5000c	lw	r5,12(r29)
10538  00009524  8fdffff8	lw	r31,-8(r30)
10539  00009528  001ee820	add	r29,r0,r30
10540  0000952c  8fdefffc	lw	r30,-4(r30)
10541  00009530  4be00000	jr	r31
10542  00009534  54000000	nop
10543  00009538          	.endproc _SemCreate
10544  00009538          	.data
10545  00015079          	.align 2
10546  0001507c          	LC2_LF8:
10547  0001507c  4f6c6420	.ascii "Old interrupt value was 0x%x.\n\000"
10547  00015080  696e7465	
10547  00015084  72727570	
10547  00015088  74207661	
10547  0001508c  6c756520	
10547  00015090  77617320	
10547  00015094  30782578	
10547  00015098  2e0a00  	
10548  0001509b          	.align 2
10549  0001509c          	LC3_LF8:
10550  0001509c  50726f63	.ascii "Proc 0x%x waiting on sem 0x%x, count=%d.\n\000"
10550  000150a0  20307825	
10550  000150a4  78207761	
10550  000150a8  6974696e	
10550  000150ac  67206f6e	
10550  000150b0  2073656d	
10550  000150b4  20307825	
10550  000150b8  782c2063	
10550  000150bc  6f756e74	
10550  000150c0  3d25642e	
10550  000150c4  0a00    	
10551  000150c6          	.align 2
10552  000150c8          	LC4_LF8:
10553  000150c8  53757370	.ascii "Suspending current proc (0x%x).\n\000"
10553  000150cc  656e6469	
10553  000150d0  6e672063	
10553  000150d4  75727265	
10553  000150d8  6e742070	
10553  000150dc  726f6320	
10553  000150e0  28307825	
10553  000150e4  78292e0a	
10553  000150e8  00      	
10554  000150e9          	.text
10555  00009538          	.align 2
10556  00009538          	.proc _SemWait
10557  00009538          	.global _SemWait
10558  00009538          	_SemWait:
10559                      ;  Function 'SemWait'; 0 bytes of locals, 6 regs to save.
10560  00009538  afbefffc	sw	-4(r29),r30; push fp
10561  0000953c  001df020	add	r30,r0,r29; fp = sp
10562  00009540  afbffff8	sw	-8(r29),r31; push ret addr
10563  00009544  2fbd0020	subui	r29,r29,#32; alloc local storage
10564  00009548  afa20000	sw	0(r29),r2
10565  0000954c  afa30004	sw	4(r29),r3
10566  00009550  afa40008	sw	8(r29),r4
10567  00009554  afa5000c	sw	12(r29),r5
10568  00009558  afa60010	sw	16(r29),r6
10569  0000955c  afa70014	sw	20(r29),r7
10570  00009560  8fc40000	lw	r4,(r30)
10571  00009564  23bdfff8	addi	r29,r29,#-8
10572  00009568  2007000f	addi	r7,r0,#15
10573  0000956c  afa70000	sw	(r29),r7
10574  00009570  0fff7d14	jal	_SetIntrs
10575  00009574  54000000	nop; not filled.
10576  00009578  00013020	add	r6,r0,r1
10577  0000957c  23bd0008	addi	r29,r29,#8
10578  00009580  23bdfff8	addi	r29,r29,#-8
10579  00009584  3c020001	lhi	r2,((_debugstr)>>16)&0xffff
10580  00009588  24421f50	addui	r2,r2,(_debugstr)&0xffff
10581  0000958c  afa20000	sw	(r29),r2
10582  00009590  20070049	addi	r7,r0,#73
10583  00009594  afa70004	sw	4(r29),r7
10584  00009598  0fffb49c	jal	_dindex
10585  0000959c  54000000	nop; not filled.
10586  000095a0  23bd0008	addi	r29,r29,#8
10587  000095a4  64210000	snei	r1,r1,#0
10588  000095a8  1420002c	bnez	r1,L100_LF8
10589  000095ac  54000000	nop; not filled.
10590  000095b0  23bdfff8	addi	r29,r29,#-8
10591  000095b4  afa20000	sw	(r29),r2
10592  000095b8  2007002b	addi	r7,r0,#43
10593  000095bc  afa70004	sw	4(r29),r7
10594  000095c0  0fffb474	jal	_dindex
10595  000095c4  54000000	nop; not filled.
10596  000095c8  23bd0008	addi	r29,r29,#8
10597  000095cc  64210000	snei	r1,r1,#0
10598  000095d0  10200024	beqz	r1,L99_LF8
10599  000095d4  54000000	nop; not filled.
10600  000095d8          	L100_LF8:
10601  000095d8  23bdfff8	addi	r29,r29,#-8
10602  000095dc  3c070001	lhi	r7,((LC2_LF8)>>16)&0xffff
10603  000095e0  24e7507c	addui	r7,r7,(LC2_LF8)&0xffff
10604  000095e4  afa70000	sw	(r29),r7
10605  000095e8  afa60004	sw	4(r29),r6
10606  000095ec  0c00339c	jal	_printf
10607  000095f0  54000000	nop; not filled.
10608  000095f4  23bd0008	addi	r29,r29,#8
10609  000095f8          	L99_LF8:
10610  000095f8  23bdfff8	addi	r29,r29,#-8
10611  000095fc  3c020001	lhi	r2,((_debugstr)>>16)&0xffff
10612  00009600  24421f50	addui	r2,r2,(_debugstr)&0xffff
10613  00009604  afa20000	sw	(r29),r2
10614  00009608  20070073	addi	r7,r0,#115
10615  0000960c  afa70004	sw	4(r29),r7
10616  00009610  0fffb424	jal	_dindex
10617  00009614  54000000	nop; not filled.
10618  00009618  23bd0008	addi	r29,r29,#8
10619  0000961c  64210000	snei	r1,r1,#0
10620  00009620  1420002c	bnez	r1,L102_LF8
10621  00009624  54000000	nop; not filled.
10622  00009628  23bdfff8	addi	r29,r29,#-8
10623  0000962c  afa20000	sw	(r29),r2
10624  00009630  2007002b	addi	r7,r0,#43
10625  00009634  afa70004	sw	4(r29),r7
10626  00009638  0fffb3fc	jal	_dindex
10627  0000963c  54000000	nop; not filled.
10628  00009640  23bd0008	addi	r29,r29,#8
10629  00009644  64210000	snei	r1,r1,#0
10630  00009648  1020003c	beqz	r1,L101_LF8
10631  0000964c  54000000	nop; not filled.
10632  00009650          	L102_LF8:
10633  00009650  23bdfff0	addi	r29,r29,#-16
10634  00009654  3c070001	lhi	r7,((LC3_LF8)>>16)&0xffff
10635  00009658  24e7509c	addui	r7,r7,(LC3_LF8)&0xffff
10636  0000965c  afa70000	sw	(r29),r7
10637  00009660  3c010001	lhi	r1,((_currentPCB)>>16)&0xffff
10638  00009664  24212018	addui	r1,r1,(_currentPCB)&0xffff
10639  00009668  8c210000	lw	r1,(r1)
10640  0000966c  afa10004	sw	4(r29),r1
10641  00009670  afa40008	sw	8(r29),r4
10642  00009674  8c87000c	lw	r7,12(r4)
10643  00009678  afa7000c	sw	12(r29),r7
10644  0000967c  0c00330c	jal	_printf
10645  00009680  54000000	nop; not filled.
10646  00009684  23bd0010	addi	r29,r29,#16
10647  00009688          	L101_LF8:
10648  00009688  8c81000c	lw	r1,12(r4)
10649  0000968c  2021ffff	addi	r1,r1,#-1
10650  00009690  ac81000c	sw	12(r4),r1
10651  00009694  68210000	slti	r1,r1,#0
10652  00009698  102000d8	beqz	r1,L103_LF8
10653  0000969c  54000000	nop; not filled.
10654  000096a0  0ffff648	jal	_QueueAllocLink
10655  000096a4  54000000	nop; not filled.
10656  000096a8  00011020	add	r2,r0,r1
10657  000096ac  3c050001	lhi	r5,((_currentPCB)>>16)&0xffff
10658  000096b0  24a52018	addui	r5,r5,(_currentPCB)&0xffff
10659  000096b4  8ca10000	lw	r1,(r5)
10660  000096b8  20070000	addi	r7,r0,#0
10661  000096bc  ac470000	sw	(r2),r7
10662  000096c0  ac41000c	sw	12(r2),r1
10663  000096c4  23bdfff8	addi	r29,r29,#-8
10664  000096c8  3c030001	lhi	r3,((_debugstr)>>16)&0xffff
10665  000096cc  24631f50	addui	r3,r3,(_debugstr)&0xffff
10666  000096d0  afa30000	sw	(r29),r3
10667  000096d4  20070073	addi	r7,r0,#115
10668  000096d8  afa70004	sw	4(r29),r7
10669  000096dc  0fffb358	jal	_dindex
10670  000096e0  54000000	nop; not filled.
10671  000096e4  23bd0008	addi	r29,r29,#8
10672  000096e8  64210000	snei	r1,r1,#0
10673  000096ec  1420002c	bnez	r1,L106_LF8
10674  000096f0  54000000	nop; not filled.
10675  000096f4  23bdfff8	addi	r29,r29,#-8
10676  000096f8  afa30000	sw	(r29),r3
10677  000096fc  2007002b	addi	r7,r0,#43
10678  00009700  afa70004	sw	4(r29),r7
10679  00009704  0fffb330	jal	_dindex
10680  00009708  54000000	nop; not filled.
10681  0000970c  23bd0008	addi	r29,r29,#8
10682  00009710  64210000	snei	r1,r1,#0
10683  00009714  10200028	beqz	r1,L105_LF8
10684  00009718  54000000	nop; not filled.
10685  0000971c          	L106_LF8:
10686  0000971c  23bdfff8	addi	r29,r29,#-8
10687  00009720  3c070001	lhi	r7,((LC4_LF8)>>16)&0xffff
10688  00009724  24e750c8	addui	r7,r7,(LC4_LF8)&0xffff
10689  00009728  afa70000	sw	(r29),r7
10690  0000972c  8ca10000	lw	r1,(r5)
10691  00009730  afa10004	sw	4(r29),r1
10692  00009734  0c003254	jal	_printf
10693  00009738  54000000	nop; not filled.
10694  0000973c  23bd0008	addi	r29,r29,#8
10695  00009740          	L105_LF8:
10696  00009740  8c810004	lw	r1,4(r4)
10697  00009744  ac440008	sw	8(r2),r4
10698  00009748  ac410004	sw	4(r2),r1
10699  0000974c  8c270000	lw	r7,(r1)
10700  00009750  ac470000	sw	(r2),r7
10701  00009754  ac220000	sw	(r1),r2
10702  00009758  8c410000	lw	r1,(r2)
10703  0000975c  ac220004	sw	4(r1),r2
10704  00009760  8c810008	lw	r1,8(r4)
10705  00009764  20210001	addi	r1,r1,#1
10706  00009768  ac810008	sw	8(r4),r1
10707  0000976c  0fff7b64	jal	_ProcessSleep
10708  00009770  54000000	nop; not filled.
10709  00009774          	L103_LF8:
10710  00009774  23bdfff8	addi	r29,r29,#-8
10711  00009778  afa60000	sw	(r29),r6
10712  0000977c  0fff7b08	jal	_SetIntrs
10713  00009780  54000000	nop; not filled.
10714  00009784  23bd0008	addi	r29,r29,#8
10715  00009788  8fa20000	lw	r2,0(r29)
10716  0000978c  8fa30004	lw	r3,4(r29)
10717  00009790  8fa40008	lw	r4,8(r29)
10718  00009794  8fa5000c	lw	r5,12(r29)
10719  00009798  8fa60010	lw	r6,16(r29)
10720  0000979c  8fa70014	lw	r7,20(r29)
10721  000097a0  8fdffff8	lw	r31,-8(r30)
10722  000097a4  001ee820	add	r29,r0,r30
10723  000097a8  8fdefffc	lw	r30,-4(r30)
10724  000097ac  4be00000	jr	r31
10725  000097b0  54000000	nop
10726  000097b4          	.endproc _SemWait
10727  000097b4          	.align 2
10728  000097b4          	.proc _SemHandleWait
10729  000097b4          	.global _SemHandleWait
10730  000097b4          	_SemHandleWait:
10731                      ;  Function 'SemHandleWait'; 0 bytes of locals, 1 regs to save.
10732  000097b4  afbefffc	sw	-4(r29),r30; push fp
10733  000097b8  001df020	add	r30,r0,r29; fp = sp
10734  000097bc  afbffff8	sw	-8(r29),r31; push ret addr
10735  000097c0  2fbd0010	subui	r29,r29,#16; alloc local storage
10736  000097c4  afa20000	sw	0(r29),r2
10737  000097c8  8fdf0000	lw	r31,(r30)
10738  000097cc  73e1001f	sleui	r1,r31,#31
10739  000097d0  10200058	beqz	r1,L116_LF8
10740  000097d4  54000000	nop; not filled.
10741  000097d8  53e10002	slli	r1,r31,#0x2
10742  000097dc  003f0820	add	r1,r1,r31
10743  000097e0  50210002	slli	r1,r1,#0x2
10744  000097e4  3c020001	lhi	r2,((_sems_LF8)>>16)&0xffff
10745  000097e8  24425128	addui	r2,r2,(_sems_LF8)&0xffff
10746  000097ec  0022f820	add	r31,r1,r2
10747  000097f0  8fe10010	lw	r1,16(r31)
10748  000097f4  64210000	snei	r1,r1,#0
10749  000097f8  10200024	beqz	r1,L117_LF8
10750  000097fc  54000000	nop; not filled.
10751  00009800  23bdfff8	addi	r29,r29,#-8
10752  00009804  afbf0000	sw	(r29),r31
10753  00009808  0ffffd2c	jal	_SemWait
10754  0000980c  54000000	nop; not filled.
10755  00009810  20010000	addi	r1,r0,#0
10756  00009814  23bd0008	addi	r29,r29,#8
10757  00009818  08000014	j	L115_LF8
10758  0000981c  54000000	nop; not filled.
10759  00009820          	L117_LF8:
10760  00009820  20010001	addi	r1,r0,#1
10761  00009824  08000008	j	L115_LF8
10762  00009828  54000000	nop; not filled.
10763  0000982c          	L116_LF8:
10764  0000982c  20010001	addi	r1,r0,#1
10765  00009830          	L115_LF8:
10766  00009830  8fa20000	lw	r2,0(r29)
10767  00009834  8fdffff8	lw	r31,-8(r30)
10768  00009838  001ee820	add	r29,r0,r30
10769  0000983c  8fdefffc	lw	r30,-4(r30)
10770  00009840  4be00000	jr	r31
10771  00009844  54000000	nop
10772  00009848          	.endproc _SemHandleWait
10773  00009848          	.data
10774  000150e9          	.align 2
10775  000150ec          	LC5_LF8:
10776  000150ec  5369676e	.ascii "Signalling on sem 0x%x, count=%d.\n\000"
10776  000150f0  616c6c69	
10776  000150f4  6e67206f	
10776  000150f8  6e207365	
10776  000150fc  6d203078	
10776  00015100  25782c20	
10776  00015104  636f756e	
10776  00015108  743d2564	
10776  0001510c  2e0a00  	
10777  0001510f          	.align 2
10778  00015110          	LC6_LF8:
10779  00015110  57616b69	.ascii "Waking up PCB 0x%x.\n\000"
10779  00015114  6e672075	
10779  00015118  70205043	
10779  0001511c  42203078	
10779  00015120  25782e0a	
10779  00015124  00      	
10780  00015125          	.text
10781  00009848          	.align 2
10782  00009848          	.proc _SemSignal
10783  00009848          	.global _SemSignal
10784  00009848          	_SemSignal:
10785                      ;  Function 'SemSignal'; 0 bytes of locals, 4 regs to save.
10786  00009848  afbefffc	sw	-4(r29),r30; push fp
10787  0000984c  001df020	add	r30,r0,r29; fp = sp
10788  00009850  afbffff8	sw	-8(r29),r31; push ret addr
10789  00009854  2fbd0018	subui	r29,r29,#24; alloc local storage
10790  00009858  afa20000	sw	0(r29),r2
10791  0000985c  afa30004	sw	4(r29),r3
10792  00009860  afa40008	sw	8(r29),r4
10793  00009864  afa5000c	sw	12(r29),r5
10794  00009868  8fc20000	lw	r2,(r30)
10795  0000986c  23bdfff8	addi	r29,r29,#-8
10796  00009870  2005000f	addi	r5,r0,#15
10797  00009874  afa50000	sw	(r29),r5
10798  00009878  0fff7a0c	jal	_SetIntrs
10799  0000987c  54000000	nop; not filled.
10800  00009880  00012020	add	r4,r0,r1
10801  00009884  23bd0008	addi	r29,r29,#8
10802  00009888  23bdfff8	addi	r29,r29,#-8
10803  0000988c  3c030001	lhi	r3,((_debugstr)>>16)&0xffff
10804  00009890  24631f50	addui	r3,r3,(_debugstr)&0xffff
10805  00009894  afa30000	sw	(r29),r3
10806  00009898  20050073	addi	r5,r0,#115
10807  0000989c  afa50004	sw	4(r29),r5
10808  000098a0  0fffb194	jal	_dindex
10809  000098a4  54000000	nop; not filled.
10810  000098a8  23bd0008	addi	r29,r29,#8
10811  000098ac  64210000	snei	r1,r1,#0
10812  000098b0  1420002c	bnez	r1,L123_LF8
10813  000098b4  54000000	nop; not filled.
10814  000098b8  23bdfff8	addi	r29,r29,#-8
10815  000098bc  afa30000	sw	(r29),r3
10816  000098c0  2005002b	addi	r5,r0,#43
10817  000098c4  afa50004	sw	4(r29),r5
10818  000098c8  0fffb16c	jal	_dindex
10819  000098cc  54000000	nop; not filled.
10820  000098d0  23bd0008	addi	r29,r29,#8
10821  000098d4  64210000	snei	r1,r1,#0
10822  000098d8  1020002c	beqz	r1,L122_LF8
10823  000098dc  54000000	nop; not filled.
10824  000098e0          	L123_LF8:
10825  000098e0  23bdfff0	addi	r29,r29,#-16
10826  000098e4  3c050001	lhi	r5,((LC5_LF8)>>16)&0xffff
10827  000098e8  24a550ec	addui	r5,r5,(LC5_LF8)&0xffff
10828  000098ec  afa50000	sw	(r29),r5
10829  000098f0  afa20004	sw	4(r29),r2
10830  000098f4  8c45000c	lw	r5,12(r2)
10831  000098f8  afa50008	sw	8(r29),r5
10832  000098fc  0c00308c	jal	_printf
10833  00009900  54000000	nop; not filled.
10834  00009904  23bd0010	addi	r29,r29,#16
10835  00009908          	L122_LF8:
10836  00009908  8c41000c	lw	r1,12(r2)
10837  0000990c  20210001	addi	r1,r1,#1
10838  00009910  ac41000c	sw	12(r2),r1
10839  00009914  70210000	slei	r1,r1,#0
10840  00009918  102000ec	beqz	r1,L124_LF8
10841  0000991c  54000000	nop; not filled.
10842  00009920  8c430000	lw	r3,(r2)
10843  00009924  8c610008	lw	r1,8(r3)
10844  00009928  8c210008	lw	r1,8(r1)
10845  0000992c  6c210000	sgti	r1,r1,#0
10846  00009930  1020002c	beqz	r1,L127_LF8
10847  00009934  54000000	nop; not filled.
10848  00009938  8c610004	lw	r1,4(r3)
10849  0000993c  8c650000	lw	r5,(r3)
10850  00009940  ac250000	sw	(r1),r5
10851  00009944  8c610000	lw	r1,(r3)
10852  00009948  8c650004	lw	r5,4(r3)
10853  0000994c  ac250004	sw	4(r1),r5
10854  00009950  8c620008	lw	r2,8(r3)
10855  00009954  8c410008	lw	r1,8(r2)
10856  00009958  2021ffff	addi	r1,r1,#-1
10857  0000995c  ac410008	sw	8(r2),r1
10858  00009960          	L127_LF8:
10859  00009960  20050000	addi	r5,r0,#0
10860  00009964  ac650000	sw	(r3),r5
10861  00009968  23bdfff8	addi	r29,r29,#-8
10862  0000996c  3c020001	lhi	r2,((_debugstr)>>16)&0xffff
10863  00009970  24421f50	addui	r2,r2,(_debugstr)&0xffff
10864  00009974  afa20000	sw	(r29),r2
10865  00009978  20050073	addi	r5,r0,#115
10866  0000997c  afa50004	sw	4(r29),r5
10867  00009980  0fffb0b4	jal	_dindex
10868  00009984  54000000	nop; not filled.
10869  00009988  23bd0008	addi	r29,r29,#8
10870  0000998c  64210000	snei	r1,r1,#0
10871  00009990  1420002c	bnez	r1,L129_LF8
10872  00009994  54000000	nop; not filled.
10873  00009998  23bdfff8	addi	r29,r29,#-8
10874  0000999c  afa20000	sw	(r29),r2
10875  000099a0  2005002b	addi	r5,r0,#43
10876  000099a4  afa50004	sw	4(r29),r5
10877  000099a8  0fffb08c	jal	_dindex
10878  000099ac  54000000	nop; not filled.
10879  000099b0  23bd0008	addi	r29,r29,#8
10880  000099b4  64210000	snei	r1,r1,#0
10881  000099b8  10200028	beqz	r1,L128_LF8
10882  000099bc  54000000	nop; not filled.
10883  000099c0          	L129_LF8:
10884  000099c0  23bdfff8	addi	r29,r29,#-8
10885  000099c4  3c050001	lhi	r5,((LC6_LF8)>>16)&0xffff
10886  000099c8  24a55110	addui	r5,r5,(LC6_LF8)&0xffff
10887  000099cc  afa50000	sw	(r29),r5
10888  000099d0  8c61000c	lw	r1,12(r3)
10889  000099d4  afa10004	sw	4(r29),r1
10890  000099d8  0c002fb0	jal	_printf
10891  000099dc  54000000	nop; not filled.
10892  000099e0  23bd0008	addi	r29,r29,#8
10893  000099e4          	L128_LF8:
10894  000099e4  23bdfff8	addi	r29,r29,#-8
10895  000099e8  8c65000c	lw	r5,12(r3)
10896  000099ec  afa50000	sw	(r29),r5
10897  000099f0  0fffc3e0	jal	_ProcessWakeup
10898  000099f4  54000000	nop; not filled.
10899  000099f8  afa30000	sw	(r29),r3
10900  000099fc  0ffff234	jal	_QueueFreeLink
10901  00009a00  54000000	nop; not filled.
10902  00009a04  23bd0008	addi	r29,r29,#8
10903  00009a08          	L124_LF8:
10904  00009a08  23bdfff8	addi	r29,r29,#-8
10905  00009a0c  afa40000	sw	(r29),r4
10906  00009a10  0fff7874	jal	_SetIntrs
10907  00009a14  54000000	nop; not filled.
10908  00009a18  23bd0008	addi	r29,r29,#8
10909  00009a1c  8fa20000	lw	r2,0(r29)
10910  00009a20  8fa30004	lw	r3,4(r29)
10911  00009a24  8fa40008	lw	r4,8(r29)
10912  00009a28  8fa5000c	lw	r5,12(r29)
10913  00009a2c  8fdffff8	lw	r31,-8(r30)
10914  00009a30  001ee820	add	r29,r0,r30
10915  00009a34  8fdefffc	lw	r30,-4(r30)
10916  00009a38  4be00000	jr	r31
10917  00009a3c  54000000	nop
10918  00009a40          	.endproc _SemSignal
10919  00009a40          	.align 2
10920  00009a40          	.proc _SemHandleSignal
10921  00009a40          	.global _SemHandleSignal
10922  00009a40          	_SemHandleSignal:
10923                      ;  Function 'SemHandleSignal'; 0 bytes of locals, 1 regs to save.
10924  00009a40  afbefffc	sw	-4(r29),r30; push fp
10925  00009a44  001df020	add	r30,r0,r29; fp = sp
10926  00009a48  afbffff8	sw	-8(r29),r31; push ret addr
10927  00009a4c  2fbd0010	subui	r29,r29,#16; alloc local storage
10928  00009a50  afa20000	sw	0(r29),r2
10929  00009a54  8fdf0000	lw	r31,(r30)
10930  00009a58  73e1001f	sleui	r1,r31,#31
10931  00009a5c  10200058	beqz	r1,L136_LF8
10932  00009a60  54000000	nop; not filled.
10933  00009a64  53e10002	slli	r1,r31,#0x2
10934  00009a68  003f0820	add	r1,r1,r31
10935  00009a6c  50210002	slli	r1,r1,#0x2
10936  00009a70  3c020001	lhi	r2,((_sems_LF8)>>16)&0xffff
10937  00009a74  24425128	addui	r2,r2,(_sems_LF8)&0xffff
10938  00009a78  0022f820	add	r31,r1,r2
10939  00009a7c  8fe10010	lw	r1,16(r31)
10940  00009a80  64210000	snei	r1,r1,#0
10941  00009a84  10200024	beqz	r1,L137_LF8
10942  00009a88  54000000	nop; not filled.
10943  00009a8c  23bdfff8	addi	r29,r29,#-8
10944  00009a90  afbf0000	sw	(r29),r31
10945  00009a94  0ffffdb0	jal	_SemSignal
10946  00009a98  54000000	nop; not filled.
10947  00009a9c  20010000	addi	r1,r0,#0
10948  00009aa0  23bd0008	addi	r29,r29,#8
10949  00009aa4  08000014	j	L135_LF8
10950  00009aa8  54000000	nop; not filled.
10951  00009aac          	L137_LF8:
10952  00009aac  20010001	addi	r1,r0,#1
10953  00009ab0  08000008	j	L135_LF8
10954  00009ab4  54000000	nop; not filled.
10955  00009ab8          	L136_LF8:
10956  00009ab8  20010001	addi	r1,r0,#1
10957  00009abc          	L135_LF8:
10958  00009abc  8fa20000	lw	r2,0(r29)
10959  00009ac0  8fdffff8	lw	r31,-8(r30)
10960  00009ac4  001ee820	add	r29,r0,r30
10961  00009ac8  8fdefffc	lw	r30,-4(r30)
10962  00009acc  4be00000	jr	r31
10963  00009ad0  54000000	nop
10964  00009ad4          	.endproc _SemHandleSignal
10965  00009ad4          	.align 2
10966  00009ad4          	.proc _LockCreate
10967  00009ad4          	.global _LockCreate
10968  00009ad4          	_LockCreate:
10969                      ;  Function 'LockCreate'; 0 bytes of locals, 4 regs to save.
10970  00009ad4  afbefffc	sw	-4(r29),r30; push fp
10971  00009ad8  001df020	add	r30,r0,r29; fp = sp
10972  00009adc  afbffff8	sw	-8(r29),r31; push ret addr
10973  00009ae0  2fbd0018	subui	r29,r29,#24; alloc local storage
10974  00009ae4  afa20000	sw	0(r29),r2
10975  00009ae8  afa30004	sw	4(r29),r3
10976  00009aec  afa40008	sw	8(r29),r4
10977  00009af0  afa5000c	sw	12(r29),r5
10978  00009af4  23bdfff8	addi	r29,r29,#-8
10979  00009af8  2005000f	addi	r5,r0,#15
10980  00009afc  afa50000	sw	(r29),r5
10981  00009b00  0fff7784	jal	_SetIntrs
10982  00009b04  54000000	nop; not filled.
10983  00009b08  0001f820	add	r31,r0,r1
10984  00009b0c  23bd0008	addi	r29,r29,#8
10985  00009b10  20030000	addi	r3,r0,#0
10986  00009b14  3c040001	lhi	r4,((_locks_LF8)>>16)&0xffff
10987  00009b18  248453a8	addui	r4,r4,(_locks_LF8)&0xffff
10988  00009b1c  00041020	add	r2,r0,r4
10989  00009b20          	L156_LF8:
10990  00009b20  8c410014	lw	r1,20(r2)
10991  00009b24  64210000	snei	r1,r1,#0
10992  00009b28  10200018	beqz	r1,L154_LF8
10993  00009b2c  54000000	nop; not filled.
10994  00009b30  2042001c	addi	r2,r2,#28
10995  00009b34  20630001	addi	r3,r3,#1
10996  00009b38  7061003f	slei	r1,r3,#63
10997  00009b3c  1420ffe0	bnez	r1,L156_LF8
10998  00009b40  54000000	nop; not filled.
10999  00009b44          	L154_LF8:
11000  00009b44  23bdfff8	addi	r29,r29,#-8
11001  00009b48  afbf0000	sw	(r29),r31
11002  00009b4c  0fff7738	jal	_SetIntrs
11003  00009b50  54000000	nop; not filled.
11004  00009b54  23bd0008	addi	r29,r29,#8
11005  00009b58  60610040	seqi	r1,r3,#64
11006  00009b5c  1420003c	bnez	r1,L160_LF8
11007  00009b60  54000000	nop; not filled.
11008  00009b64  50610003	slli	r1,r3,#0x3
11009  00009b68  00230822	sub	r1,r1,r3
11010  00009b6c  50210002	slli	r1,r1,#0x2
11011  00009b70  00241020	add	r2,r1,r4
11012  00009b74  23bdfff8	addi	r29,r29,#-8
11013  00009b78  afa20000	sw	(r29),r2
11014  00009b7c  0ffff07c	jal	_QueueInit
11015  00009b80  54000000	nop; not filled.
11016  00009b84  20050001	addi	r5,r0,#1
11017  00009b88  ac45000c	sw	12(r2),r5
11018  00009b8c  23bd0008	addi	r29,r29,#8
11019  00009b90  00030820	add	r1,r0,r3
11020  00009b94  08000008	j	L162_LF8
11021  00009b98  54000000	nop; not filled.
11022  00009b9c          	L160_LF8:
11023  00009b9c  2001ffff	addi	r1,r0,#-1
11024  00009ba0          	L162_LF8:
11025  00009ba0  8fa20000	lw	r2,0(r29)
11026  00009ba4  8fa30004	lw	r3,4(r29)
11027  00009ba8  8fa40008	lw	r4,8(r29)
11028  00009bac  8fa5000c	lw	r5,12(r29)
11029  00009bb0  8fdffff8	lw	r31,-8(r30)
11030  00009bb4  001ee820	add	r29,r0,r30
11031  00009bb8  8fdefffc	lw	r30,-4(r30)
11032  00009bbc  4be00000	jr	r31
11033  00009bc0  54000000	nop
11034  00009bc4          	.endproc _LockCreate
11035  00009bc4          	.align 2
11036  00009bc4          	.proc _LockHandleAcquire
11037  00009bc4          	.global _LockHandleAcquire
11038  00009bc4          	_LockHandleAcquire:
11039                      ;  Function 'LockHandleAcquire'; 0 bytes of locals, 4 regs to save.
11040  00009bc4  afbefffc	sw	-4(r29),r30; push fp
11041  00009bc8  001df020	add	r30,r0,r29; fp = sp
11042  00009bcc  afbffff8	sw	-8(r29),r31; push ret addr
11043  00009bd0  2fbd0018	subui	r29,r29,#24; alloc local storage
11044  00009bd4  afa20000	sw	0(r29),r2
11045  00009bd8  afa30004	sw	4(r29),r3
11046  00009bdc  afa40008	sw	8(r29),r4
11047  00009be0  afa5000c	sw	12(r29),r5
11048  00009be4  8fc20000	lw	r2,(r30)
11049  00009be8  0fffe774	jal	_GetCurrentPid
11050  00009bec  54000000	nop; not filled.
11051  00009bf0  00011820	add	r3,r0,r1
11052  00009bf4  6c41003f	sgtui	r1,r2,#63
11053  00009bf8  10200010	beqz	r1,L173_LF8
11054  00009bfc  54000000	nop; not filled.
11055  00009c00  20010001	addi	r1,r0,#1
11056  00009c04  08000098	j	L181_LF8
11057  00009c08  54000000	nop; not filled.
11058  00009c0c          	L173_LF8:
11059  00009c0c  23bdfff8	addi	r29,r29,#-8
11060  00009c10  2005000f	addi	r5,r0,#15
11061  00009c14  afa50000	sw	(r29),r5
11062  00009c18  0fff766c	jal	_SetIntrs
11063  00009c1c  54000000	nop; not filled.
11064  00009c20  00012020	add	r4,r0,r1
11065  00009c24  23bd0008	addi	r29,r29,#8
11066  00009c28  50410003	slli	r1,r2,#0x3
11067  00009c2c  00220822	sub	r1,r1,r2
11068  00009c30  50210002	slli	r1,r1,#0x2
11069  00009c34  3c050001	lhi	r5,((_locks_LF8)>>16)&0xffff
11070  00009c38  24a553a8	addui	r5,r5,(_locks_LF8)&0xffff
11071  00009c3c  0025f820	add	r31,r1,r5
11072  00009c40  8fe10014	lw	r1,20(r31)
11073  00009c44  60210001	seqi	r1,r1,#1
11074  00009c48  10200030	beqz	r1,L175_LF8
11075  00009c4c  54000000	nop; not filled.
11076  00009c50  8fe10018	lw	r1,24(r31)
11077  00009c54  00610828	seq	r1,r3,r1
11078  00009c58  1420002c	bnez	r1,L179_LF8
11079  00009c5c  54000000	nop; not filled.
11080  00009c60  23bdfff8	addi	r29,r29,#-8
11081  00009c64  afbf0000	sw	(r29),r31
11082  00009c68  0ffff8cc	jal	_SemWait
11083  00009c6c  54000000	nop; not filled.
11084  00009c70  23bd0008	addi	r29,r29,#8
11085  00009c74  08000010	j	L179_LF8
11086  00009c78  54000000	nop; not filled.
11087  00009c7c          	L175_LF8:
11088  00009c7c  afe30018	sw	24(r31),r3
11089  00009c80  20050001	addi	r5,r0,#1
11090  00009c84  afe50014	sw	20(r31),r5
11091  00009c88          	L179_LF8:
11092  00009c88  23bdfff8	addi	r29,r29,#-8
11093  00009c8c  afa40000	sw	(r29),r4
11094  00009c90  0fff75f4	jal	_SetIntrs
11095  00009c94  54000000	nop; not filled.
11096  00009c98  23bd0008	addi	r29,r29,#8
11097  00009c9c  20010000	addi	r1,r0,#0
11098  00009ca0          	L181_LF8:
11099  00009ca0  8fa20000	lw	r2,0(r29)
11100  00009ca4  8fa30004	lw	r3,4(r29)
11101  00009ca8  8fa40008	lw	r4,8(r29)
11102  00009cac  8fa5000c	lw	r5,12(r29)
11103  00009cb0  8fdffff8	lw	r31,-8(r30)
11104  00009cb4  001ee820	add	r29,r0,r30
11105  00009cb8  8fdefffc	lw	r30,-4(r30)
11106  00009cbc  4be00000	jr	r31
11107  00009cc0  54000000	nop
11108  00009cc4          	.endproc _LockHandleAcquire
11109  00009cc4          	.align 2
11110  00009cc4          	.proc _LockHandleRelease
11111  00009cc4          	.global _LockHandleRelease
11112  00009cc4          	_LockHandleRelease:
11113                      ;  Function 'LockHandleRelease'; 0 bytes of locals, 4 regs to save.
11114  00009cc4  afbefffc	sw	-4(r29),r30; push fp
11115  00009cc8  001df020	add	r30,r0,r29; fp = sp
11116  00009ccc  afbffff8	sw	-8(r29),r31; push ret addr
11117  00009cd0  2fbd0018	subui	r29,r29,#24; alloc local storage
11118  00009cd4  afa20000	sw	0(r29),r2
11119  00009cd8  afa30004	sw	4(r29),r3
11120  00009cdc  afa40008	sw	8(r29),r4
11121  00009ce0  afa5000c	sw	12(r29),r5
11122  00009ce4  8fc20000	lw	r2,(r30)
11123  00009ce8  6c41003f	sgtui	r1,r2,#63
11124  00009cec  14200058	bnez	r1,L197_LF8
11125  00009cf0  54000000	nop; not filled.
11126  00009cf4  23bdfff8	addi	r29,r29,#-8
11127  00009cf8  2005000f	addi	r5,r0,#15
11128  00009cfc  afa50000	sw	(r29),r5
11129  00009d00  0fff7584	jal	_SetIntrs
11130  00009d04  54000000	nop; not filled.
11131  00009d08  00011820	add	r3,r0,r1
11132  00009d0c  23bd0008	addi	r29,r29,#8
11133  00009d10  50410003	slli	r1,r2,#0x3
11134  00009d14  00220822	sub	r1,r1,r2
11135  00009d18  50210002	slli	r1,r1,#0x2
11136  00009d1c  3c050001	lhi	r5,((_locks_LF8)>>16)&0xffff
11137  00009d20  24a553a8	addui	r5,r5,(_locks_LF8)&0xffff
11138  00009d24  00251020	add	r2,r1,r5
11139  00009d28  8c410014	lw	r1,20(r2)
11140  00009d2c  60210001	seqi	r1,r1,#1
11141  00009d30  10200044	beqz	r1,L192_LF8
11142  00009d34  54000000	nop; not filled.
11143  00009d38  8c410018	lw	r1,24(r2)
11144  00009d3c  00810829	sne	r1,r4,r1
11145  00009d40  10200010	beqz	r1,L193_LF8
11146  00009d44  54000000	nop; not filled.
11147  00009d48          	L197_LF8:
11148  00009d48  20010001	addi	r1,r0,#1
11149  00009d4c  08000040	j	L196_LF8
11150  00009d50  54000000	nop; not filled.
11151  00009d54          	L193_LF8:
11152  00009d54  20050000	addi	r5,r0,#0
11153  00009d58  ac450014	sw	20(r2),r5
11154  00009d5c  0fffe600	jal	_GetCurrentPid
11155  00009d60  54000000	nop; not filled.
11156  00009d64  23bdfff8	addi	r29,r29,#-8
11157  00009d68  afa20000	sw	(r29),r2
11158  00009d6c  0ffffad8	jal	_SemSignal
11159  00009d70  54000000	nop; not filled.
11160  00009d74  23bd0008	addi	r29,r29,#8
11161  00009d78          	L192_LF8:
11162  00009d78  23bdfff8	addi	r29,r29,#-8
11163  00009d7c  afa30000	sw	(r29),r3
11164  00009d80  0fff7504	jal	_SetIntrs
11165  00009d84  54000000	nop; not filled.
11166  00009d88  23bd0008	addi	r29,r29,#8
11167  00009d8c  20010000	addi	r1,r0,#0
11168  00009d90          	L196_LF8:
11169  00009d90  8fa20000	lw	r2,0(r29)
11170  00009d94  8fa30004	lw	r3,4(r29)
11171  00009d98  8fa40008	lw	r4,8(r29)
11172  00009d9c  8fa5000c	lw	r5,12(r29)
11173  00009da0  8fdffff8	lw	r31,-8(r30)
11174  00009da4  001ee820	add	r29,r0,r30
11175  00009da8  8fdefffc	lw	r30,-4(r30)
11176  00009dac  4be00000	jr	r31
11177  00009db0  54000000	nop
11178  00009db4          	.endproc _LockHandleRelease
11179  00009db4          	.align 2
11180  00009db4          	.proc _CondCreate
11181  00009db4          	.global _CondCreate
11182  00009db4          	_CondCreate:
11183                      ;  Function 'CondCreate'; 0 bytes of locals, 4 regs to save.
11184  00009db4  afbefffc	sw	-4(r29),r30; push fp
11185  00009db8  001df020	add	r30,r0,r29; fp = sp
11186  00009dbc  afbffff8	sw	-8(r29),r31; push ret addr
11187  00009dc0  2fbd0018	subui	r29,r29,#24; alloc local storage
11188  00009dc4  afa20000	sw	0(r29),r2
11189  00009dc8  afa30004	sw	4(r29),r3
11190  00009dcc  afa40008	sw	8(r29),r4
11191  00009dd0  afa5000c	sw	12(r29),r5
11192  00009dd4  23bdfff8	addi	r29,r29,#-8
11193  00009dd8  2005000f	addi	r5,r0,#15
11194  00009ddc  afa50000	sw	(r29),r5
11195  00009de0  0fff74a4	jal	_SetIntrs
11196  00009de4  54000000	nop; not filled.
11197  00009de8  00012020	add	r4,r0,r1
11198  00009dec  23bd0008	addi	r29,r29,#8
11199  00009df0  20020000	addi	r2,r0,#0
11200  00009df4  3c030001	lhi	r3,((_conds_LF8)>>16)&0xffff
11201  00009df8  24635aa8	addui	r3,r3,(_conds_LF8)&0xffff
11202  00009dfc          	L213_LF8:
11203  00009dfc  0003f820	add	r31,r0,r3
11204  00009e00  8c610000	lw	r1,(r3)
11205  00009e04  64210000	snei	r1,r1,#0
11206  00009e08  1020005c	beqz	r1,L219_LF8
11207  00009e0c  54000000	nop; not filled.
11208  00009e10  23e30008	addi	r3,r31,#8
11209  00009e14  20420001	addi	r2,r2,#1
11210  00009e18  7041001f	slei	r1,r2,#31
11211  00009e1c  1420ffdc	bnez	r1,L213_LF8
11212  00009e20  54000000	nop; not filled.
11213  00009e24          	L211_LF8:
11214  00009e24  23bdfff8	addi	r29,r29,#-8
11215  00009e28  afa40000	sw	(r29),r4
11216  00009e2c  0fff7458	jal	_SetIntrs
11217  00009e30  54000000	nop; not filled.
11218  00009e34  23bd0008	addi	r29,r29,#8
11219  00009e38  60410020	seqi	r1,r2,#32
11220  00009e3c  14200038	bnez	r1,L217_LF8
11221  00009e40  54000000	nop; not filled.
11222  00009e44  50410003	slli	r1,r2,#0x3
11223  00009e48  3c050001	lhi	r5,((_conds_LF8)>>16)&0xffff
11224  00009e4c  24a55aa8	addui	r5,r5,(_conds_LF8)&0xffff
11225  00009e50  00250820	add	r1,r1,r5
11226  00009e54  8fc50000	lw	r5,(r30)
11227  00009e58  ac250004	sw	4(r1),r5
11228  00009e5c  00020820	add	r1,r0,r2
11229  00009e60  08000018	j	L218_LF8
11230  00009e64  54000000	nop; not filled.
11231  00009e68          	L219_LF8:
11232  00009e68  20050001	addi	r5,r0,#1
11233  00009e6c  ac650000	sw	(r3),r5
11234  00009e70  0bffffb0	j	L211_LF8
11235  00009e74  54000000	nop; not filled.
11236  00009e78          	L217_LF8:
11237  00009e78  2001ffff	addi	r1,r0,#-1
11238  00009e7c          	L218_LF8:
11239  00009e7c  8fa20000	lw	r2,0(r29)
11240  00009e80  8fa30004	lw	r3,4(r29)
11241  00009e84  8fa40008	lw	r4,8(r29)
11242  00009e88  8fa5000c	lw	r5,12(r29)
11243  00009e8c  8fdffff8	lw	r31,-8(r30)
11244  00009e90  001ee820	add	r29,r0,r30
11245  00009e94  8fdefffc	lw	r30,-4(r30)
11246  00009e98  4be00000	jr	r31
11247  00009e9c  54000000	nop
11248  00009ea0          	.endproc _CondCreate
11249  00009ea0          	.align 2
11250  00009ea0          	.proc _CondHandleWait
11251  00009ea0          	.global _CondHandleWait
11252  00009ea0          	_CondHandleWait:
11253                      ;  Function 'CondHandleWait'; 0 bytes of locals, 6 regs to save.
11254  00009ea0  afbefffc	sw	-4(r29),r30; push fp
11255  00009ea4  001df020	add	r30,r0,r29; fp = sp
11256  00009ea8  afbffff8	sw	-8(r29),r31; push ret addr
11257  00009eac  2fbd0020	subui	r29,r29,#32; alloc local storage
11258  00009eb0  afa20000	sw	0(r29),r2
11259  00009eb4  afa30004	sw	4(r29),r3
11260  00009eb8  afa40008	sw	8(r29),r4
11261  00009ebc  afa5000c	sw	12(r29),r5
11262  00009ec0  afa60010	sw	16(r29),r6
11263  00009ec4  afa70014	sw	20(r29),r7
11264  00009ec8  8fc20000	lw	r2,(r30)
11265  00009ecc  0fffe490	jal	_GetCurrentPid
11266  00009ed0  54000000	nop; not filled.
11267  00009ed4  00012020	add	r4,r0,r1
11268  00009ed8  6c41001f	sgtui	r1,r2,#31
11269  00009edc  10200010	beqz	r1,L221_LF8
11270  00009ee0  54000000	nop; not filled.
11271  00009ee4  20010001	addi	r1,r0,#1
11272  00009ee8  080001e4	j	L220_LF8
11273  00009eec  54000000	nop; not filled.
11274  00009ef0          	L221_LF8:
11275  00009ef0  23bdfff8	addi	r29,r29,#-8
11276  00009ef4  2007000f	addi	r7,r0,#15
11277  00009ef8  afa70000	sw	(r29),r7
11278  00009efc  0fff7388	jal	_SetIntrs
11279  00009f00  54000000	nop; not filled.
11280  00009f04  00012820	add	r5,r0,r1
11281  00009f08  23bd0008	addi	r29,r29,#8
11282  00009f0c  50410003	slli	r1,r2,#0x3
11283  00009f10  3c070001	lhi	r7,((_conds_LF8)>>16)&0xffff
11284  00009f14  24e75aa8	addui	r7,r7,(_conds_LF8)&0xffff
11285  00009f18  00270820	add	r1,r1,r7
11286  00009f1c  8c230004	lw	r3,4(r1)
11287  00009f20  50610003	slli	r1,r3,#0x3
11288  00009f24  00230822	sub	r1,r1,r3
11289  00009f28  50220002	slli	r2,r1,#0x2
11290  00009f2c  3c070001	lhi	r7,((_locks_LF8)>>16)&0xffff
11291  00009f30  24e753a8	addui	r7,r7,(_locks_LF8)&0xffff
11292  00009f34  00470820	add	r1,r2,r7
11293  00009f38  8c210018	lw	r1,24(r1)
11294  00009f3c  00240829	sne	r1,r1,r4
11295  00009f40  10200024	beqz	r1,L223_LF8
11296  00009f44  54000000	nop; not filled.
11297  00009f48  23bdfff8	addi	r29,r29,#-8
11298  00009f4c  afa50000	sw	(r29),r5
11299  00009f50  0fff7334	jal	_SetIntrs
11300  00009f54  54000000	nop; not filled.
11301  00009f58  23bd0008	addi	r29,r29,#8
11302  00009f5c  20010001	addi	r1,r0,#1
11303  00009f60  0800016c	j	L220_LF8
11304  00009f64  54000000	nop; not filled.
11305  00009f68          	L223_LF8:
11306  00009f68  6c61003f	sgtui	r1,r3,#63
11307  00009f6c  14200084	bnez	r1,L225_LF8
11308  00009f70  54000000	nop; not filled.
11309  00009f74  23bdfff8	addi	r29,r29,#-8
11310  00009f78  2007000f	addi	r7,r0,#15
11311  00009f7c  afa70000	sw	(r29),r7
11312  00009f80  0fff7304	jal	_SetIntrs
11313  00009f84  54000000	nop; not filled.
11314  00009f88  00012020	add	r4,r0,r1
11315  00009f8c  23bd0008	addi	r29,r29,#8
11316  00009f90  3c070001	lhi	r7,((_locks_LF8)>>16)&0xffff
11317  00009f94  24e753a8	addui	r7,r7,(_locks_LF8)&0xffff
11318  00009f98  00471020	add	r2,r2,r7
11319  00009f9c  8c410014	lw	r1,20(r2)
11320  00009fa0  60210001	seqi	r1,r1,#1
11321  00009fa4  10200038	beqz	r1,L228_LF8
11322  00009fa8  54000000	nop; not filled.
11323  00009fac  8c410018	lw	r1,24(r2)
11324  00009fb0  00c10829	sne	r1,r6,r1
11325  00009fb4  1420003c	bnez	r1,L225_LF8
11326  00009fb8  54000000	nop; not filled.
11327  00009fbc  20070000	addi	r7,r0,#0
11328  00009fc0  ac470014	sw	20(r2),r7
11329  00009fc4  0fffe398	jal	_GetCurrentPid
11330  00009fc8  54000000	nop; not filled.
11331  00009fcc  23bdfff8	addi	r29,r29,#-8
11332  00009fd0  afa20000	sw	(r29),r2
11333  00009fd4  0ffff870	jal	_SemSignal
11334  00009fd8  54000000	nop; not filled.
11335  00009fdc  23bd0008	addi	r29,r29,#8
11336  00009fe0          	L228_LF8:
11337  00009fe0  23bdfff8	addi	r29,r29,#-8
11338  00009fe4  afa40000	sw	(r29),r4
11339  00009fe8  0fff729c	jal	_SetIntrs
11340  00009fec  54000000	nop; not filled.
11341  00009ff0  23bd0008	addi	r29,r29,#8
11342  00009ff4          	L225_LF8:
11343  00009ff4  23bdfff8	addi	r29,r29,#-8
11344  00009ff8  afa50000	sw	(r29),r5
11345  00009ffc  0fff7288	jal	_SetIntrs
11346  0000a000  54000000	nop; not filled.
11347  0000a004  23bd0008	addi	r29,r29,#8
11348  0000a008  23bdfff8	addi	r29,r29,#-8
11349  0000a00c  50610003	slli	r1,r3,#0x3
11350  0000a010  00230822	sub	r1,r1,r3
11351  0000a014  50240002	slli	r4,r1,#0x2
11352  0000a018  3c070001	lhi	r7,((_locks_LF8)>>16)&0xffff
11353  0000a01c  24e753a8	addui	r7,r7,(_locks_LF8)&0xffff
11354  0000a020  00870820	add	r1,r4,r7
11355  0000a024  afa10000	sw	(r29),r1
11356  0000a028  0ffff50c	jal	_SemWait
11357  0000a02c  54000000	nop; not filled.
11358  0000a030  23bd0008	addi	r29,r29,#8
11359  0000a034  0fffe328	jal	_GetCurrentPid
11360  0000a038  54000000	nop; not filled.
11361  0000a03c  00011020	add	r2,r0,r1
11362  0000a040  6c61003f	sgtui	r1,r3,#63
11363  0000a044  14200088	bnez	r1,L220_LF8
11364  0000a048  54000000	nop; not filled.
11365  0000a04c  23bdfff8	addi	r29,r29,#-8
11366  0000a050  2007000f	addi	r7,r0,#15
11367  0000a054  afa70000	sw	(r29),r7
11368  0000a058  0fff722c	jal	_SetIntrs
11369  0000a05c  54000000	nop; not filled.
11370  0000a060  00011820	add	r3,r0,r1
11371  0000a064  23bd0008	addi	r29,r29,#8
11372  0000a068  3c070001	lhi	r7,((_locks_LF8)>>16)&0xffff
11373  0000a06c  24e753a8	addui	r7,r7,(_locks_LF8)&0xffff
11374  0000a070  0087f820	add	r31,r4,r7
11375  0000a074  8fe10014	lw	r1,20(r31)
11376  0000a078  60210001	seqi	r1,r1,#1
11377  0000a07c  10200030	beqz	r1,L236_LF8
11378  0000a080  54000000	nop; not filled.
11379  0000a084  8fe10018	lw	r1,24(r31)
11380  0000a088  00410828	seq	r1,r2,r1
11381  0000a08c  1420002c	bnez	r1,L240_LF8
11382  0000a090  54000000	nop; not filled.
11383  0000a094  23bdfff8	addi	r29,r29,#-8
11384  0000a098  afbf0000	sw	(r29),r31
11385  0000a09c  0ffff498	jal	_SemWait
11386  0000a0a0  54000000	nop; not filled.
11387  0000a0a4  23bd0008	addi	r29,r29,#8
11388  0000a0a8  08000010	j	L240_LF8
11389  0000a0ac  54000000	nop; not filled.
11390  0000a0b0          	L236_LF8:
11391  0000a0b0  afe20018	sw	24(r31),r2
11392  0000a0b4  20070001	addi	r7,r0,#1
11393  0000a0b8  afe70014	sw	20(r31),r7
11394  0000a0bc          	L240_LF8:
11395  0000a0bc  23bdfff8	addi	r29,r29,#-8
11396  0000a0c0  afa30000	sw	(r29),r3
11397  0000a0c4  0fff71c0	jal	_SetIntrs
11398  0000a0c8  54000000	nop; not filled.
11399  0000a0cc  23bd0008	addi	r29,r29,#8
11400  0000a0d0          	L220_LF8:
11401  0000a0d0  8fa20000	lw	r2,0(r29)
11402  0000a0d4  8fa30004	lw	r3,4(r29)
11403  0000a0d8  8fa40008	lw	r4,8(r29)
11404  0000a0dc  8fa5000c	lw	r5,12(r29)
11405  0000a0e0  8fa60010	lw	r6,16(r29)
11406  0000a0e4  8fa70014	lw	r7,20(r29)
11407  0000a0e8  8fdffff8	lw	r31,-8(r30)
11408  0000a0ec  001ee820	add	r29,r0,r30
11409  0000a0f0  8fdefffc	lw	r30,-4(r30)
11410  0000a0f4  4be00000	jr	r31
11411  0000a0f8  54000000	nop
11412  0000a0fc          	.endproc _CondHandleWait
11413  0000a0fc          	.align 2
11414  0000a0fc          	.proc _CondHandleSignal
11415  0000a0fc          	.global _CondHandleSignal
11416  0000a0fc          	_CondHandleSignal:
11417                      ;  Function 'CondHandleSignal'; 0 bytes of locals, 4 regs to save.
11418  0000a0fc  afbefffc	sw	-4(r29),r30; push fp
11419  0000a100  001df020	add	r30,r0,r29; fp = sp
11420  0000a104  afbffff8	sw	-8(r29),r31; push ret addr
11421  0000a108  2fbd0018	subui	r29,r29,#24; alloc local storage
11422  0000a10c  afa20000	sw	0(r29),r2
11423  0000a110  afa30004	sw	4(r29),r3
11424  0000a114  afa40008	sw	8(r29),r4
11425  0000a118  afa5000c	sw	12(r29),r5
11426  0000a11c  8fc20000	lw	r2,(r30)
11427  0000a120  0fffe23c	jal	_GetCurrentPid
11428  0000a124  54000000	nop; not filled.
11429  0000a128  00011820	add	r3,r0,r1
11430  0000a12c  6c41001f	sgtui	r1,r2,#31
11431  0000a130  14200090	bnez	r1,L250_LF8
11432  0000a134  54000000	nop; not filled.
11433  0000a138  23bdfff8	addi	r29,r29,#-8
11434  0000a13c  2005000f	addi	r5,r0,#15
11435  0000a140  afa50000	sw	(r29),r5
11436  0000a144  0fff7140	jal	_SetIntrs
11437  0000a148  54000000	nop; not filled.
11438  0000a14c  00012020	add	r4,r0,r1
11439  0000a150  23bd0008	addi	r29,r29,#8
11440  0000a154  50410003	slli	r1,r2,#0x3
11441  0000a158  3c050001	lhi	r5,((_conds_LF8)>>16)&0xffff
11442  0000a15c  24a55aa8	addui	r5,r5,(_conds_LF8)&0xffff
11443  0000a160  00250820	add	r1,r1,r5
11444  0000a164  8c220004	lw	r2,4(r1)
11445  0000a168  50410003	slli	r1,r2,#0x3
11446  0000a16c  00220822	sub	r1,r1,r2
11447  0000a170  50210002	slli	r1,r1,#0x2
11448  0000a174  3c050001	lhi	r5,((_locks_LF8)>>16)&0xffff
11449  0000a178  24a553a8	addui	r5,r5,(_locks_LF8)&0xffff
11450  0000a17c  00251020	add	r2,r1,r5
11451  0000a180  8c410018	lw	r1,24(r2)
11452  0000a184  00230829	sne	r1,r1,r3
11453  0000a188  14200038	bnez	r1,L250_LF8
11454  0000a18c  54000000	nop; not filled.
11455  0000a190  23bdfff8	addi	r29,r29,#-8
11456  0000a194  afa20000	sw	(r29),r2
11457  0000a198  0ffff6ac	jal	_SemSignal
11458  0000a19c  54000000	nop; not filled.
11459  0000a1a0  23bd0008	addi	r29,r29,#8
11460  0000a1a4  23bdfff8	addi	r29,r29,#-8
11461  0000a1a8  afa40000	sw	(r29),r4
11462  0000a1ac  0fff70d8	jal	_SetIntrs
11463  0000a1b0  54000000	nop; not filled.
11464  0000a1b4  23bd0008	addi	r29,r29,#8
11465  0000a1b8  20010000	addi	r1,r0,#0
11466  0000a1bc  08000008	j	L252_LF8
11467  0000a1c0  54000000	nop; not filled.
11468  0000a1c4          	L250_LF8:
11469  0000a1c4  20010001	addi	r1,r0,#1
11470  0000a1c8          	L252_LF8:
11471  0000a1c8  8fa20000	lw	r2,0(r29)
11472  0000a1cc  8fa30004	lw	r3,4(r29)
11473  0000a1d0  8fa40008	lw	r4,8(r29)
11474  0000a1d4  8fa5000c	lw	r5,12(r29)
11475  0000a1d8  8fdffff8	lw	r31,-8(r30)
11476  0000a1dc  001ee820	add	r29,r0,r30
11477  0000a1e0  8fdefffc	lw	r30,-4(r30)
11478  0000a1e4  4be00000	jr	r31
11479  0000a1e8  54000000	nop
11480  0000a1ec          	.endproc _CondHandleSignal
11481  0000a1ec          	.align 2
11482  0000a1ec          	.proc _CondHandleBroadcast
11483  0000a1ec          	.global _CondHandleBroadcast
11484  0000a1ec          	_CondHandleBroadcast:
11485                      ;  Function 'CondHandleBroadcast'; 0 bytes of locals, 6 regs to save.
11486  0000a1ec  afbefffc	sw	-4(r29),r30; push fp
11487  0000a1f0  001df020	add	r30,r0,r29; fp = sp
11488  0000a1f4  afbffff8	sw	-8(r29),r31; push ret addr
11489  0000a1f8  2fbd0020	subui	r29,r29,#32; alloc local storage
11490  0000a1fc  afa20000	sw	0(r29),r2
11491  0000a200  afa30004	sw	4(r29),r3
11492  0000a204  afa40008	sw	8(r29),r4
11493  0000a208  afa5000c	sw	12(r29),r5
11494  0000a20c  afa60010	sw	16(r29),r6
11495  0000a210  afa70014	sw	20(r29),r7
11496  0000a214  8fc50000	lw	r5,(r30)
11497  0000a218  0fffe144	jal	_GetCurrentPid
11498  0000a21c  54000000	nop; not filled.
11499  0000a220  50a40003	slli	r4,r5,#0x3
11500  0000a224  3c070001	lhi	r7,((_conds_LF8)>>16)&0xffff
11501  0000a228  24e75aa8	addui	r7,r7,(_conds_LF8)&0xffff
11502  0000a22c  00871020	add	r2,r4,r7
11503  0000a230  8c430004	lw	r3,4(r2)
11504  0000a234  50620003	slli	r2,r3,#0x3
11505  0000a238  00431022	sub	r2,r2,r3
11506  0000a23c  50420002	slli	r2,r2,#0x2
11507  0000a240  3c070001	lhi	r7,((_locks_LF8)>>16)&0xffff
11508  0000a244  24e753a8	addui	r7,r7,(_locks_LF8)&0xffff
11509  0000a248  00471020	add	r2,r2,r7
11510  0000a24c  8c420018	lw	r2,24(r2)
11511  0000a250  00410829	sne	r1,r2,r1
11512  0000a254  10200010	beqz	r1,L254_LF8
11513  0000a258  54000000	nop; not filled.
11514  0000a25c  20010001	addi	r1,r0,#1
11515  0000a260  080000b8	j	L263_LF8
11516  0000a264  54000000	nop; not filled.
11517  0000a268          	L254_LF8:
11518  0000a268  6ca6001f	sgtui	r6,r5,#31
11519  0000a26c  3c070001	lhi	r7,((_conds_LF8)>>16)&0xffff
11520  0000a270  24e75aa8	addui	r7,r7,(_conds_LF8)&0xffff
11521  0000a274  00872820	add	r5,r4,r7
11522  0000a278          	L255_LF8:
11523  0000a278  0fffe0e4	jal	_GetCurrentPid
11524  0000a27c  54000000	nop; not filled.
11525  0000a280  00011820	add	r3,r0,r1
11526  0000a284  14c0004c	bnez	r6,L264_LF8
11527  0000a288  54000000	nop; not filled.
11528  0000a28c  23bdfff8	addi	r29,r29,#-8
11529  0000a290  2007000f	addi	r7,r0,#15
11530  0000a294  afa70000	sw	(r29),r7
11531  0000a298  0fff6fec	jal	_SetIntrs
11532  0000a29c  54000000	nop; not filled.
11533  0000a2a0  00012020	add	r4,r0,r1
11534  0000a2a4  23bd0008	addi	r29,r29,#8
11535  0000a2a8  8ca20004	lw	r2,4(r5)
11536  0000a2ac  50410003	slli	r1,r2,#0x3
11537  0000a2b0  00220822	sub	r1,r1,r2
11538  0000a2b4  50210002	slli	r1,r1,#0x2
11539  0000a2b8  3c070001	lhi	r7,((_locks_LF8)>>16)&0xffff
11540  0000a2bc  24e753a8	addui	r7,r7,(_locks_LF8)&0xffff
11541  0000a2c0  00271020	add	r2,r1,r7
11542  0000a2c4  8c410018	lw	r1,24(r2)
11543  0000a2c8  00230829	sne	r1,r1,r3
11544  0000a2cc  10200010	beqz	r1,L261_LF8
11545  0000a2d0  54000000	nop; not filled.
11546  0000a2d4          	L264_LF8:
11547  0000a2d4  20010001	addi	r1,r0,#1
11548  0000a2d8  08000030	j	L258_LF8
11549  0000a2dc  54000000	nop; not filled.
11550  0000a2e0          	L261_LF8:
11551  0000a2e0  23bdfff8	addi	r29,r29,#-8
11552  0000a2e4  afa20000	sw	(r29),r2
11553  0000a2e8  0ffff55c	jal	_SemSignal
11554  0000a2ec  54000000	nop; not filled.
11555  0000a2f0  23bd0008	addi	r29,r29,#8
11556  0000a2f4  23bdfff8	addi	r29,r29,#-8
11557  0000a2f8  afa40000	sw	(r29),r4
11558  0000a2fc  0fff6f88	jal	_SetIntrs
11559  0000a300  54000000	nop; not filled.
11560  0000a304  23bd0008	addi	r29,r29,#8
11561  0000a308  20010000	addi	r1,r0,#0
11562  0000a30c          	L258_LF8:
11563  0000a30c  64210000	snei	r1,r1,#0
11564  0000a310  1020ff64	beqz	r1,L255_LF8
11565  0000a314  54000000	nop; not filled.
11566  0000a318  20010000	addi	r1,r0,#0
11567  0000a31c          	L263_LF8:
11568  0000a31c  8fa20000	lw	r2,0(r29)
11569  0000a320  8fa30004	lw	r3,4(r29)
11570  0000a324  8fa40008	lw	r4,8(r29)
11571  0000a328  8fa5000c	lw	r5,12(r29)
11572  0000a32c  8fa60010	lw	r6,16(r29)
11573  0000a330  8fa70014	lw	r7,20(r29)
11574  0000a334  8fdffff8	lw	r31,-8(r30)
11575  0000a338  001ee820	add	r29,r0,r30
11576  0000a33c  8fdefffc	lw	r30,-4(r30)
11577  0000a340  4be00000	jr	r31
11578  0000a344  54000000	nop
11579  0000a348          	.endproc _CondHandleBroadcast
11580  0000a348          	.data
11581  00015125          	.align 2
11582  00015128          	_sems_LF8:
11583  00015128          	.space 640
11584  000153a8          	.align 2
11585  000153a8          	_locks_LF8:
11586  000153a8          	.space 1792
11587  00015aa8          	.align 2
11588  00015aa8          	_conds_LF8:
11589  00015aa8          	.space 256
11590                      ; Compiled by GCC
11592  00015ba8          	.align 2
11593  00015ba8          	_rcsid_LF9:
11594  00015ba8  3a207472	.ascii "$Id: traps.c,v 1.1 2000/09/20 01:50:19 elm Exp elm $\000"
11594  00015bac  6170732e	
11594  00015bb0  632c7620	
11594  00015bb4  312e3120	
11594  00015bb8  32303030	
11594  00015bbc  2f30392f	
11594  00015bc0  32302030	
11594  00015bc4  313a3530	
11594  00015bc8  3a313920	
11594  00015bcc  656c6d20	
11594  00015bd0  45787020	
11594  00015bd4  656c6d20	
11594  00015bd8  303030  	
11595  00015bdb          	.text
11596  0000a348          	.align 2
11597  0000a348          	.proc _isspace
11598  0000a348          	.global _isspace
11599  0000a348          	_isspace:
11600                      ;  Function 'isspace'; 0 bytes of locals, 1 regs to save.
11601  0000a348  afbefffc	sw	-4(r29),r30; push fp
11602  0000a34c  001df020	add	r30,r0,r29; fp = sp
11603  0000a350  afbffff8	sw	-8(r29),r31; push ret addr
11604  0000a354  2fbd0010	subui	r29,r29,#16; alloc local storage
11605  0000a358  afa20000	sw	0(r29),r2
11606  0000a35c  83c20003	lb	r2,3(r30)
11607  0000a360  201f0000	addi	r31,r0,#0
11608  0000a364  304100ff	andi	r1,r2,#0x00ff
11609  0000a368  60210020	seqi	r1,r1,#32
11610  0000a36c  14200018	bnez	r1,L6_LF9
11611  0000a370  54000000	nop; not filled.
11612  0000a374  2041fff7	addi	r1,r2,#-9
11613  0000a378  302100ff	andi	r1,r1,#0x00ff
11614  0000a37c  70210001	sleui	r1,r1,#1
11615  0000a380  10200008	beqz	r1,L5_LF9
11616  0000a384  54000000	nop; not filled.
11617  0000a388          	L6_LF9:
11618  0000a388  201f0001	addi	r31,r0,#1
11619  0000a38c          	L5_LF9:
11620  0000a38c  001f0820	add	r1,r0,r31
11621  0000a390  8fa20000	lw	r2,0(r29)
11622  0000a394  8fdffff8	lw	r31,-8(r30)
11623  0000a398  001ee820	add	r29,r0,r30
11624  0000a39c  8fdefffc	lw	r30,-4(r30)
11625  0000a3a0  4be00000	jr	r31
11626  0000a3a4  54000000	nop
11627  0000a3a8          	.endproc _isspace
11628  0000a3a8          	.align 2
11629  0000a3a8          	.proc _isxdigit
11630  0000a3a8          	.global _isxdigit
11631  0000a3a8          	_isxdigit:
11632                      ;  Function 'isxdigit'; 0 bytes of locals, 1 regs to save.
11633  0000a3a8  afbefffc	sw	-4(r29),r30; push fp
11634  0000a3ac  001df020	add	r30,r0,r29; fp = sp
11635  0000a3b0  afbffff8	sw	-8(r29),r31; push ret addr
11636  0000a3b4  2fbd0010	subui	r29,r29,#16; alloc local storage
11637  0000a3b8  afa20000	sw	0(r29),r2
11638  0000a3bc  83df0003	lb	r31,3(r30)
11639  0000a3c0  20020000	addi	r2,r0,#0
11640  0000a3c4  23e1ffd0	addi	r1,r31,#-48
11641  0000a3c8  302100ff	andi	r1,r1,#0x00ff
11642  0000a3cc  70210009	sleui	r1,r1,#9
11643  0000a3d0  14200028	bnez	r1,L12_LF9
11644  0000a3d4  54000000	nop; not filled.
11645  0000a3d8  23e1ff9f	addi	r1,r31,#-97
11646  0000a3dc  302100ff	andi	r1,r1,#0x00ff
11647  0000a3e0  70210005	sleui	r1,r1,#5
11648  0000a3e4  14200014	bnez	r1,L12_LF9
11649  0000a3e8  54000000	nop; not filled.
11650  0000a3ec  33e100ff	andi	r1,r31,#0x00ff
11651  0000a3f0  64210041	snei	r1,r1,#65
11652  0000a3f4  14200008	bnez	r1,L11_LF9
11653  0000a3f8  54000000	nop; not filled.
11654  0000a3fc          	L12_LF9:
11655  0000a3fc  20020001	addi	r2,r0,#1
11656  0000a400          	L11_LF9:
11657  0000a400  00020820	add	r1,r0,r2
11658  0000a404  8fa20000	lw	r2,0(r29)
11659  0000a408  8fdffff8	lw	r31,-8(r30)
11660  0000a40c  001ee820	add	r29,r0,r30
11661  0000a410  8fdefffc	lw	r30,-4(r30)
11662  0000a414  4be00000	jr	r31
11663  0000a418  54000000	nop
11664  0000a41c          	.endproc _isxdigit
11665  0000a41c          	.align 2
11666  0000a41c          	.proc _DisableIntrs
11667  0000a41c          	.global _DisableIntrs
11668  0000a41c          	_DisableIntrs:
11669                      ;  Function 'DisableIntrs'; 0 bytes of locals, 1 regs to save.
11670  0000a41c  afbefffc	sw	-4(r29),r30; push fp
11671  0000a420  001df020	add	r30,r0,r29; fp = sp
11672  0000a424  afbffff8	sw	-8(r29),r31; push ret addr
11673  0000a428  2fbd0010	subui	r29,r29,#16; alloc local storage
11674  0000a42c  afa20000	sw	0(r29),r2
11675  0000a430  23bdfff8	addi	r29,r29,#-8
11676  0000a434  2002000f	addi	r2,r0,#15
11677  0000a438  afa20000	sw	(r29),r2
11678  0000a43c  0fff6e48	jal	_SetIntrs
11679  0000a440  54000000	nop; not filled.
11680  0000a444  23bd0008	addi	r29,r29,#8
11681  0000a448  8fa20000	lw	r2,0(r29)
11682  0000a44c  8fdffff8	lw	r31,-8(r30)
11683  0000a450  001ee820	add	r29,r0,r30
11684  0000a454  8fdefffc	lw	r30,-4(r30)
11685  0000a458  4be00000	jr	r31
11686  0000a45c  54000000	nop
11687  0000a460          	.endproc _DisableIntrs
11688  0000a460          	.align 2
11689  0000a460          	.proc _EnableIntrs
11690  0000a460          	.global _EnableIntrs
11691  0000a460          	_EnableIntrs:
11692                      ;  Function 'EnableIntrs'; 0 bytes of locals, 1 regs to save.
11693  0000a460  afbefffc	sw	-4(r29),r30; push fp
11694  0000a464  001df020	add	r30,r0,r29; fp = sp
11695  0000a468  afbffff8	sw	-8(r29),r31; push ret addr
11696  0000a46c  2fbd0010	subui	r29,r29,#16; alloc local storage
11697  0000a470  afa20000	sw	0(r29),r2
11698  0000a474  23bdfff8	addi	r29,r29,#-8
11699  0000a478  20020000	addi	r2,r0,#0
11700  0000a47c  afa20000	sw	(r29),r2
11701  0000a480  0fff6e04	jal	_SetIntrs
11702  0000a484  54000000	nop; not filled.
11703  0000a488  23bd0008	addi	r29,r29,#8
11704  0000a48c  8fa20000	lw	r2,0(r29)
11705  0000a490  8fdffff8	lw	r31,-8(r30)
11706  0000a494  001ee820	add	r29,r0,r30
11707  0000a498  8fdefffc	lw	r30,-4(r30)
11708  0000a49c  4be00000	jr	r31
11709  0000a4a0  54000000	nop
11710  0000a4a4          	.endproc _EnableIntrs
11711  0000a4a4          	.align 2
11712  0000a4a4          	.proc _RestoreIntrs
11713  0000a4a4          	.global _RestoreIntrs
11714  0000a4a4          	_RestoreIntrs:
11715                      ;  Function 'RestoreIntrs'; 0 bytes of locals, 1 regs to save.
11716  0000a4a4  afbefffc	sw	-4(r29),r30; push fp
11717  0000a4a8  001df020	add	r30,r0,r29; fp = sp
11718  0000a4ac  afbffff8	sw	-8(r29),r31; push ret addr
11719  0000a4b0  2fbd0010	subui	r29,r29,#16; alloc local storage
11720  0000a4b4  afa20000	sw	0(r29),r2
11721  0000a4b8  23bdfff8	addi	r29,r29,#-8
11722  0000a4bc  8fc20000	lw	r2,(r30)
11723  0000a4c0  afa20000	sw	(r29),r2
11724  0000a4c4  0fff6dc0	jal	_SetIntrs
11725  0000a4c8  54000000	nop; not filled.
11726  0000a4cc  23bd0008	addi	r29,r29,#8
11727  0000a4d0  8fa20000	lw	r2,0(r29)
11728  0000a4d4  8fdffff8	lw	r31,-8(r30)
11729  0000a4d8  001ee820	add	r29,r0,r30
11730  0000a4dc  8fdefffc	lw	r30,-4(r30)
11731  0000a4e0  4be00000	jr	r31
11732  0000a4e4  54000000	nop
11733  0000a4e8          	.endproc _RestoreIntrs
11734  0000a4e8          	.align 2
11735  0000a4e8          	.proc _QueueLinkInit
11736  0000a4e8          	.global _QueueLinkInit
11737  0000a4e8          	_QueueLinkInit:
11738                      ;  Function 'QueueLinkInit'; 0 bytes of locals, 1 regs to save.
11739  0000a4e8  afbefffc	sw	-4(r29),r30; push fp
11740  0000a4ec  001df020	add	r30,r0,r29; fp = sp
11741  0000a4f0  afbffff8	sw	-8(r29),r31; push ret addr
11742  0000a4f4  2fbd0010	subui	r29,r29,#16; alloc local storage
11743  0000a4f8  afa20000	sw	0(r29),r2
11744  0000a4fc  8fc10000	lw	r1,(r30)
11745  0000a500  8fc20004	lw	r2,4(r30)
11746  0000a504  201f0000	addi	r31,r0,#0
11747  0000a508  ac3f0000	sw	(r1),r31
11748  0000a50c  ac22000c	sw	12(r1),r2
11749  0000a510  8fa20000	lw	r2,0(r29)
11750  0000a514  8fdffff8	lw	r31,-8(r30)
11751  0000a518  001ee820	add	r29,r0,r30
11752  0000a51c  8fdefffc	lw	r30,-4(r30)
11753  0000a520  4be00000	jr	r31
11754  0000a524  54000000	nop
11755  0000a528          	.endproc _QueueLinkInit
11756  0000a528          	.align 2
11757  0000a528          	.proc _QueueNext
11758  0000a528          	.global _QueueNext
11759  0000a528          	_QueueNext:
11760                      ;  Function 'QueueNext'; 0 bytes of locals, 0 regs to save.
11761  0000a528  afbefffc	sw	-4(r29),r30; push fp
11762  0000a52c  001df020	add	r30,r0,r29; fp = sp
11763  0000a530  afbffff8	sw	-8(r29),r31; push ret addr
11764  0000a534  2fbd0008	subui	r29,r29,#8; alloc local storage
11765  0000a538  8fc10000	lw	r1,(r30)
11766  0000a53c  8c210000	lw	r1,(r1)
11767  0000a540  8fdffff8	lw	r31,-8(r30)
11768  0000a544  001ee820	add	r29,r0,r30
11769  0000a548  8fdefffc	lw	r30,-4(r30)
11770  0000a54c  4be00000	jr	r31
11771  0000a550  54000000	nop
11772  0000a554          	.endproc _QueueNext
11773  0000a554          	.align 2
11774  0000a554          	.proc _QueuePrev
11775  0000a554          	.global _QueuePrev
11776  0000a554          	_QueuePrev:
11777                      ;  Function 'QueuePrev'; 0 bytes of locals, 0 regs to save.
11778  0000a554  afbefffc	sw	-4(r29),r30; push fp
11779  0000a558  001df020	add	r30,r0,r29; fp = sp
11780  0000a55c  afbffff8	sw	-8(r29),r31; push ret addr
11781  0000a560  2fbd0008	subui	r29,r29,#8; alloc local storage
11782  0000a564  8fc10000	lw	r1,(r30)
11783  0000a568  8c210004	lw	r1,4(r1)
11784  0000a56c  8fdffff8	lw	r31,-8(r30)
11785  0000a570  001ee820	add	r29,r0,r30
11786  0000a574  8fdefffc	lw	r30,-4(r30)
11787  0000a578  4be00000	jr	r31
11788  0000a57c  54000000	nop
11789  0000a580          	.endproc _QueuePrev
11790  0000a580          	.align 2
11791  0000a580          	.proc _QueueFirst
11792  0000a580          	.global _QueueFirst
11793  0000a580          	_QueueFirst:
11794                      ;  Function 'QueueFirst'; 0 bytes of locals, 0 regs to save.
11795  0000a580  afbefffc	sw	-4(r29),r30; push fp
11796  0000a584  001df020	add	r30,r0,r29; fp = sp
11797  0000a588  afbffff8	sw	-8(r29),r31; push ret addr
11798  0000a58c  2fbd0008	subui	r29,r29,#8; alloc local storage
11799  0000a590  8fc10000	lw	r1,(r30)
11800  0000a594  8c210000	lw	r1,(r1)
11801  0000a598  8fdffff8	lw	r31,-8(r30)
11802  0000a59c  001ee820	add	r29,r0,r30
11803  0000a5a0  8fdefffc	lw	r30,-4(r30)
11804  0000a5a4  4be00000	jr	r31
11805  0000a5a8  54000000	nop
11806  0000a5ac          	.endproc _QueueFirst
11807  0000a5ac          	.align 2
11808  0000a5ac          	.proc _QueueLast
11809  0000a5ac          	.global _QueueLast
11810  0000a5ac          	_QueueLast:
11811                      ;  Function 'QueueLast'; 0 bytes of locals, 0 regs to save.
11812  0000a5ac  afbefffc	sw	-4(r29),r30; push fp
11813  0000a5b0  001df020	add	r30,r0,r29; fp = sp
11814  0000a5b4  afbffff8	sw	-8(r29),r31; push ret addr
11815  0000a5b8  2fbd0008	subui	r29,r29,#8; alloc local storage
11816  0000a5bc  8fc10000	lw	r1,(r30)
11817  0000a5c0  8c210004	lw	r1,4(r1)
11818  0000a5c4  8fdffff8	lw	r31,-8(r30)
11819  0000a5c8  001ee820	add	r29,r0,r30
11820  0000a5cc  8fdefffc	lw	r30,-4(r30)
11821  0000a5d0  4be00000	jr	r31
11822  0000a5d4  54000000	nop
11823  0000a5d8          	.endproc _QueueLast
11824  0000a5d8          	.align 2
11825  0000a5d8          	.proc _QueueInsertAfter
11826  0000a5d8          	.global _QueueInsertAfter
11827  0000a5d8          	_QueueInsertAfter:
11828                      ;  Function 'QueueInsertAfter'; 0 bytes of locals, 2 regs to save.
11829  0000a5d8  afbefffc	sw	-4(r29),r30; push fp
11830  0000a5dc  001df020	add	r30,r0,r29; fp = sp
11831  0000a5e0  afbffff8	sw	-8(r29),r31; push ret addr
11832  0000a5e4  2fbd0010	subui	r29,r29,#16; alloc local storage
11833  0000a5e8  afa20000	sw	0(r29),r2
11834  0000a5ec  afa30004	sw	4(r29),r3
11835  0000a5f0  8fc30000	lw	r3,(r30)
11836  0000a5f4  8fc20004	lw	r2,4(r30)
11837  0000a5f8  8fc10008	lw	r1,8(r30)
11838  0000a5fc  ac230008	sw	8(r1),r3
11839  0000a600  ac220004	sw	4(r1),r2
11840  0000a604  8c5f0000	lw	r31,(r2)
11841  0000a608  ac3f0000	sw	(r1),r31
11842  0000a60c  ac410000	sw	(r2),r1
11843  0000a610  8c220000	lw	r2,(r1)
11844  0000a614  ac410004	sw	4(r2),r1
11845  0000a618  8c610008	lw	r1,8(r3)
11846  0000a61c  20210001	addi	r1,r1,#1
11847  0000a620  ac610008	sw	8(r3),r1
11848  0000a624  8fa20000	lw	r2,0(r29)
11849  0000a628  8fa30004	lw	r3,4(r29)
11850  0000a62c  8fdffff8	lw	r31,-8(r30)
11851  0000a630  001ee820	add	r29,r0,r30
11852  0000a634  8fdefffc	lw	r30,-4(r30)
11853  0000a638  4be00000	jr	r31
11854  0000a63c  54000000	nop
11855  0000a640          	.endproc _QueueInsertAfter
11856  0000a640          	.align 2
11857  0000a640          	.proc _QueueInsertFirst
11858  0000a640          	.global _QueueInsertFirst
11859  0000a640          	_QueueInsertFirst:
11860                      ;  Function 'QueueInsertFirst'; 0 bytes of locals, 2 regs to save.
11861  0000a640  afbefffc	sw	-4(r29),r30; push fp
11862  0000a644  001df020	add	r30,r0,r29; fp = sp
11863  0000a648  afbffff8	sw	-8(r29),r31; push ret addr
11864  0000a64c  2fbd0010	subui	r29,r29,#16; alloc local storage
11865  0000a650  afa20000	sw	0(r29),r2
11866  0000a654  afa30004	sw	4(r29),r3
11867  0000a658  8fc30000	lw	r3,(r30)
11868  0000a65c  8fc10004	lw	r1,4(r30)
11869  0000a660  ac230008	sw	8(r1),r3
11870  0000a664  ac230004	sw	4(r1),r3
11871  0000a668  8c7f0000	lw	r31,(r3)
11872  0000a66c  ac3f0000	sw	(r1),r31
11873  0000a670  ac610000	sw	(r3),r1
11874  0000a674  8c220000	lw	r2,(r1)
11875  0000a678  ac410004	sw	4(r2),r1
11876  0000a67c  8c610008	lw	r1,8(r3)
11877  0000a680  20210001	addi	r1,r1,#1
11878  0000a684  ac610008	sw	8(r3),r1
11879  0000a688  8fa20000	lw	r2,0(r29)
11880  0000a68c  8fa30004	lw	r3,4(r29)
11881  0000a690  8fdffff8	lw	r31,-8(r30)
11882  0000a694  001ee820	add	r29,r0,r30
11883  0000a698  8fdefffc	lw	r30,-4(r30)
11884  0000a69c  4be00000	jr	r31
11885  0000a6a0  54000000	nop
11886  0000a6a4          	.endproc _QueueInsertFirst
11887  0000a6a4          	.align 2
11888  0000a6a4          	.proc _QueueInsertLast
11889  0000a6a4          	.global _QueueInsertLast
11890  0000a6a4          	_QueueInsertLast:
11891                      ;  Function 'QueueInsertLast'; 0 bytes of locals, 2 regs to save.
11892  0000a6a4  afbefffc	sw	-4(r29),r30; push fp
11893  0000a6a8  001df020	add	r30,r0,r29; fp = sp
11894  0000a6ac  afbffff8	sw	-8(r29),r31; push ret addr
11895  0000a6b0  2fbd0010	subui	r29,r29,#16; alloc local storage
11896  0000a6b4  afa20000	sw	0(r29),r2
11897  0000a6b8  afa30004	sw	4(r29),r3
11898  0000a6bc  8fc30000	lw	r3,(r30)
11899  0000a6c0  8fc10004	lw	r1,4(r30)
11900  0000a6c4  8c620004	lw	r2,4(r3)
11901  0000a6c8  ac230008	sw	8(r1),r3
11902  0000a6cc  ac220004	sw	4(r1),r2
11903  0000a6d0  8c5f0000	lw	r31,(r2)
11904  0000a6d4  ac3f0000	sw	(r1),r31
11905  0000a6d8  ac410000	sw	(r2),r1
11906  0000a6dc  8c220000	lw	r2,(r1)
11907  0000a6e0  ac410004	sw	4(r2),r1
11908  0000a6e4  8c610008	lw	r1,8(r3)
11909  0000a6e8  20210001	addi	r1,r1,#1
11910  0000a6ec  ac610008	sw	8(r3),r1
11911  0000a6f0  8fa20000	lw	r2,0(r29)
11912  0000a6f4  8fa30004	lw	r3,4(r29)
11913  0000a6f8  8fdffff8	lw	r31,-8(r30)
11914  0000a6fc  001ee820	add	r29,r0,r30
11915  0000a700  8fdefffc	lw	r30,-4(r30)
11916  0000a704  4be00000	jr	r31
11917  0000a708  54000000	nop
11918  0000a70c          	.endproc _QueueInsertLast
11919  0000a70c          	.align 2
11920  0000a70c          	.proc _QueueRemove
11921  0000a70c          	.global _QueueRemove
11922  0000a70c          	_QueueRemove:
11923                      ;  Function 'QueueRemove'; 0 bytes of locals, 2 regs to save.
11924  0000a70c  afbefffc	sw	-4(r29),r30; push fp
11925  0000a710  001df020	add	r30,r0,r29; fp = sp
11926  0000a714  afbffff8	sw	-8(r29),r31; push ret addr
11927  0000a718  2fbd0010	subui	r29,r29,#16; alloc local storage
11928  0000a71c  afa20000	sw	0(r29),r2
11929  0000a720  afa30004	sw	4(r29),r3
11930  0000a724  8fdf0000	lw	r31,(r30)
11931  0000a728  8fe10008	lw	r1,8(r31)
11932  0000a72c  8c210008	lw	r1,8(r1)
11933  0000a730  6c210000	sgti	r1,r1,#0
11934  0000a734  1020002c	beqz	r1,L44_LF9
11935  0000a738  54000000	nop; not filled.
11936  0000a73c  8fe10004	lw	r1,4(r31)
11937  0000a740  8fe30000	lw	r3,(r31)
11938  0000a744  ac230000	sw	(r1),r3
11939  0000a748  8fe10000	lw	r1,(r31)
11940  0000a74c  8fe30004	lw	r3,4(r31)
11941  0000a750  ac230004	sw	4(r1),r3
11942  0000a754  8fe20008	lw	r2,8(r31)
11943  0000a758  8c410008	lw	r1,8(r2)
11944  0000a75c  2021ffff	addi	r1,r1,#-1
11945  0000a760  ac410008	sw	8(r2),r1
11946  0000a764          	L44_LF9:
11947  0000a764  20030000	addi	r3,r0,#0
11948  0000a768  afe30000	sw	(r31),r3
11949  0000a76c  8fa20000	lw	r2,0(r29)
11950  0000a770  8fa30004	lw	r3,4(r29)
11951  0000a774  8fdffff8	lw	r31,-8(r30)
11952  0000a778  001ee820	add	r29,r0,r30
11953  0000a77c  8fdefffc	lw	r30,-4(r30)
11954  0000a780  4be00000	jr	r31
11955  0000a784  54000000	nop
11956  0000a788          	.endproc _QueueRemove
11957  0000a788          	.align 2
11958  0000a788          	.proc _QueueLength
11959  0000a788          	.global _QueueLength
11960  0000a788          	_QueueLength:
11961                      ;  Function 'QueueLength'; 0 bytes of locals, 0 regs to save.
11962  0000a788  afbefffc	sw	-4(r29),r30; push fp
11963  0000a78c  001df020	add	r30,r0,r29; fp = sp
11964  0000a790  afbffff8	sw	-8(r29),r31; push ret addr
11965  0000a794  2fbd0008	subui	r29,r29,#8; alloc local storage
11966  0000a798  8fc10000	lw	r1,(r30)
11967  0000a79c  8c210008	lw	r1,8(r1)
11968  0000a7a0  8fdffff8	lw	r31,-8(r30)
11969  0000a7a4  001ee820	add	r29,r0,r30
11970  0000a7a8  8fdefffc	lw	r30,-4(r30)
11971  0000a7ac  4be00000	jr	r31
11972  0000a7b0  54000000	nop
11973  0000a7b4          	.endproc _QueueLength
11974  0000a7b4          	.align 2
11975  0000a7b4          	.proc _QueueEmpty
11976  0000a7b4          	.global _QueueEmpty
11977  0000a7b4          	_QueueEmpty:
11978                      ;  Function 'QueueEmpty'; 0 bytes of locals, 0 regs to save.
11979  0000a7b4  afbefffc	sw	-4(r29),r30; push fp
11980  0000a7b8  001df020	add	r30,r0,r29; fp = sp
11981  0000a7bc  afbffff8	sw	-8(r29),r31; push ret addr
11982  0000a7c0  2fbd0008	subui	r29,r29,#8; alloc local storage
11983  0000a7c4  8fc10000	lw	r1,(r30)
11984  0000a7c8  8c210008	lw	r1,8(r1)
11985  0000a7cc  60210000	seqi	r1,r1,#0
11986  0000a7d0  8fdffff8	lw	r31,-8(r30)
11987  0000a7d4  001ee820	add	r29,r0,r30
11988  0000a7d8  8fdefffc	lw	r30,-4(r30)
11989  0000a7dc  4be00000	jr	r31
11990  0000a7e0  54000000	nop
11991  0000a7e4          	.endproc _QueueEmpty
11992  0000a7e4          	.align 2
11993  0000a7e4          	.proc _TimerSet
11994  0000a7e4          	.global _TimerSet
11995  0000a7e4          	_TimerSet:
11996                      ;  Function 'TimerSet'; 0 bytes of locals, 0 regs to save.
11997  0000a7e4  afbefffc	sw	-4(r29),r30; push fp
11998  0000a7e8  001df020	add	r30,r0,r29; fp = sp
11999  0000a7ec  afbffff8	sw	-8(r29),r31; push ret addr
12000  0000a7f0  2fbd0008	subui	r29,r29,#8; alloc local storage
12001  0000a7f4  3c01fff0	lhi	r1,#-16
12002  0000a7f8  24210010	addui	r1,r1,#16
12003  0000a7fc  8fdf0000	lw	r31,(r30)
12004  0000a800  ac3f0000	sw	(r1),r31
12005  0000a804  8fdffff8	lw	r31,-8(r30)
12006  0000a808  001ee820	add	r29,r0,r30
12007  0000a80c  8fdefffc	lw	r30,-4(r30)
12008  0000a810  4be00000	jr	r31
12009  0000a814  54000000	nop
12010  0000a818          	.endproc _TimerSet
12011  0000a818          	.align 2
12012  0000a818          	.proc _KbdModuleInit
12013  0000a818          	.global _KbdModuleInit
12014  0000a818          	_KbdModuleInit:
12015                      ;  Function 'KbdModuleInit'; 0 bytes of locals, 0 regs to save.
12016  0000a818  afbefffc	sw	-4(r29),r30; push fp
12017  0000a81c  001df020	add	r30,r0,r29; fp = sp
12018  0000a820  afbffff8	sw	-8(r29),r31; push ret addr
12019  0000a824  2fbd0008	subui	r29,r29,#8; alloc local storage
12020  0000a828  3c01fff0	lhi	r1,#-16
12021  0000a82c  242101c0	addui	r1,r1,#448
12022  0000a830  201f0001	addi	r31,r0,#1
12023  0000a834  ac3f0000	sw	(r1),r31
12024  0000a838  8fdffff8	lw	r31,-8(r30)
12025  0000a83c  001ee820	add	r29,r0,r30
12026  0000a840  8fdefffc	lw	r30,-4(r30)
12027  0000a844  4be00000	jr	r31
12028  0000a848  54000000	nop
12029  0000a84c          	.endproc _KbdModuleInit
12030  0000a84c          	.data
12031  00015bdb          	.align 2
12032  00015bdc          	LC0_LF9:
12033  00015bdc  46617461	.ascii "Fatal: Cumulative length of all arguments > 100\n\000"
12033  00015be0  6c3a2043	
12033  00015be4  756d756c	
12033  00015be8  61746976	
12033  00015bec  65206c65	
12033  00015bf0  6e677468	
12033  00015bf4  206f6620	
12033  00015bf8  616c6c20	
12033  00015bfc  61726775	
12033  00015c00  6d656e74	
12033  00015c04  73203e20	
12033  00015c08  3130300a	
12033  00015c0c  00      	
12034  00015c0d          	.text
12035  0000a84c          	.align 2
12036  0000a84c          	.proc _TrapProcessCreateHandler_LF9
12037  0000a84c          	_TrapProcessCreateHandler_LF9:
12038                      ;  Function 'TrapProcessCreateHandler'; 1640 bytes of locals, 11 regs to save.
12039  0000a84c  afbefffc	sw	-4(r29),r30; push fp
12040  0000a850  001df020	add	r30,r0,r29; fp = sp
12041  0000a854  afbffff8	sw	-8(r29),r31; push ret addr
12042  0000a858  2fbd06a0	subui	r29,r29,#1696; alloc local storage
12043  0000a85c  afa20000	sw	0(r29),r2
12044  0000a860  afa30004	sw	4(r29),r3
12045  0000a864  afa40008	sw	8(r29),r4
12046  0000a868  afa5000c	sw	12(r29),r5
12047  0000a86c  afa60010	sw	16(r29),r6
12048  0000a870  afa70014	sw	20(r29),r7
12049  0000a874  afa80018	sw	24(r29),r8
12050  0000a878  afa9001c	sw	28(r29),r9
12051  0000a87c  afaa0020	sw	32(r29),r10
12052  0000a880  afab0024	sw	36(r29),r11
12053  0000a884  afac0028	sw	40(r29),r12
12054  0000a888  8fc40000	lw	r4,(r30)
12055  0000a88c  8fc60004	lw	r6,4(r30)
12056  0000a890  23c2fbf8	addi	r2,r30,#-1032
12057  0000a894  23c3fc5b	addi	r3,r30,#-933
12058  0000a898          	L65_LF9:
12059  0000a898  200c0000	addi	r12,r0,(#0x0)&0xff
12060  0000a89c  a04c0000	sb	(r2),r12
12061  0000a8a0  20420001	addi	r2,r2,#1
12062  0000a8a4  0043082c	sle	r1,r2,r3
12063  0000a8a8  1420ffec	bnez	r1,L65_LF9
12064  0000a8ac  54000000	nop; not filled.
12065  0000a8b0  20050000	addi	r5,r0,#0
12066  0000a8b4  64c10000	snei	r1,r6,#0
12067  0000a8b8  142000a0	bnez	r1,L67_LF9
12068  0000a8bc  54000000	nop; not filled.
12069  0000a8c0  23bdfff0	addi	r29,r29,#-16
12070  0000a8c4  3c020001	lhi	r2,((_currentPCB)>>16)&0xffff
12071  0000a8c8  24422018	addui	r2,r2,(_currentPCB)&0xffff
12072  0000a8cc  8c4c0000	lw	r12,(r2)
12073  0000a8d0  afac0000	sw	(r29),r12
12074  0000a8d4  afa40004	sw	4(r29),r4
12075  0000a8d8  23c1f990	addi	r1,r30,#-1648
12076  0000a8dc  afa10008	sw	8(r29),r1
12077  0000a8e0  200c0200	addi	r12,r0,#512
12078  0000a8e4  afac000c	sw	12(r29),r12
12079  0000a8e8  0fff989c	jal	_MemoryCopyUserToSystem
12080  0000a8ec  54000000	nop; not filled.
12081  0000a8f0  23bd0010	addi	r29,r29,#16
12082  0000a8f4  23c4fb8f	addi	r4,r30,#-1137
12083  0000a8f8  23c3fb90	addi	r3,r30,#-1136
12084  0000a8fc          	L68_LF9:
12085  0000a8fc  23bdfff0	addi	r29,r29,#-16
12086  0000a900  8c4c0000	lw	r12,(r2)
12087  0000a904  afac0000	sw	(r29),r12
12088  0000a908  8fc1f990	lw	r1,-1648(r30)
12089  0000a90c  00250820	add	r1,r1,r5
12090  0000a910  afa10004	sw	4(r29),r1
12091  0000a914  afa30008	sw	8(r29),r3
12092  0000a918  200c0001	addi	r12,r0,#1
12093  0000a91c  afac000c	sw	12(r29),r12
12094  0000a920  0fff9864	jal	_MemoryCopyUserToSystem
12095  0000a924  54000000	nop; not filled.
12096  0000a928  20840001	addi	r4,r4,#1
12097  0000a92c  20630001	addi	r3,r3,#1
12098  0000a930  20a50001	addi	r5,r5,#1
12099  0000a934  23bd0010	addi	r29,r29,#16
12100  0000a938  70a10063	sleui	r1,r5,#99
12101  0000a93c  10200060	beqz	r1,L73_LF9
12102  0000a940  54000000	nop; not filled.
12103  0000a944  90810000	lbu	r1,(r4)
12104  0000a948  64210000	snei	r1,r1,#0
12105  0000a94c  10200050	beqz	r1,L73_LF9
12106  0000a950  54000000	nop; not filled.
12107  0000a954  0bffffa4	j	L68_LF9
12108  0000a958  54000000	nop; not filled.
12109  0000a95c          	L67_LF9:
12110  0000a95c  23bdfff0	addi	r29,r29,#-16
12111  0000a960  afa40000	sw	(r29),r4
12112  0000a964  23c1f990	addi	r1,r30,#-1648
12113  0000a968  afa10004	sw	4(r29),r1
12114  0000a96c  200c0200	addi	r12,r0,#512
12115  0000a970  afac0008	sw	8(r29),r12
12116  0000a974  0fffa450	jal	_bcopy
12117  0000a978  54000000	nop; not filled.
12118  0000a97c  8fccf990	lw	r12,-1648(r30)
12119  0000a980  afac0000	sw	(r29),r12
12120  0000a984  23c1fb90	addi	r1,r30,#-1136
12121  0000a988  afa10004	sw	4(r29),r1
12122  0000a98c  200c0064	addi	r12,r0,#100
12123  0000a990  afac0008	sw	8(r29),r12
12124  0000a994  0fff9c44	jal	_dstrncpy
12125  0000a998  54000000	nop; not filled.
12126  0000a99c  23bd0010	addi	r29,r29,#16
12127  0000a9a0          	L73_LF9:
12128  0000a9a0  200c0000	addi	r12,r0,(#0x0)&0xff
12129  0000a9a4  a3ccfbf3	sb	-1037(r30),r12
12130  0000a9a8  20050000	addi	r5,r0,#0
12131  0000a9ac  64c10000	snei	r1,r6,#0
12132  0000a9b0  142000b0	bnez	r1,L74_LF9
12133  0000a9b4  54000000	nop; not filled.
12134  0000a9b8  3c080001	lhi	r8,((_currentPCB)>>16)&0xffff
12135  0000a9bc  25082018	addui	r8,r8,(_currentPCB)&0xffff
12136  0000a9c0  23cbfbf8	addi	r11,r30,#-1032
12137  0000a9c4  23cafbf7	addi	r10,r30,#-1033
12138  0000a9c8  23c6fff8	addi	r6,r30,#-8
12139  0000a9cc  23c90020	addi	r9,r30,#32
12140  0000a9d0          	L85_LF9:
12141  0000a9d0  8cc1f998	lw	r1,-1640(r6)
12142  0000a9d4  64210000	snei	r1,r1,#0
12143  0000a9d8  1020012c	beqz	r1,L86_LF9
12144  0000a9dc  54000000	nop; not filled.
12145  0000a9e0  20020000	addi	r2,r0,#0
12146  0000a9e4  00063820	add	r7,r0,r6
12147  0000a9e8  00aa2020	add	r4,r5,r10
12148  0000a9ec  00ab1820	add	r3,r5,r11
12149  0000a9f0          	L80_LF9:
12150  0000a9f0  23bdfff0	addi	r29,r29,#-16
12151  0000a9f4  8d0c0000	lw	r12,(r8)
12152  0000a9f8  afac0000	sw	(r29),r12
12153  0000a9fc  8ce1f998	lw	r1,-1640(r7)
12154  0000aa00  00220820	add	r1,r1,r2
12155  0000aa04  afa10004	sw	4(r29),r1
12156  0000aa08  afa30008	sw	8(r29),r3
12157  0000aa0c  200c0001	addi	r12,r0,#1
12158  0000aa10  afac000c	sw	12(r29),r12
12159  0000aa14  0fff9770	jal	_MemoryCopyUserToSystem
12160  0000aa18  54000000	nop; not filled.
12161  0000aa1c  20840001	addi	r4,r4,#1
12162  0000aa20  20630001	addi	r3,r3,#1
12163  0000aa24  20a50001	addi	r5,r5,#1
12164  0000aa28  20420001	addi	r2,r2,#1
12165  0000aa2c  23bd0010	addi	r29,r29,#16
12166  0000aa30  70a103ff	sleui	r1,r5,#1023
12167  0000aa34  10200014	beqz	r1,L77_LF9
12168  0000aa38  54000000	nop; not filled.
12169  0000aa3c  90810000	lbu	r1,(r4)
12170  0000aa40  64210000	snei	r1,r1,#0
12171  0000aa44  1420ffa8	bnez	r1,L80_LF9
12172  0000aa48  54000000	nop; not filled.
12173  0000aa4c          	L77_LF9:
12174  0000aa4c  20c60004	addi	r6,r6,#4
12175  0000aa50  00c9082c	sle	r1,r6,r9
12176  0000aa54  102000b0	beqz	r1,L86_LF9
12177  0000aa58  54000000	nop; not filled.
12178  0000aa5c  0bffff70	j	L85_LF9
12179  0000aa60  54000000	nop; not filled.
12180  0000aa64          	L74_LF9:
12181  0000aa64  23c5fbf8	addi	r5,r30,#-1032
12182  0000aa68  00053820	add	r7,r0,r5
12183  0000aa6c  23c3fff8	addi	r3,r30,#-8
12184  0000aa70  23c60020	addi	r6,r30,#32
12185  0000aa74          	L93_LF9:
12186  0000aa74  2064f998	addi	r4,r3,#-1640
12187  0000aa78  8c820000	lw	r2,(r4)
12188  0000aa7c  64410000	snei	r1,r2,#0
12189  0000aa80  10200084	beqz	r1,L86_LF9
12190  0000aa84  54000000	nop; not filled.
12191  0000aa88  23bdfff8	addi	r29,r29,#-8
12192  0000aa8c  afa20000	sw	(r29),r2
12193  0000aa90  0fff9d34	jal	_dstrlen
12194  0000aa94  54000000	nop; not filled.
12195  0000aa98  00a11020	add	r2,r5,r1
12196  0000aa9c  00470822	sub	r1,r2,r7
12197  0000aaa0  23bd0008	addi	r29,r29,#8
12198  0000aaa4  6c210064	sgti	r1,r1,#100
12199  0000aaa8  10200028	beqz	r1,L92_LF9
12200  0000aaac  54000000	nop; not filled.
12201  0000aab0  23bdfff8	addi	r29,r29,#-8
12202  0000aab4  3c0c0001	lhi	r12,((LC0_LF9)>>16)&0xffff
12203  0000aab8  258c5bdc	addui	r12,r12,(LC0_LF9)&0xffff
12204  0000aabc  afac0000	sw	(r29),r12
12205  0000aac0  0c001ec8	jal	_printf
12206  0000aac4  54000000	nop; not filled.
12207  0000aac8  0c001ea8	jal	_exitsim
12208  0000aacc  54000000	nop; not filled.
12209  0000aad0  23bd0008	addi	r29,r29,#8
12210  0000aad4          	L92_LF9:
12211  0000aad4  23bdfff8	addi	r29,r29,#-8
12212  0000aad8  afa50000	sw	(r29),r5
12213  0000aadc  8c810000	lw	r1,(r4)
12214  0000aae0  afa10004	sw	4(r29),r1
12215  0000aae4  0fff9a90	jal	_dstrcpy
12216  0000aae8  54000000	nop; not filled.
12217  0000aaec  200c0000	addi	r12,r0,(#0x0)&0xff
12218  0000aaf0  a04c0000	sb	(r2),r12
12219  0000aaf4  23bd0008	addi	r29,r29,#8
12220  0000aaf8  20630004	addi	r3,r3,#4
12221  0000aafc  0066082c	sle	r1,r3,r6
12222  0000ab00  1420ff70	bnez	r1,L93_LF9
12223  0000ab04  54000000	nop; not filled.
12224  0000ab08          	L86_LF9:
12225  0000ab08  200c0000	addi	r12,r0,(#0x0)&0xff
12226  0000ab0c  a3ccfff7	sb	-9(r30),r12
12227  0000ab10  23bdfff0	addi	r29,r29,#-16
12228  0000ab14  200c0000	addi	r12,r0,#0
12229  0000ab18  afac0000	sw	(r29),r12
12230  0000ab1c  23c1fbf8	addi	r1,r30,#-1032
12231  0000ab20  afa10004	sw	4(r29),r1
12232  0000ab24  23c1fb90	addi	r1,r30,#-1136
12233  0000ab28  afa10008	sw	8(r29),r1
12234  0000ab2c  200c0001	addi	r12,r0,#1
12235  0000ab30  afac000c	sw	12(r29),r12
12236  0000ab34  0fffb5e8	jal	_ProcessFork
12237  0000ab38  54000000	nop; not filled.
12238  0000ab3c  23bd0010	addi	r29,r29,#16
12239  0000ab40  8fa20000	lw	r2,0(r29)
12240  0000ab44  8fa30004	lw	r3,4(r29)
12241  0000ab48  8fa40008	lw	r4,8(r29)
12242  0000ab4c  8fa5000c	lw	r5,12(r29)
12243  0000ab50  8fa60010	lw	r6,16(r29)
12244  0000ab54  8fa70014	lw	r7,20(r29)
12245  0000ab58  8fa80018	lw	r8,24(r29)
12246  0000ab5c  8fa9001c	lw	r9,28(r29)
12247  0000ab60  8faa0020	lw	r10,32(r29)
12248  0000ab64  8fab0024	lw	r11,36(r29)
12249  0000ab68  8fac0028	lw	r12,40(r29)
12250  0000ab6c  8fdffff8	lw	r31,-8(r30)
12251  0000ab70  001ee820	add	r29,r0,r30
12252  0000ab74  8fdefffc	lw	r30,-4(r30)
12253  0000ab78  4be00000	jr	r31
12254  0000ab7c  54000000	nop
12255  0000ab80          	.endproc _TrapProcessCreateHandler_LF9
12256  0000ab80          	.align 2
12257  0000ab80          	.proc _TrapPrintfHandler_LF9
12258  0000ab80          	_TrapPrintfHandler_LF9:
12259                      ;  Function 'TrapPrintfHandler'; 160 bytes of locals, 10 regs to save.
12260  0000ab80  afbefffc	sw	-4(r29),r30; push fp
12261  0000ab84  001df020	add	r30,r0,r29; fp = sp
12262  0000ab88  afbffff8	sw	-8(r29),r31; push ret addr
12263  0000ab8c  2fbd00d0	subui	r29,r29,#208; alloc local storage
12264  0000ab90  afa20000	sw	0(r29),r2
12265  0000ab94  afa30004	sw	4(r29),r3
12266  0000ab98  afa40008	sw	8(r29),r4
12267  0000ab9c  afa5000c	sw	12(r29),r5
12268  0000aba0  afa60010	sw	16(r29),r6
12269  0000aba4  afa70014	sw	20(r29),r7
12270  0000aba8  afa80018	sw	24(r29),r8
12271  0000abac  afa9001c	sw	28(r29),r9
12272  0000abb0  afaa0020	sw	32(r29),r10
12273  0000abb4  afab0024	sw	36(r29),r11
12274  0000abb8  8fc40000	lw	r4,(r30)
12275  0000abbc  8fc10004	lw	r1,4(r30)
12276  0000abc0  20080000	addi	r8,r0,#0
12277  0000abc4  00081820	add	r3,r0,r8
12278  0000abc8  64210000	snei	r1,r1,#0
12279  0000abcc  142000a0	bnez	r1,L95_LF9
12280  0000abd0  54000000	nop; not filled.
12281  0000abd4  23bdfff0	addi	r29,r29,#-16
12282  0000abd8  3c020001	lhi	r2,((_currentPCB)>>16)&0xffff
12283  0000abdc  24422018	addui	r2,r2,(_currentPCB)&0xffff
12284  0000abe0  8c4b0000	lw	r11,(r2)
12285  0000abe4  afab0000	sw	(r29),r11
12286  0000abe8  afa40004	sw	4(r29),r4
12287  0000abec  23c1ff58	addi	r1,r30,#-168
12288  0000abf0  afa10008	sw	8(r29),r1
12289  0000abf4  200b0028	addi	r11,r0,#40
12290  0000abf8  afab000c	sw	12(r29),r11
12291  0000abfc  0fff9588	jal	_MemoryCopyUserToSystem
12292  0000ac00  54000000	nop; not filled.
12293  0000ac04  23bd0010	addi	r29,r29,#16
12294  0000ac08  23c5ffa7	addi	r5,r30,#-89
12295  0000ac0c  23c4ffa8	addi	r4,r30,#-88
12296  0000ac10          	L96_LF9:
12297  0000ac10  23bdfff0	addi	r29,r29,#-16
12298  0000ac14  8c4b0000	lw	r11,(r2)
12299  0000ac18  afab0000	sw	(r29),r11
12300  0000ac1c  8fc1ff58	lw	r1,-168(r30)
12301  0000ac20  00230820	add	r1,r1,r3
12302  0000ac24  afa10004	sw	4(r29),r1
12303  0000ac28  afa40008	sw	8(r29),r4
12304  0000ac2c  200b0001	addi	r11,r0,#1
12305  0000ac30  afab000c	sw	12(r29),r11
12306  0000ac34  0fff9550	jal	_MemoryCopyUserToSystem
12307  0000ac38  54000000	nop; not filled.
12308  0000ac3c  20a50001	addi	r5,r5,#1
12309  0000ac40  20840001	addi	r4,r4,#1
12310  0000ac44  20630001	addi	r3,r3,#1
12311  0000ac48  23bd0010	addi	r29,r29,#16
12312  0000ac4c  7061004f	sleui	r1,r3,#79
12313  0000ac50  10200060	beqz	r1,L101_LF9
12314  0000ac54  54000000	nop; not filled.
12315  0000ac58  90a10000	lbu	r1,(r5)
12316  0000ac5c  64210000	snei	r1,r1,#0
12317  0000ac60  10200050	beqz	r1,L101_LF9
12318  0000ac64  54000000	nop; not filled.
12319  0000ac68  0bffffa4	j	L96_LF9
12320  0000ac6c  54000000	nop; not filled.
12321  0000ac70          	L95_LF9:
12322  0000ac70  23bdfff0	addi	r29,r29,#-16
12323  0000ac74  afa40000	sw	(r29),r4
12324  0000ac78  23c1ff58	addi	r1,r30,#-168
12325  0000ac7c  afa10004	sw	4(r29),r1
12326  0000ac80  200b0028	addi	r11,r0,#40
12327  0000ac84  afab0008	sw	8(r29),r11
12328  0000ac88  0fffa13c	jal	_bcopy
12329  0000ac8c  54000000	nop; not filled.
12330  0000ac90  8fcbff58	lw	r11,-168(r30)
12331  0000ac94  afab0000	sw	(r29),r11
12332  0000ac98  23c1ffa8	addi	r1,r30,#-88
12333  0000ac9c  afa10004	sw	4(r29),r1
12334  0000aca0  200b0050	addi	r11,r0,#80
12335  0000aca4  afab0008	sw	8(r29),r11
12336  0000aca8  0fff9930	jal	_dstrncpy
12337  0000acac  54000000	nop; not filled.
12338  0000acb0  23bd0010	addi	r29,r29,#16
12339  0000acb4          	L101_LF9:
12340  0000acb4  200b0000	addi	r11,r0,(#0x0)&0xff
12341  0000acb8  a3cbfff7	sb	-9(r30),r11
12342  0000acbc  23c3ffa8	addi	r3,r30,#-88
12343  0000acc0  80620000	lb	r2,(r3)
12344  0000acc4  304100ff	andi	r1,r2,#0x00ff
12345  0000acc8  64210000	snei	r1,r1,#0
12346  0000accc  102000f0	beqz	r1,L103_LF9
12347  0000acd0  54000000	nop; not filled.
12348  0000acd4  23cafff8	addi	r10,r30,#-8
12349  0000acd8  23c9ff5c	addi	r9,r30,#-164
12350  0000acdc  51010002	slli	r1,r8,#0x2
12351  0000ace0  00293820	add	r7,r1,r9
12352  0000ace4  002a3020	add	r6,r1,r10
12353  0000ace8          	L105_LF9:
12354  0000ace8  304100ff	andi	r1,r2,#0x00ff
12355  0000acec  60210025	seqi	r1,r1,#37
12356  0000acf0  102000b4	beqz	r1,L104_LF9
12357  0000acf4  54000000	nop; not filled.
12358  0000acf8  90610001	lbu	r1,1(r3)
12359  0000acfc  60210025	seqi	r1,r1,#37
12360  0000ad00  10200010	beqz	r1,L107_LF9
12361  0000ad04  54000000	nop; not filled.
12362  0000ad08  20630001	addi	r3,r3,#1
12363  0000ad0c  08000098	j	L104_LF9
12364  0000ad10  54000000	nop; not filled.
12365  0000ad14          	L107_LF9:
12366  0000ad14  8ceb0000	lw	r11,(r7)
12367  0000ad18  accbff88	sw	-120(r6),r11
12368  0000ad1c  51010002	slli	r1,r8,#0x2
12369  0000ad20  00292820	add	r5,r1,r9
12370  0000ad24  002a2020	add	r4,r1,r10
12371  0000ad28          	L110_LF9:
12372  0000ad28  20630001	addi	r3,r3,#1
12373  0000ad2c  807f0000	lb	r31,(r3)
12374  0000ad30  33e200ff	andi	r2,r31,#0x00ff
12375  0000ad34  60410073	seqi	r1,r2,#115
12376  0000ad38  14200060	bnez	r1,L109_LF9
12377  0000ad3c  54000000	nop; not filled.
12378  0000ad40  6041006c	seqi	r1,r2,#108
12379  0000ad44  1420ffe0	bnez	r1,L110_LF9
12380  0000ad48  54000000	nop; not filled.
12381  0000ad4c  23e1ff9a	addi	r1,r31,#-102
12382  0000ad50  302100ff	andi	r1,r1,#0x00ff
12383  0000ad54  70210001	sleui	r1,r1,#1
12384  0000ad58  14200010	bnez	r1,L116_LF9
12385  0000ad5c  54000000	nop; not filled.
12386  0000ad60  60410065	seqi	r1,r2,#101
12387  0000ad64  10200020	beqz	r1,L115_LF9
12388  0000ad68  54000000	nop; not filled.
12389  0000ad6c          	L116_LF9:
12390  0000ad6c  20e70004	addi	r7,r7,#4
12391  0000ad70  20c60004	addi	r6,r6,#4
12392  0000ad74  21080001	addi	r8,r8,#1
12393  0000ad78  8ca50004	lw	r5,4(r5)
12394  0000ad7c  ac85ff8c	sw	-116(r4),r5
12395  0000ad80  08000018	j	L109_LF9
12396  0000ad84  54000000	nop; not filled.
12397  0000ad88          	L115_LF9:
12398  0000ad88  23e1ff9f	addi	r1,r31,#-97
12399  0000ad8c  302100ff	andi	r1,r1,#0x00ff
12400  0000ad90  70210019	sleui	r1,r1,#25
12401  0000ad94  1020ff90	beqz	r1,L110_LF9
12402  0000ad98  54000000	nop; not filled.
12403  0000ad9c          	L109_LF9:
12404  0000ad9c  20e70004	addi	r7,r7,#4
12405  0000ada0  20c60004	addi	r6,r6,#4
12406  0000ada4  21080001	addi	r8,r8,#1
12407  0000ada8          	L104_LF9:
12408  0000ada8  20630001	addi	r3,r3,#1
12409  0000adac  80620000	lb	r2,(r3)
12410  0000adb0  304100ff	andi	r1,r2,#0x00ff
12411  0000adb4  64210000	snei	r1,r1,#0
12412  0000adb8  1420ff2c	bnez	r1,L105_LF9
12413  0000adbc  54000000	nop; not filled.
12414  0000adc0          	L103_LF9:
12415  0000adc0  23bdffd8	addi	r29,r29,#-40
12416  0000adc4  23c1ffa8	addi	r1,r30,#-88
12417  0000adc8  afa10000	sw	(r29),r1
12418  0000adcc  8fc1ff80	lw	r1,-128(r30)
12419  0000add0  afa10004	sw	4(r29),r1
12420  0000add4  8fcbff84	lw	r11,-124(r30)
12421  0000add8  afab0008	sw	8(r29),r11
12422  0000addc  8fcbff88	lw	r11,-120(r30)
12423  0000ade0  afab000c	sw	12(r29),r11
12424  0000ade4  8fcbff8c	lw	r11,-116(r30)
12425  0000ade8  afab0010	sw	16(r29),r11
12426  0000adec  8fcbff90	lw	r11,-112(r30)
12427  0000adf0  afab0014	sw	20(r29),r11
12428  0000adf4  8fcbff94	lw	r11,-108(r30)
12429  0000adf8  afab0018	sw	24(r29),r11
12430  0000adfc  8fcbff98	lw	r11,-104(r30)
12431  0000ae00  afab001c	sw	28(r29),r11
12432  0000ae04  8fcbff9c	lw	r11,-100(r30)
12433  0000ae08  afab0020	sw	32(r29),r11
12434  0000ae0c  0c001b7c	jal	_printf
12435  0000ae10  54000000	nop; not filled.
12436  0000ae14  23bd0028	addi	r29,r29,#40
12437  0000ae18  8fa20000	lw	r2,0(r29)
12438  0000ae1c  8fa30004	lw	r3,4(r29)
12439  0000ae20  8fa40008	lw	r4,8(r29)
12440  0000ae24  8fa5000c	lw	r5,12(r29)
12441  0000ae28  8fa60010	lw	r6,16(r29)
12442  0000ae2c  8fa70014	lw	r7,20(r29)
12443  0000ae30  8fa80018	lw	r8,24(r29)
12444  0000ae34  8fa9001c	lw	r9,28(r29)
12445  0000ae38  8faa0020	lw	r10,32(r29)
12446  0000ae3c  8fab0024	lw	r11,36(r29)
12447  0000ae40  8fdffff8	lw	r31,-8(r30)
12448  0000ae44  001ee820	add	r29,r0,r30
12449  0000ae48  8fdefffc	lw	r30,-4(r30)
12450  0000ae4c  4be00000	jr	r31
12451  0000ae50  54000000	nop
12452  0000ae54          	.endproc _TrapPrintfHandler_LF9
12453  0000ae54          	.data
12454  00015c0d          	.align 2
12455  00015c10          	LC1_LF9:
12456  00015c10  496e7465	.ascii "Interrupt cause=0x%x iar=0x%x isr=0x%x args=0x%08x.\n\000"
12456  00015c14  72727570	
12456  00015c18  74206361	
12456  00015c1c  7573653d	
12456  00015c20  30782578	
12456  00015c24  20696172	
12456  00015c28  3d307825	
12456  00015c2c  78206973	
12456  00015c30  723d3078	
12456  00015c34  25782061	
12456  00015c38  7267733d	
12456  00015c3c  30782530	
12456  00015c40  38782e0a	
12456  00015c44  00      	
12457  00015c45          	.align 2
12458  00015c48          	LC2_LF9:
12459  00015c48  476f7420	.ascii "Got a context switch trap!\n\000"
12459  00015c4c  6120636f	
12459  00015c50  6e746578	
12459  00015c54  74207377	
12459  00015c58  69746368	
12459  00015c5c  20747261	
12459  00015c60  70210a00	
12460  00015c64          	.align 2
12461  00015c64          	LC3_LF9:
12462  00015c64  476f7420	.ascii "Got an exit trap!\n\000"
12462  00015c68  616e2065	
12462  00015c6c  78697420	
12462  00015c70  74726170	
12462  00015c74  210a00  	
12463  00015c77          	.align 2
12464  00015c78          	LC4_LF9:
12465  00015c78  476f7420	.ascii "Got a fork trap!\n\000"
12465  00015c7c  6120666f	
12465  00015c80  726b2074	
12465  00015c84  72617021	
12465  00015c88  0a00    	
12466  00015c8a          	.align 2
12467  00015c8c          	LC5_LF9:
12468  00015c8c  476f7420	.ascii "Got a process sleep trap!\n\000"
12468  00015c90  61207072	
12468  00015c94  6f636573	
12468  00015c98  7320736c	
12468  00015c9c  65657020	
12468  00015ca0  74726170	
12468  00015ca4  210a00  	
12469  00015ca7          	.align 2
12470  00015ca8          	LC6_LF9:
12471  00015ca8  476f7420	.ascii "Got a printf trap!\n\000"
12471  00015cac  61207072	
12471  00015cb0  696e7466	
12471  00015cb4  20747261	
12471  00015cb8  70210a00	
12472  00015cbc          	.align 2
12473  00015cbc          	LC7_LF9:
12474  00015cbc  476f7420	.ascii "Got an open with parameters (\'%s\',0x%x)\n\000"
12474  00015cc0  616e206f	
12474  00015cc4  70656e20	
12474  00015cc8  77697468	
12474  00015ccc  20706172	
12474  00015cd0  616d6574	
12474  00015cd4  65727320	
12474  00015cd8  28272573	
12474  00015cdc  272c3078	
12474  00015ce0  2578290a	
12474  00015ce4  00      	
12475  00015ce5          	.align 2
12476  00015ce8          	LC8_LF9:
12477  00015ce8  476f7420	.ascii "Got an unrecognized trap (0x%x) - exiting!\n\000"
12477  00015cec  616e2075	
12477  00015cf0  6e726563	
12477  00015cf4  6f676e69	
12477  00015cf8  7a656420	
12477  00015cfc  74726170	
12477  00015d00  20283078	
12477  00015d04  25782920	
12477  00015d08  2d206578	
12477  00015d0c  6974696e	
12477  00015d10  67210a00	
12478  00015d14          	.align 2
12479  00015d14          	LC9_LF9:
12480  00015d14  476f7420	.ascii "Got a timer interrupt!\n\000"
12480  00015d18  61207469	
12480  00015d1c  6d657220	
12480  00015d20  696e7465	
12480  00015d24  72727570	
12480  00015d28  74210a00	
12481  00015d2c          	.align 2
12482  00015d2c          	LC10_LF9:
12483  00015d2c  476f7420	.ascii "Got a keyboard interrupt (char=0x%x(%c), nleft=%d)!\n\000"
12483  00015d30  61206b65	
12483  00015d34  79626f61	
12483  00015d38  72642069	
12483  00015d3c  6e746572	
12483  00015d40  72757074	
12483  00015d44  20286368	
12483  00015d48  61723d30	
12483  00015d4c  78257828	
12483  00015d50  2563292c	
12483  00015d54  206e6c65	
12483  00015d58  66743d25	
12483  00015d5c  6429210a	
12483  00015d60  00      	
12484  00015d61          	.align 2
12485  00015d64          	LC11_LF9:
12486  00015d64  45786974	.ascii "Exiting after illegal access at iar=0x%x, isr=0x%x\n\000"
12486  00015d68  696e6720	
12486  00015d6c  61667465	
12486  00015d70  7220696c	
12486  00015d74  6c656761	
12486  00015d78  6c206163	
12486  00015d7c  63657373	
12486  00015d80  20617420	
12486  00015d84  6961723d	
12486  00015d88  30782578	
12486  00015d8c  2c206973	
12486  00015d90  723d3078	
12486  00015d94  25780a00	
12487  00015d98          	.align 2
12488  00015d98          	LC12_LF9:
12489  00015d98  45786974	.ascii "Exiting after illegal address at iar=0x%x, isr=0x%x\n\000"
12489  00015d9c  696e6720	
12489  00015da0  61667465	
12489  00015da4  7220696c	
12489  00015da8  6c656761	
12489  00015dac  6c206164	
12489  00015db0  64726573	
12489  00015db4  73206174	
12489  00015db8  20696172	
12489  00015dbc  3d307825	
12489  00015dc0  782c2069	
12489  00015dc4  73723d30	
12489  00015dc8  7825780a	
12489  00015dcc  00      	
12490  00015dcd          	.align 2
12491  00015dd0          	LC13_LF9:
12492  00015dd0  45786974	.ascii "Exiting after illegal instruction at iar=0x%x, isr=0x%x\n\000"
12492  00015dd4  696e6720	
12492  00015dd8  61667465	
12492  00015ddc  7220696c	
12492  00015de0  6c656761	
12492  00015de4  6c20696e	
12492  00015de8  73747275	
12492  00015dec  6374696f	
12492  00015df0  6e206174	
12492  00015df4  20696172	
12492  00015df8  3d307825	
12492  00015dfc  782c2069	
12492  00015e00  73723d30	
12492  00015e04  7825780a	
12492  00015e08  00      	
12493  00015e09          	.align 2
12494  00015e0c          	LC14_LF9:
12495  00015e0c  45786974	.ascii "Exiting after page fault at iar=0x%x, isr=0x%x\n\000"
12495  00015e10  696e6720	
12495  00015e14  61667465	
12495  00015e18  72207061	
12495  00015e1c  67652066	
12495  00015e20  61756c74	
12495  00015e24  20617420	
12495  00015e28  6961723d	
12495  00015e2c  30782578	
12495  00015e30  2c206973	
12495  00015e34  723d3078	
12495  00015e38  25780a00	
12496  00015e3c          	.align 2
12497  00015e3c          	LC15_LF9:
12498  00015e3c  476f7420	.ascii "Got an unrecognized system interrupt (0x%x) - exiting!\n\000"
12498  00015e40  616e2075	
12498  00015e44  6e726563	
12498  00015e48  6f676e69	
12498  00015e4c  7a656420	
12498  00015e50  73797374	
12498  00015e54  656d2069	
12498  00015e58  6e746572	
12498  00015e5c  72757074	
12498  00015e60  20283078	
12498  00015e64  25782920	
12498  00015e68  2d206578	
12498  00015e6c  6974696e	
12498  00015e70  67210a00	
12499  00015e74          	.align 2
12500  00015e74          	LC16_LF9:
12501  00015e74  41626f75	.ascii "About to return from dointerrupt.\n\000"
12501  00015e78  7420746f	
12501  00015e7c  20726574	
12501  00015e80  75726e20	
12501  00015e84  66726f6d	
12501  00015e88  20646f69	
12501  00015e8c  6e746572	
12501  00015e90  72757074	
12501  00015e94  2e0a00  	
12502  00015e97          	.text
12503  0000ae54          	.align 2
12504  0000ae54          	.proc _dointerrupt
12505  0000ae54          	.global _dointerrupt
12506  0000ae54          	_dointerrupt:
12507                      ;  Function 'dointerrupt'; 56 bytes of locals, 6 regs to save.
12508  0000ae54  afbefffc	sw	-4(r29),r30; push fp
12509  0000ae58  001df020	add	r30,r0,r29; fp = sp
12510  0000ae5c  afbffff8	sw	-8(r29),r31; push ret addr
12511  0000ae60  2fbd0058	subui	r29,r29,#88; alloc local storage
12512  0000ae64  afa20000	sw	0(r29),r2
12513  0000ae68  afa30004	sw	4(r29),r3
12514  0000ae6c  afa40008	sw	8(r29),r4
12515  0000ae70  afa5000c	sw	12(r29),r5
12516  0000ae74  afa60010	sw	16(r29),r6
12517  0000ae78  afa70014	sw	20(r29),r7
12518  0000ae7c  8fc20000	lw	r2,(r30)
12519  0000ae80  8fc60004	lw	r6,4(r30)
12520  0000ae84  8fc40008	lw	r4,8(r30)
12521  0000ae88  8fc3000c	lw	r3,12(r30)
12522  0000ae8c  23bdfff8	addi	r29,r29,#-8
12523  0000ae90  3c050001	lhi	r5,((_debugstr)>>16)&0xffff
12524  0000ae94  24a51f50	addui	r5,r5,(_debugstr)&0xffff
12525  0000ae98  afa50000	sw	(r29),r5
12526  0000ae9c  20070074	addi	r7,r0,#116
12527  0000aea0  afa70004	sw	4(r29),r7
12528  0000aea4  0fff9b90	jal	_dindex
12529  0000aea8  54000000	nop; not filled.
12530  0000aeac  23bd0008	addi	r29,r29,#8
12531  0000aeb0  64210000	snei	r1,r1,#0
12532  0000aeb4  1420002c	bnez	r1,L123_LF9
12533  0000aeb8  54000000	nop; not filled.
12534  0000aebc  23bdfff8	addi	r29,r29,#-8
12535  0000aec0  afa50000	sw	(r29),r5
12536  0000aec4  2007002b	addi	r7,r0,#43
12537  0000aec8  afa70004	sw	4(r29),r7
12538  0000aecc  0fff9b68	jal	_dindex
12539  0000aed0  54000000	nop; not filled.
12540  0000aed4  23bd0008	addi	r29,r29,#8
12541  0000aed8  64210000	snei	r1,r1,#0
12542  0000aedc  10200030	beqz	r1,L122_LF9
12543  0000aee0  54000000	nop; not filled.
12544  0000aee4          	L123_LF9:
12545  0000aee4  23bdffe8	addi	r29,r29,#-24
12546  0000aee8  3c070001	lhi	r7,((LC1_LF9)>>16)&0xffff
12547  0000aeec  24e75c10	addui	r7,r7,(LC1_LF9)&0xffff
12548  0000aef0  afa70000	sw	(r29),r7
12549  0000aef4  afa20004	sw	4(r29),r2
12550  0000aef8  afa60008	sw	8(r29),r6
12551  0000aefc  afa4000c	sw	12(r29),r4
12552  0000af00  afa30010	sw	16(r29),r3
12553  0000af04  0c001a84	jal	_printf
12554  0000af08  54000000	nop; not filled.
12555  0000af0c  23bd0018	addi	r29,r29,#24
12556  0000af10          	L122_LF9:
12557  0000af10  3c070800	lhi	r7,#2048
12558  0000af14  24e70000	addui	r7,r7,#0
12559  0000af18  00470824	and	r1,r2,r7
12560  0000af1c  64210000	snei	r1,r1,#0
12561  0000af20  10200ef8	beqz	r1,L124_LF9
12562  0000af24  54000000	nop; not filled.
12563  0000af28  3c07f7ff	lhi	r7,#-2049
12564  0000af2c  24e7ffff	addui	r7,r7,#65535
12565  0000af30  00471024	and	r2,r2,r7
12566  0000af34  60410440	seqi	r1,r2,#1088
12567  0000af38  142007c4	bnez	r1,L163_LF9
12568  0000af3c  54000000	nop; not filled.
12569  0000af40  6c410440	sgtui	r1,r2,#1088
12570  0000af44  142000ec	bnez	r1,L207_LF9
12571  0000af48  54000000	nop; not filled.
12572  0000af4c  60410214	seqi	r1,r2,#532
12573  0000af50  1420058c	bnez	r1,L146_LF9
12574  0000af54  54000000	nop; not filled.
12575  0000af58  6c410214	sgtui	r1,r2,#532
12576  0000af5c  1420005c	bnez	r1,L208_LF9
12577  0000af60  54000000	nop; not filled.
12578  0000af64  60410211	seqi	r1,r2,#529
12579  0000af68  1420062c	bnez	r1,L152_LF9
12580  0000af6c  54000000	nop; not filled.
12581  0000af70  6c410211	sgtui	r1,r2,#529
12582  0000af74  14200024	bnez	r1,L209_LF9
12583  0000af78  54000000	nop; not filled.
12584  0000af7c  60410201	seqi	r1,r2,#513
12585  0000af80  142003a8	bnez	r1,L138_LF9
12586  0000af84  54000000	nop; not filled.
12587  0000af88  60410210	seqi	r1,r2,#528
12588  0000af8c  10200e78	beqz	r1,L205_LF9
12589  0000af90  54000000	nop; not filled.
12590  0000af94  080005a4	j	L149_LF9
12591  0000af98  54000000	nop; not filled.
12592  0000af9c          	L209_LF9:
12593  0000af9c  60410212	seqi	r1,r2,#530
12594  0000afa0  142006ac	bnez	r1,L158_LF9
12595  0000afa4  54000000	nop; not filled.
12596  0000afa8  60410213	seqi	r1,r2,#531
12597  0000afac  10200e58	beqz	r1,L205_LF9
12598  0000afb0  54000000	nop; not filled.
12599  0000afb4  08000408	j	L141_LF9
12600  0000afb8  54000000	nop; not filled.
12601  0000afbc          	L208_LF9:
12602  0000afbc  60410410	seqi	r1,r2,#1040
12603  0000afc0  142002c8	bnez	r1,L135_LF9
12604  0000afc4  54000000	nop; not filled.
12605  0000afc8  6c410410	sgtui	r1,r2,#1040
12606  0000afcc  14200024	bnez	r1,L210_LF9
12607  0000afd0  54000000	nop; not filled.
12608  0000afd4  60410300	seqi	r1,r2,#768
12609  0000afd8  14200198	bnez	r1,L129_LF9
12610  0000afdc  54000000	nop; not filled.
12611  0000afe0  60410400	seqi	r1,r2,#1024
12612  0000afe4  10200e20	beqz	r1,L205_LF9
12613  0000afe8  54000000	nop; not filled.
12614  0000afec  08000118	j	L126_LF9
12615  0000aff0  54000000	nop; not filled.
12616  0000aff4          	L210_LF9:
12617  0000aff4  60410431	seqi	r1,r2,#1073
12618  0000aff8  142006b0	bnez	r1,L161_LF9
12619  0000affc  54000000	nop; not filled.
12620  0000b000  6c410431	sgtui	r1,r2,#1073
12621  0000b004  14200018	bnez	r1,L211_LF9
12622  0000b008  54000000	nop; not filled.
12623  0000b00c  60410430	seqi	r1,r2,#1072
12624  0000b010  10200df4	beqz	r1,L205_LF9
12625  0000b014  54000000	nop; not filled.
12626  0000b018  080001f8	j	L132_LF9
12627  0000b01c  54000000	nop; not filled.
12628  0000b020          	L211_LF9:
12629  0000b020  60410432	seqi	r1,r2,#1074
12630  0000b024  10200de0	beqz	r1,L205_LF9
12631  0000b028  54000000	nop; not filled.
12632  0000b02c  080006b0	j	L162_LF9
12633  0000b030  54000000	nop; not filled.
12634  0000b034          	L207_LF9:
12635  0000b034  60410454	seqi	r1,r2,#1108
12636  0000b038  142009dc	bnez	r1,L181_LF9
12637  0000b03c  54000000	nop; not filled.
12638  0000b040  6c410454	sgtui	r1,r2,#1108
12639  0000b044  1420005c	bnez	r1,L212_LF9
12640  0000b048  54000000	nop; not filled.
12641  0000b04c  60410451	seqi	r1,r2,#1105
12642  0000b050  14200840	bnez	r1,L172_LF9
12643  0000b054  54000000	nop; not filled.
12644  0000b058  6c410451	sgtui	r1,r2,#1105
12645  0000b05c  14200024	bnez	r1,L213_LF9
12646  0000b060  54000000	nop; not filled.
12647  0000b064  60410441	seqi	r1,r2,#1089
12648  0000b068  142006d0	bnez	r1,L164_LF9
12649  0000b06c  54000000	nop; not filled.
12650  0000b070  60410450	seqi	r1,r2,#1104
12651  0000b074  10200d90	beqz	r1,L205_LF9
12652  0000b078  54000000	nop; not filled.
12653  0000b07c  0800076c	j	L168_LF9
12654  0000b080  54000000	nop; not filled.
12655  0000b084          	L213_LF9:
12656  0000b084  60410452	seqi	r1,r2,#1106
12657  0000b088  142008b0	bnez	r1,L176_LF9
12658  0000b08c  54000000	nop; not filled.
12659  0000b090  60410453	seqi	r1,r2,#1107
12660  0000b094  10200d70	beqz	r1,L205_LF9
12661  0000b098  54000000	nop; not filled.
12662  0000b09c  08000944	j	L180_LF9
12663  0000b0a0  54000000	nop; not filled.
12664  0000b0a4          	L212_LF9:
12665  0000b0a4  60410457	seqi	r1,r2,#1111
12666  0000b0a8  14200b64	bnez	r1,L193_LF9
12667  0000b0ac  54000000	nop; not filled.
12668  0000b0b0  6c410457	sgtui	r1,r2,#1111
12669  0000b0b4  14200024	bnez	r1,L214_LF9
12670  0000b0b8  54000000	nop; not filled.
12671  0000b0bc  60410455	seqi	r1,r2,#1109
12672  0000b0c0  142009fc	bnez	r1,L185_LF9
12673  0000b0c4  54000000	nop; not filled.
12674  0000b0c8  60410456	seqi	r1,r2,#1110
12675  0000b0cc  10200d38	beqz	r1,L205_LF9
12676  0000b0d0  54000000	nop; not filled.
12677  0000b0d4  08000a90	j	L189_LF9
12678  0000b0d8  54000000	nop; not filled.
12679  0000b0dc          	L214_LF9:
12680  0000b0dc  60410459	seqi	r1,r2,#1113
12681  0000b0e0  14200c7c	bnez	r1,L201_LF9
12682  0000b0e4  54000000	nop; not filled.
12683  0000b0e8  68410459	sltui	r1,r2,#1113
12684  0000b0ec  14200bc8	bnez	r1,L197_LF9
12685  0000b0f0  54000000	nop; not filled.
12686  0000b0f4  60410580	seqi	r1,r2,#1408
12687  0000b0f8  10200d0c	beqz	r1,L205_LF9
12688  0000b0fc  54000000	nop; not filled.
12689  0000b100  080004f0	j	L155_LF9
12690  0000b104  54000000	nop; not filled.
12691  0000b108          	L126_LF9:
12692  0000b108  23bdfff8	addi	r29,r29,#-8
12693  0000b10c  3c020001	lhi	r2,((_debugstr)>>16)&0xffff
12694  0000b110  24421f50	addui	r2,r2,(_debugstr)&0xffff
12695  0000b114  afa20000	sw	(r29),r2
12696  0000b118  20070074	addi	r7,r0,#116
12697  0000b11c  afa70004	sw	4(r29),r7
12698  0000b120  0fff9914	jal	_dindex
12699  0000b124  54000000	nop; not filled.
12700  0000b128  23bd0008	addi	r29,r29,#8
12701  0000b12c  64210000	snei	r1,r1,#0
12702  0000b130  1420002c	bnez	r1,L128_LF9
12703  0000b134  54000000	nop; not filled.
12704  0000b138  23bdfff8	addi	r29,r29,#-8
12705  0000b13c  afa20000	sw	(r29),r2
12706  0000b140  2007002b	addi	r7,r0,#43
12707  0000b144  afa70004	sw	4(r29),r7
12708  0000b148  0fff98ec	jal	_dindex
12709  0000b14c  54000000	nop; not filled.
12710  0000b150  23bd0008	addi	r29,r29,#8
12711  0000b154  64210000	snei	r1,r1,#0
12712  0000b158  10200dac	beqz	r1,L218_LF9
12713  0000b15c  54000000	nop; not filled.
12714  0000b160          	L128_LF9:
12715  0000b160  23bdfff8	addi	r29,r29,#-8
12716  0000b164  3c070001	lhi	r7,((LC2_LF9)>>16)&0xffff
12717  0000b168  24e75c48	addui	r7,r7,(LC2_LF9)&0xffff
12718  0000b16c  08000d88	j	L248_LF9
12719  0000b170  54000000	nop; not filled.
12720  0000b174          	L129_LF9:
12721  0000b174  23bdfff8	addi	r29,r29,#-8
12722  0000b178  3c020001	lhi	r2,((_debugstr)>>16)&0xffff
12723  0000b17c  24421f50	addui	r2,r2,(_debugstr)&0xffff
12724  0000b180  afa20000	sw	(r29),r2
12725  0000b184  20070074	addi	r7,r0,#116
12726  0000b188  afa70004	sw	4(r29),r7
12727  0000b18c  0fff98a8	jal	_dindex
12728  0000b190  54000000	nop; not filled.
12729  0000b194  23bd0008	addi	r29,r29,#8
12730  0000b198  64210000	snei	r1,r1,#0
12731  0000b19c  1420002c	bnez	r1,L131_LF9
12732  0000b1a0  54000000	nop; not filled.
12733  0000b1a4  23bdfff8	addi	r29,r29,#-8
12734  0000b1a8  afa20000	sw	(r29),r2
12735  0000b1ac  2007002b	addi	r7,r0,#43
12736  0000b1b0  afa70004	sw	4(r29),r7
12737  0000b1b4  0fff9880	jal	_dindex
12738  0000b1b8  54000000	nop; not filled.
12739  0000b1bc  23bd0008	addi	r29,r29,#8
12740  0000b1c0  64210000	snei	r1,r1,#0
12741  0000b1c4  10200020	beqz	r1,L130_LF9
12742  0000b1c8  54000000	nop; not filled.
12743  0000b1cc          	L131_LF9:
12744  0000b1cc  23bdfff8	addi	r29,r29,#-8
12745  0000b1d0  3c070001	lhi	r7,((LC3_LF9)>>16)&0xffff
12746  0000b1d4  24e75c64	addui	r7,r7,(LC3_LF9)&0xffff
12747  0000b1d8  afa70000	sw	(r29),r7
12748  0000b1dc  0c0017ac	jal	_printf
12749  0000b1e0  54000000	nop; not filled.
12750  0000b1e4  23bd0008	addi	r29,r29,#8
12751  0000b1e8          	L130_LF9:
12752  0000b1e8  23bdfff8	addi	r29,r29,#-8
12753  0000b1ec  3c010001	lhi	r1,((_currentPCB)>>16)&0xffff
12754  0000b1f0  24212018	addui	r1,r1,(_currentPCB)&0xffff
12755  0000b1f4  8c210000	lw	r1,(r1)
12756  0000b1f8  afa10000	sw	(r29),r1
12757  0000b1fc  0fffad64	jal	_ProcessDestroy
12758  0000b200  54000000	nop; not filled.
12759  0000b204  0fffa584	jal	_ProcessSchedule
12760  0000b208  54000000	nop; not filled.
12761  0000b20c  08000df0	j	L235_LF9
12762  0000b210  54000000	nop; not filled.
12763  0000b214          	L132_LF9:
12764  0000b214  23bdfff8	addi	r29,r29,#-8
12765  0000b218  3c020001	lhi	r2,((_debugstr)>>16)&0xffff
12766  0000b21c  24421f50	addui	r2,r2,(_debugstr)&0xffff
12767  0000b220  afa20000	sw	(r29),r2
12768  0000b224  20070074	addi	r7,r0,#116
12769  0000b228  afa70004	sw	4(r29),r7
12770  0000b22c  0fff9808	jal	_dindex
12771  0000b230  54000000	nop; not filled.
12772  0000b234  23bd0008	addi	r29,r29,#8
12773  0000b238  64210000	snei	r1,r1,#0
12774  0000b23c  1420002c	bnez	r1,L134_LF9
12775  0000b240  54000000	nop; not filled.
12776  0000b244  23bdfff8	addi	r29,r29,#-8
12777  0000b248  afa20000	sw	(r29),r2
12778  0000b24c  2007002b	addi	r7,r0,#43
12779  0000b250  afa70004	sw	4(r29),r7
12780  0000b254  0fff97e0	jal	_dindex
12781  0000b258  54000000	nop; not filled.
12782  0000b25c  23bd0008	addi	r29,r29,#8
12783  0000b260  64210000	snei	r1,r1,#0
12784  0000b264  10200d9c	beqz	r1,L215_LF9
12785  0000b268  54000000	nop; not filled.
12786  0000b26c          	L134_LF9:
12787  0000b26c  23bdfff8	addi	r29,r29,#-8
12788  0000b270  3c070001	lhi	r7,((LC4_LF9)>>16)&0xffff
12789  0000b274  24e75c78	addui	r7,r7,(LC4_LF9)&0xffff
12790  0000b278  afa70000	sw	(r29),r7
12791  0000b27c  0c00170c	jal	_printf
12792  0000b280  54000000	nop; not filled.
12793  0000b284  08000d78	j	L235_LF9
12794  0000b288  54000000	nop; not filled.
12795  0000b28c          	L135_LF9:
12796  0000b28c  23bdfff8	addi	r29,r29,#-8
12797  0000b290  3c020001	lhi	r2,((_debugstr)>>16)&0xffff
12798  0000b294  24421f50	addui	r2,r2,(_debugstr)&0xffff
12799  0000b298  afa20000	sw	(r29),r2
12800  0000b29c  20070074	addi	r7,r0,#116
12801  0000b2a0  afa70004	sw	4(r29),r7
12802  0000b2a4  0fff9790	jal	_dindex
12803  0000b2a8  54000000	nop; not filled.
12804  0000b2ac  23bd0008	addi	r29,r29,#8
12805  0000b2b0  64210000	snei	r1,r1,#0
12806  0000b2b4  1420002c	bnez	r1,L137_LF9
12807  0000b2b8  54000000	nop; not filled.
12808  0000b2bc  23bdfff8	addi	r29,r29,#-8
12809  0000b2c0  afa20000	sw	(r29),r2
12810  0000b2c4  2007002b	addi	r7,r0,#43
12811  0000b2c8  afa70004	sw	4(r29),r7
12812  0000b2cc  0fff9768	jal	_dindex
12813  0000b2d0  54000000	nop; not filled.
12814  0000b2d4  23bd0008	addi	r29,r29,#8
12815  0000b2d8  64210000	snei	r1,r1,#0
12816  0000b2dc  10200020	beqz	r1,L136_LF9
12817  0000b2e0  54000000	nop; not filled.
12818  0000b2e4          	L137_LF9:
12819  0000b2e4  23bdfff8	addi	r29,r29,#-8
12820  0000b2e8  3c070001	lhi	r7,((LC5_LF9)>>16)&0xffff
12821  0000b2ec  24e75c8c	addui	r7,r7,(LC5_LF9)&0xffff
12822  0000b2f0  afa70000	sw	(r29),r7
12823  0000b2f4  0c001694	jal	_printf
12824  0000b2f8  54000000	nop; not filled.
12825  0000b2fc  23bd0008	addi	r29,r29,#8
12826  0000b300          	L136_LF9:
12827  0000b300  23bdfff8	addi	r29,r29,#-8
12828  0000b304  3c010001	lhi	r1,((_currentPCB)>>16)&0xffff
12829  0000b308  24212018	addui	r1,r1,(_currentPCB)&0xffff
12830  0000b30c  8c210000	lw	r1,(r1)
12831  0000b310  afa10000	sw	(r29),r1
12832  0000b314  0fffa924	jal	_ProcessSuspend
12833  0000b318  54000000	nop; not filled.
12834  0000b31c  0fffa46c	jal	_ProcessSchedule
12835  0000b320  54000000	nop; not filled.
12836  0000b324  08000cd8	j	L235_LF9
12837  0000b328  54000000	nop; not filled.
12838  0000b32c          	L138_LF9:
12839  0000b32c  23bdfff8	addi	r29,r29,#-8
12840  0000b330  3c020001	lhi	r2,((_debugstr)>>16)&0xffff
12841  0000b334  24421f50	addui	r2,r2,(_debugstr)&0xffff
12842  0000b338  afa20000	sw	(r29),r2
12843  0000b33c  20070074	addi	r7,r0,#116
12844  0000b340  afa70004	sw	4(r29),r7
12845  0000b344  0fff96f0	jal	_dindex
12846  0000b348  54000000	nop; not filled.
12847  0000b34c  23bd0008	addi	r29,r29,#8
12848  0000b350  64210000	snei	r1,r1,#0
12849  0000b354  1420002c	bnez	r1,L140_LF9
12850  0000b358  54000000	nop; not filled.
12851  0000b35c  23bdfff8	addi	r29,r29,#-8
12852  0000b360  afa20000	sw	(r29),r2
12853  0000b364  2007002b	addi	r7,r0,#43
12854  0000b368  afa70004	sw	4(r29),r7
12855  0000b36c  0fff96c8	jal	_dindex
12856  0000b370  54000000	nop; not filled.
12857  0000b374  23bd0008	addi	r29,r29,#8
12858  0000b378  64210000	snei	r1,r1,#0
12859  0000b37c  10200020	beqz	r1,L139_LF9
12860  0000b380  54000000	nop; not filled.
12861  0000b384          	L140_LF9:
12862  0000b384  23bdfff8	addi	r29,r29,#-8
12863  0000b388  3c070001	lhi	r7,((LC6_LF9)>>16)&0xffff
12864  0000b38c  24e75ca8	addui	r7,r7,(LC6_LF9)&0xffff
12865  0000b390  afa70000	sw	(r29),r7
12866  0000b394  0c0015f4	jal	_printf
12867  0000b398  54000000	nop; not filled.
12868  0000b39c  23bd0008	addi	r29,r29,#8
12869  0000b3a0          	L139_LF9:
12870  0000b3a0  23bdfff8	addi	r29,r29,#-8
12871  0000b3a4  afa30000	sw	(r29),r3
12872  0000b3a8  30810040	andi	r1,r4,#64
12873  0000b3ac  afa10004	sw	4(r29),r1
12874  0000b3b0  0ffff7cc	jal	_TrapPrintfHandler_LF9
12875  0000b3b4  54000000	nop; not filled.
12876  0000b3b8  08000c44	j	L235_LF9
12877  0000b3bc  54000000	nop; not filled.
12878  0000b3c0          	L141_LF9:
12879  0000b3c0  30810040	andi	r1,r4,#64
12880  0000b3c4  64210000	snei	r1,r1,#0
12881  0000b3c8  1020001c	beqz	r1,L142_LF9
12882  0000b3cc  54000000	nop; not filled.
12883  0000b3d0  8c670000	lw	r7,(r3)
12884  0000b3d4  afc7ffe8	sw	-24(r30),r7
12885  0000b3d8  8c630004	lw	r3,4(r3)
12886  0000b3dc  afc3ffec	sw	-20(r30),r3
12887  0000b3e0  0800006c	j	L143_LF9
12888  0000b3e4  54000000	nop; not filled.
12889  0000b3e8          	L142_LF9:
12890  0000b3e8  23bdfff0	addi	r29,r29,#-16
12891  0000b3ec  3c020001	lhi	r2,((_currentPCB)>>16)&0xffff
12892  0000b3f0  24422018	addui	r2,r2,(_currentPCB)&0xffff
12893  0000b3f4  8c470000	lw	r7,(r2)
12894  0000b3f8  afa70000	sw	(r29),r7
12895  0000b3fc  afa30004	sw	4(r29),r3
12896  0000b400  23c1ffe8	addi	r1,r30,#-24
12897  0000b404  afa10008	sw	8(r29),r1
12898  0000b408  20070008	addi	r7,r0,#8
12899  0000b40c  afa7000c	sw	12(r29),r7
12900  0000b410  0fff8d74	jal	_MemoryCopyUserToSystem
12901  0000b414  54000000	nop; not filled.
12902  0000b418  8c420000	lw	r2,(r2)
12903  0000b41c  afa20000	sw	(r29),r2
12904  0000b420  8fc1ffe8	lw	r1,-24(r30)
12905  0000b424  afa10004	sw	4(r29),r1
12906  0000b428  23c2ffc8	addi	r2,r30,#-56
12907  0000b42c  afa20008	sw	8(r29),r2
12908  0000b430  2007001f	addi	r7,r0,#31
12909  0000b434  afa7000c	sw	12(r29),r7
12910  0000b438  0fff8d4c	jal	_MemoryCopyUserToSystem
12911  0000b43c  54000000	nop; not filled.
12912  0000b440  20070000	addi	r7,r0,(#0x0)&0xff
12913  0000b444  a3c7ffe7	sb	-25(r30),r7
12914  0000b448  afc2ffe8	sw	-24(r30),r2
12915  0000b44c  23bd0010	addi	r29,r29,#16
12916  0000b450          	L143_LF9:
12917  0000b450  23bdfff8	addi	r29,r29,#-8
12918  0000b454  20070000	addi	r7,r0,#0
12919  0000b458  afa70000	sw	(r29),r7
12920  0000b45c  0fff5e28	jal	_SetIntrs
12921  0000b460  54000000	nop; not filled.
12922  0000b464  00011020	add	r2,r0,r1
12923  0000b468  23bd0008	addi	r29,r29,#8
12924  0000b46c  23bdfff8	addi	r29,r29,#-8
12925  0000b470  3c010001	lhi	r1,((_currentPCB)>>16)&0xffff
12926  0000b474  24212018	addui	r1,r1,(_currentPCB)&0xffff
12927  0000b478  8c210000	lw	r1,(r1)
12928  0000b47c  afa10000	sw	(r29),r1
12929  0000b480  8fc1ffec	lw	r1,-20(r30)
12930  0000b484  3c070001	lhi	r7,#1
12931  0000b488  24e70000	addui	r7,r7,#0
12932  0000b48c  00270820	add	r1,r1,r7
12933  0000b490  afa10004	sw	4(r29),r1
12934  0000b494  0fffa2c0	jal	_ProcessSetResult
12935  0000b498  54000000	nop; not filled.
12936  0000b49c  23bdfff8	addi	r29,r29,#-8
12937  0000b4a0  3c070001	lhi	r7,((LC7_LF9)>>16)&0xffff
12938  0000b4a4  24e75cbc	addui	r7,r7,(LC7_LF9)&0xffff
12939  0000b4a8  afa70000	sw	(r29),r7
12940  0000b4ac  8fc1ffe8	lw	r1,-24(r30)
12941  0000b4b0  afa10004	sw	4(r29),r1
12942  0000b4b4  8fc7ffec	lw	r7,-20(r30)
12943  0000b4b8  afa70008	sw	8(r29),r7
12944  0000b4bc  0c0014cc	jal	_printf
12945  0000b4c0  54000000	nop; not filled.
12946  0000b4c4  23bd0010	addi	r29,r29,#16
12947  0000b4c8  23bdfff8	addi	r29,r29,#-8
12948  0000b4cc  afa20000	sw	(r29),r2
12949  0000b4d0  0fff5db4	jal	_SetIntrs
12950  0000b4d4  54000000	nop; not filled.
12951  0000b4d8  08000b24	j	L235_LF9
12952  0000b4dc  54000000	nop; not filled.
12953  0000b4e0          	L146_LF9:
12954  0000b4e0  23bdfff8	addi	r29,r29,#-8
12955  0000b4e4  20070000	addi	r7,r0,#0
12956  0000b4e8  afa70000	sw	(r29),r7
12957  0000b4ec  0fff5d98	jal	_SetIntrs
12958  0000b4f0  54000000	nop; not filled.
12959  0000b4f4  00011020	add	r2,r0,r1
12960  0000b4f8  23bd0008	addi	r29,r29,#8
12961  0000b4fc  23bdfff8	addi	r29,r29,#-8
12962  0000b500  3c010001	lhi	r1,((_currentPCB)>>16)&0xffff
12963  0000b504  24212018	addui	r1,r1,(_currentPCB)&0xffff
12964  0000b508  8c210000	lw	r1,(r1)
12965  0000b50c  afa10000	sw	(r29),r1
12966  0000b510  2007ffff	addi	r7,r0,#-1
12967  0000b514  afa70004	sw	4(r29),r7
12968  0000b518  0fffa23c	jal	_ProcessSetResult
12969  0000b51c  54000000	nop; not filled.
12970  0000b520  23bd0008	addi	r29,r29,#8
12971  0000b524  23bdfff8	addi	r29,r29,#-8
12972  0000b528  afa20000	sw	(r29),r2
12973  0000b52c  0fff5d58	jal	_SetIntrs
12974  0000b530  54000000	nop; not filled.
12975  0000b534  08000ac8	j	L235_LF9
12976  0000b538  54000000	nop; not filled.
12977  0000b53c          	L149_LF9:
12978  0000b53c  23bdfff8	addi	r29,r29,#-8
12979  0000b540  20070000	addi	r7,r0,#0
12980  0000b544  afa70000	sw	(r29),r7
12981  0000b548  0fff5d3c	jal	_SetIntrs
12982  0000b54c  54000000	nop; not filled.
12983  0000b550  00011020	add	r2,r0,r1
12984  0000b554  23bd0008	addi	r29,r29,#8
12985  0000b558  23bdfff8	addi	r29,r29,#-8
12986  0000b55c  3c010001	lhi	r1,((_currentPCB)>>16)&0xffff
12987  0000b560  24212018	addui	r1,r1,(_currentPCB)&0xffff
12988  0000b564  8c210000	lw	r1,(r1)
12989  0000b568  afa10000	sw	(r29),r1
12990  0000b56c  2007ffff	addi	r7,r0,#-1
12991  0000b570  afa70004	sw	4(r29),r7
12992  0000b574  0fffa1e0	jal	_ProcessSetResult
12993  0000b578  54000000	nop; not filled.
12994  0000b57c  23bd0008	addi	r29,r29,#8
12995  0000b580  23bdfff8	addi	r29,r29,#-8
12996  0000b584  afa20000	sw	(r29),r2
12997  0000b588  0fff5cfc	jal	_SetIntrs
12998  0000b58c  54000000	nop; not filled.
12999  0000b590  08000a6c	j	L235_LF9
13000  0000b594  54000000	nop; not filled.
13001  0000b598          	L152_LF9:
13002  0000b598  23bdfff8	addi	r29,r29,#-8
13003  0000b59c  20070000	addi	r7,r0,#0
13004  0000b5a0  afa70000	sw	(r29),r7
13005  0000b5a4  0fff5ce0	jal	_SetIntrs
13006  0000b5a8  54000000	nop; not filled.
13007  0000b5ac  00011020	add	r2,r0,r1
13008  0000b5b0  23bd0008	addi	r29,r29,#8
13009  0000b5b4  23bdfff8	addi	r29,r29,#-8
13010  0000b5b8  3c010001	lhi	r1,((_currentPCB)>>16)&0xffff
13011  0000b5bc  24212018	addui	r1,r1,(_currentPCB)&0xffff
13012  0000b5c0  8c210000	lw	r1,(r1)
13013  0000b5c4  afa10000	sw	(r29),r1
13014  0000b5c8  2007ffff	addi	r7,r0,#-1
13015  0000b5cc  afa70004	sw	4(r29),r7
13016  0000b5d0  0fffa184	jal	_ProcessSetResult
13017  0000b5d4  54000000	nop; not filled.
13018  0000b5d8  23bd0008	addi	r29,r29,#8
13019  0000b5dc  23bdfff8	addi	r29,r29,#-8
13020  0000b5e0  afa20000	sw	(r29),r2
13021  0000b5e4  0fff5ca0	jal	_SetIntrs
13022  0000b5e8  54000000	nop; not filled.
13023  0000b5ec  08000a10	j	L235_LF9
13024  0000b5f0  54000000	nop; not filled.
13025  0000b5f4          	L155_LF9:
13026  0000b5f4  23bdfff8	addi	r29,r29,#-8
13027  0000b5f8  20070000	addi	r7,r0,#0
13028  0000b5fc  afa70000	sw	(r29),r7
13029  0000b600  0fff5c84	jal	_SetIntrs
13030  0000b604  54000000	nop; not filled.
13031  0000b608  00011020	add	r2,r0,r1
13032  0000b60c  23bd0008	addi	r29,r29,#8
13033  0000b610  23bdfff8	addi	r29,r29,#-8
13034  0000b614  3c010001	lhi	r1,((_currentPCB)>>16)&0xffff
13035  0000b618  24212018	addui	r1,r1,(_currentPCB)&0xffff
13036  0000b61c  8c210000	lw	r1,(r1)
13037  0000b620  afa10000	sw	(r29),r1
13038  0000b624  2007ffff	addi	r7,r0,#-1
13039  0000b628  afa70004	sw	4(r29),r7
13040  0000b62c  0fffa128	jal	_ProcessSetResult
13041  0000b630  54000000	nop; not filled.
13042  0000b634  23bd0008	addi	r29,r29,#8
13043  0000b638  23bdfff8	addi	r29,r29,#-8
13044  0000b63c  afa20000	sw	(r29),r2
13045  0000b640  0fff5c44	jal	_SetIntrs
13046  0000b644  54000000	nop; not filled.
13047  0000b648  080009b4	j	L235_LF9
13048  0000b64c  54000000	nop; not filled.
13049  0000b650          	L158_LF9:
13050  0000b650  23bdfff8	addi	r29,r29,#-8
13051  0000b654  20070000	addi	r7,r0,#0
13052  0000b658  afa70000	sw	(r29),r7
13053  0000b65c  0fff5c28	jal	_SetIntrs
13054  0000b660  54000000	nop; not filled.
13055  0000b664  00011020	add	r2,r0,r1
13056  0000b668  23bd0008	addi	r29,r29,#8
13057  0000b66c  23bdfff8	addi	r29,r29,#-8
13058  0000b670  3c010001	lhi	r1,((_currentPCB)>>16)&0xffff
13059  0000b674  24212018	addui	r1,r1,(_currentPCB)&0xffff
13060  0000b678  8c210000	lw	r1,(r1)
13061  0000b67c  afa10000	sw	(r29),r1
13062  0000b680  2007ffff	addi	r7,r0,#-1
13063  0000b684  afa70004	sw	4(r29),r7
13064  0000b688  0fffa0cc	jal	_ProcessSetResult
13065  0000b68c  54000000	nop; not filled.
13066  0000b690  23bd0008	addi	r29,r29,#8
13067  0000b694  23bdfff8	addi	r29,r29,#-8
13068  0000b698  afa20000	sw	(r29),r2
13069  0000b69c  0fff5be8	jal	_SetIntrs
13070  0000b6a0  54000000	nop; not filled.
13071  0000b6a4  08000958	j	L235_LF9
13072  0000b6a8  54000000	nop; not filled.
13073  0000b6ac          	L161_LF9:
13074  0000b6ac  0fffccb0	jal	_GetCurrentPid
13075  0000b6b0  54000000	nop; not filled.
13076  0000b6b4  00011020	add	r2,r0,r1
13077  0000b6b8  23bdfff8	addi	r29,r29,#-8
13078  0000b6bc  3c010001	lhi	r1,((_currentPCB)>>16)&0xffff
13079  0000b6c0  24212018	addui	r1,r1,(_currentPCB)&0xffff
13080  0000b6c4  8c210000	lw	r1,(r1)
13081  0000b6c8  afa10000	sw	(r29),r1
13082  0000b6cc  afa20004	sw	4(r29),r2
13083  0000b6d0  0fffa084	jal	_ProcessSetResult
13084  0000b6d4  54000000	nop; not filled.
13085  0000b6d8  08000924	j	L235_LF9
13086  0000b6dc  54000000	nop; not filled.
13087  0000b6e0          	L162_LF9:
13088  0000b6e0  23bdfff8	addi	r29,r29,#-8
13089  0000b6e4  afa30000	sw	(r29),r3
13090  0000b6e8  30810040	andi	r1,r4,#64
13091  0000b6ec  afa10004	sw	4(r29),r1
13092  0000b6f0  0ffff158	jal	_TrapProcessCreateHandler_LF9
13093  0000b6f4  54000000	nop; not filled.
13094  0000b6f8  08000904	j	L235_LF9
13095  0000b6fc  54000000	nop; not filled.
13096  0000b700          	L163_LF9:
13097  0000b700  23bdfff8	addi	r29,r29,#-8
13098  0000b704  3c020001	lhi	r2,((_currentPCB)>>16)&0xffff
13099  0000b708  24422018	addui	r2,r2,(_currentPCB)&0xffff
13100  0000b70c  8c470000	lw	r7,(r2)
13101  0000b710  afa70000	sw	(r29),r7
13102  0000b714  0fff61f4	jal	_MemoryCreateSharedPage
13103  0000b718  54000000	nop; not filled.
13104  0000b71c  0001f820	add	r31,r0,r1
13105  0000b720  8c420000	lw	r2,(r2)
13106  0000b724  afa20000	sw	(r29),r2
13107  0000b728  afbf0004	sw	4(r29),r31
13108  0000b72c  0fffa028	jal	_ProcessSetResult
13109  0000b730  54000000	nop; not filled.
13110  0000b734  080008c8	j	L235_LF9
13111  0000b738  54000000	nop; not filled.
13112  0000b73c          	L164_LF9:
13113  0000b73c  30810040	andi	r1,r4,#64
13114  0000b740  64210000	snei	r1,r1,#0
13115  0000b744  1420003c	bnez	r1,L166_LF9
13116  0000b748  54000000	nop; not filled.
13117  0000b74c  23bdfff0	addi	r29,r29,#-16
13118  0000b750  3c010001	lhi	r1,((_currentPCB)>>16)&0xffff
13119  0000b754  24212018	addui	r1,r1,(_currentPCB)&0xffff
13120  0000b758  8c210000	lw	r1,(r1)
13121  0000b75c  afa10000	sw	(r29),r1
13122  0000b760  afa30004	sw	4(r29),r3
13123  0000b764  23c1ffc4	addi	r1,r30,#-60
13124  0000b768  afa10008	sw	8(r29),r1
13125  0000b76c  20070004	addi	r7,r0,#4
13126  0000b770  afa7000c	sw	12(r29),r7
13127  0000b774  0fff8a10	jal	_MemoryCopyUserToSystem
13128  0000b778  54000000	nop; not filled.
13129  0000b77c  08000024	j	L236_LF9
13130  0000b780  54000000	nop; not filled.
13131  0000b784          	L166_LF9:
13132  0000b784  23bdfff0	addi	r29,r29,#-16
13133  0000b788  afa30000	sw	(r29),r3
13134  0000b78c  23c1ffc4	addi	r1,r30,#-60
13135  0000b790  afa10004	sw	4(r29),r1
13136  0000b794  20070004	addi	r7,r0,#4
13137  0000b798  afa70008	sw	8(r29),r7
13138  0000b79c  0fff9628	jal	_bcopy
13139  0000b7a0  54000000	nop; not filled.
13140  0000b7a4          	L236_LF9:
13141  0000b7a4  23bd0010	addi	r29,r29,#16
13142  0000b7a8  8fdfffc4	lw	r31,-60(r30)
13143  0000b7ac  23bdfff8	addi	r29,r29,#-8
13144  0000b7b0  3c020001	lhi	r2,((_currentPCB)>>16)&0xffff
13145  0000b7b4  24422018	addui	r2,r2,(_currentPCB)&0xffff
13146  0000b7b8  8c470000	lw	r7,(r2)
13147  0000b7bc  afa70000	sw	(r29),r7
13148  0000b7c0  afbf0004	sw	4(r29),r31
13149  0000b7c4  0fff6314	jal	_mmap
13150  0000b7c8  54000000	nop; not filled.
13151  0000b7cc  0001f820	add	r31,r0,r1
13152  0000b7d0  8c420000	lw	r2,(r2)
13153  0000b7d4  afa20000	sw	(r29),r2
13154  0000b7d8  afbf0004	sw	4(r29),r31
13155  0000b7dc  0fff9f78	jal	_ProcessSetResult
13156  0000b7e0  54000000	nop; not filled.
13157  0000b7e4  08000818	j	L235_LF9
13158  0000b7e8  54000000	nop; not filled.
13159  0000b7ec          	L168_LF9:
13160  0000b7ec  30810040	andi	r1,r4,#64
13161  0000b7f0  64210000	snei	r1,r1,#0
13162  0000b7f4  1420003c	bnez	r1,L170_LF9
13163  0000b7f8  54000000	nop; not filled.
13164  0000b7fc  23bdfff0	addi	r29,r29,#-16
13165  0000b800  3c010001	lhi	r1,((_currentPCB)>>16)&0xffff
13166  0000b804  24212018	addui	r1,r1,(_currentPCB)&0xffff
13167  0000b808  8c210000	lw	r1,(r1)
13168  0000b80c  afa10000	sw	(r29),r1
13169  0000b810  afa30004	sw	4(r29),r3
13170  0000b814  23c1ffc4	addi	r1,r30,#-60
13171  0000b818  afa10008	sw	8(r29),r1
13172  0000b81c  20070004	addi	r7,r0,#4
13173  0000b820  afa7000c	sw	12(r29),r7
13174  0000b824  0fff8960	jal	_MemoryCopyUserToSystem
13175  0000b828  54000000	nop; not filled.
13176  0000b82c  08000024	j	L237_LF9
13177  0000b830  54000000	nop; not filled.
13178  0000b834          	L170_LF9:
13179  0000b834  23bdfff0	addi	r29,r29,#-16
13180  0000b838  afa30000	sw	(r29),r3
13181  0000b83c  23c1ffc4	addi	r1,r30,#-60
13182  0000b840  afa10004	sw	4(r29),r1
13183  0000b844  20070004	addi	r7,r0,#4
13184  0000b848  afa70008	sw	8(r29),r7
13185  0000b84c  0fff9578	jal	_bcopy
13186  0000b850  54000000	nop; not filled.
13187  0000b854          	L237_LF9:
13188  0000b854  23bd0010	addi	r29,r29,#16
13189  0000b858  23bdfff8	addi	r29,r29,#-8
13190  0000b85c  8fc7ffc4	lw	r7,-60(r30)
13191  0000b860  afa70000	sw	(r29),r7
13192  0000b864  0fffdbc8	jal	_SemCreate
13193  0000b868  54000000	nop; not filled.
13194  0000b86c  00011020	add	r2,r0,r1
13195  0000b870  3c010001	lhi	r1,((_currentPCB)>>16)&0xffff
13196  0000b874  24212018	addui	r1,r1,(_currentPCB)&0xffff
13197  0000b878  8c210000	lw	r1,(r1)
13198  0000b87c  afa10000	sw	(r29),r1
13199  0000b880  afa20004	sw	4(r29),r2
13200  0000b884  0fff9ed0	jal	_ProcessSetResult
13201  0000b888  54000000	nop; not filled.
13202  0000b88c  08000770	j	L235_LF9
13203  0000b890  54000000	nop; not filled.
13204  0000b894          	L172_LF9:
13205  0000b894  30810040	andi	r1,r4,#64
13206  0000b898  64210000	snei	r1,r1,#0
13207  0000b89c  1420003c	bnez	r1,L174_LF9
13208  0000b8a0  54000000	nop; not filled.
13209  0000b8a4  23bdfff0	addi	r29,r29,#-16
13210  0000b8a8  3c010001	lhi	r1,((_currentPCB)>>16)&0xffff
13211  0000b8ac  24212018	addui	r1,r1,(_currentPCB)&0xffff
13212  0000b8b0  8c210000	lw	r1,(r1)
13213  0000b8b4  afa10000	sw	(r29),r1
13214  0000b8b8  afa30004	sw	4(r29),r3
13215  0000b8bc  23c1ffc4	addi	r1,r30,#-60
13216  0000b8c0  afa10008	sw	8(r29),r1
13217  0000b8c4  20070004	addi	r7,r0,#4
13218  0000b8c8  afa7000c	sw	12(r29),r7
13219  0000b8cc  0fff88b8	jal	_MemoryCopyUserToSystem
13220  0000b8d0  54000000	nop; not filled.
13221  0000b8d4  08000024	j	L238_LF9
13222  0000b8d8  54000000	nop; not filled.
13223  0000b8dc          	L174_LF9:
13224  0000b8dc  23bdfff0	addi	r29,r29,#-16
13225  0000b8e0  afa30000	sw	(r29),r3
13226  0000b8e4  23c1ffc4	addi	r1,r30,#-60
13227  0000b8e8  afa10004	sw	4(r29),r1
13228  0000b8ec  20070004	addi	r7,r0,#4
13229  0000b8f0  afa70008	sw	8(r29),r7
13230  0000b8f4  0fff94d0	jal	_bcopy
13231  0000b8f8  54000000	nop; not filled.
13232  0000b8fc          	L238_LF9:
13233  0000b8fc  23bd0010	addi	r29,r29,#16
13234  0000b900  23bdfff8	addi	r29,r29,#-8
13235  0000b904  8fc7ffc4	lw	r7,-60(r30)
13236  0000b908  afa70000	sw	(r29),r7
13237  0000b90c  0fffdea4	jal	_SemHandleWait
13238  0000b910  54000000	nop; not filled.
13239  0000b914  0001f820	add	r31,r0,r1
13240  0000b918  3c010001	lhi	r1,((_currentPCB)>>16)&0xffff
13241  0000b91c  24212018	addui	r1,r1,(_currentPCB)&0xffff
13242  0000b920  8c210000	lw	r1,(r1)
13243  0000b924  afa10000	sw	(r29),r1
13244  0000b928  afbf0004	sw	4(r29),r31
13245  0000b92c  0fff9e28	jal	_ProcessSetResult
13246  0000b930  54000000	nop; not filled.
13247  0000b934  080006c8	j	L235_LF9
13248  0000b938  54000000	nop; not filled.
13249  0000b93c          	L176_LF9:
13250  0000b93c  30810040	andi	r1,r4,#64
13251  0000b940  64210000	snei	r1,r1,#0
13252  0000b944  1420003c	bnez	r1,L178_LF9
13253  0000b948  54000000	nop; not filled.
13254  0000b94c  23bdfff0	addi	r29,r29,#-16
13255  0000b950  3c010001	lhi	r1,((_currentPCB)>>16)&0xffff
13256  0000b954  24212018	addui	r1,r1,(_currentPCB)&0xffff
13257  0000b958  8c210000	lw	r1,(r1)
13258  0000b95c  afa10000	sw	(r29),r1
13259  0000b960  afa30004	sw	4(r29),r3
13260  0000b964  23c1ffc4	addi	r1,r30,#-60
13261  0000b968  afa10008	sw	8(r29),r1
13262  0000b96c  20070004	addi	r7,r0,#4
13263  0000b970  afa7000c	sw	12(r29),r7
13264  0000b974  0fff8810	jal	_MemoryCopyUserToSystem
13265  0000b978  54000000	nop; not filled.
13266  0000b97c  08000024	j	L239_LF9
13267  0000b980  54000000	nop; not filled.
13268  0000b984          	L178_LF9:
13269  0000b984  23bdfff0	addi	r29,r29,#-16
13270  0000b988  afa30000	sw	(r29),r3
13271  0000b98c  23c1ffc4	addi	r1,r30,#-60
13272  0000b990  afa10004	sw	4(r29),r1
13273  0000b994  20070004	addi	r7,r0,#4
13274  0000b998  afa70008	sw	8(r29),r7
13275  0000b99c  0fff9428	jal	_bcopy
13276  0000b9a0  54000000	nop; not filled.
13277  0000b9a4          	L239_LF9:
13278  0000b9a4  23bd0010	addi	r29,r29,#16
13279  0000b9a8  23bdfff8	addi	r29,r29,#-8
13280  0000b9ac  8fc7ffc4	lw	r7,-60(r30)
13281  0000b9b0  afa70000	sw	(r29),r7
13282  0000b9b4  0fffe088	jal	_SemHandleSignal
13283  0000b9b8  54000000	nop; not filled.
13284  0000b9bc  0001f820	add	r31,r0,r1
13285  0000b9c0  3c010001	lhi	r1,((_currentPCB)>>16)&0xffff
13286  0000b9c4  24212018	addui	r1,r1,(_currentPCB)&0xffff
13287  0000b9c8  8c210000	lw	r1,(r1)
13288  0000b9cc  afa10000	sw	(r29),r1
13289  0000b9d0  afbf0004	sw	4(r29),r31
13290  0000b9d4  0fff9d80	jal	_ProcessSetResult
13291  0000b9d8  54000000	nop; not filled.
13292  0000b9dc  08000620	j	L235_LF9
13293  0000b9e0  54000000	nop; not filled.
13294  0000b9e4          	L180_LF9:
13295  0000b9e4  0fffe0ec	jal	_LockCreate
13296  0000b9e8  54000000	nop; not filled.
13297  0000b9ec  00011020	add	r2,r0,r1
13298  0000b9f0  23bdfff8	addi	r29,r29,#-8
13299  0000b9f4  3c010001	lhi	r1,((_currentPCB)>>16)&0xffff
13300  0000b9f8  24212018	addui	r1,r1,(_currentPCB)&0xffff
13301  0000b9fc  8c210000	lw	r1,(r1)
13302  0000ba00  afa10000	sw	(r29),r1
13303  0000ba04  afa20004	sw	4(r29),r2
13304  0000ba08  0fff9d4c	jal	_ProcessSetResult
13305  0000ba0c  54000000	nop; not filled.
13306  0000ba10  080005ec	j	L235_LF9
13307  0000ba14  54000000	nop; not filled.
13308  0000ba18          	L181_LF9:
13309  0000ba18  30810040	andi	r1,r4,#64
13310  0000ba1c  64210000	snei	r1,r1,#0
13311  0000ba20  1420003c	bnez	r1,L183_LF9
13312  0000ba24  54000000	nop; not filled.
13313  0000ba28  23bdfff0	addi	r29,r29,#-16
13314  0000ba2c  3c010001	lhi	r1,((_currentPCB)>>16)&0xffff
13315  0000ba30  24212018	addui	r1,r1,(_currentPCB)&0xffff
13316  0000ba34  8c210000	lw	r1,(r1)
13317  0000ba38  afa10000	sw	(r29),r1
13318  0000ba3c  afa30004	sw	4(r29),r3
13319  0000ba40  23c1ffc4	addi	r1,r30,#-60
13320  0000ba44  afa10008	sw	8(r29),r1
13321  0000ba48  20070004	addi	r7,r0,#4
13322  0000ba4c  afa7000c	sw	12(r29),r7
13323  0000ba50  0fff8734	jal	_MemoryCopyUserToSystem
13324  0000ba54  54000000	nop; not filled.
13325  0000ba58  08000024	j	L240_LF9
13326  0000ba5c  54000000	nop; not filled.
13327  0000ba60          	L183_LF9:
13328  0000ba60  23bdfff0	addi	r29,r29,#-16
13329  0000ba64  afa30000	sw	(r29),r3
13330  0000ba68  23c1ffc4	addi	r1,r30,#-60
13331  0000ba6c  afa10004	sw	4(r29),r1
13332  0000ba70  20070004	addi	r7,r0,#4
13333  0000ba74  afa70008	sw	8(r29),r7
13334  0000ba78  0fff934c	jal	_bcopy
13335  0000ba7c  54000000	nop; not filled.
13336  0000ba80          	L240_LF9:
13337  0000ba80  23bd0010	addi	r29,r29,#16
13338  0000ba84  23bdfff8	addi	r29,r29,#-8
13339  0000ba88  8fc7ffc4	lw	r7,-60(r30)
13340  0000ba8c  afa70000	sw	(r29),r7
13341  0000ba90  0fffe130	jal	_LockHandleAcquire
13342  0000ba94  54000000	nop; not filled.
13343  0000ba98  0001f820	add	r31,r0,r1
13344  0000ba9c  3c010001	lhi	r1,((_currentPCB)>>16)&0xffff
13345  0000baa0  24212018	addui	r1,r1,(_currentPCB)&0xffff
13346  0000baa4  8c210000	lw	r1,(r1)
13347  0000baa8  afa10000	sw	(r29),r1
13348  0000baac  afbf0004	sw	4(r29),r31
13349  0000bab0  0fff9ca4	jal	_ProcessSetResult
13350  0000bab4  54000000	nop; not filled.
13351  0000bab8  08000544	j	L235_LF9
13352  0000babc  54000000	nop; not filled.
13353  0000bac0          	L185_LF9:
13354  0000bac0  30810040	andi	r1,r4,#64
13355  0000bac4  64210000	snei	r1,r1,#0
13356  0000bac8  1420003c	bnez	r1,L187_LF9
13357  0000bacc  54000000	nop; not filled.
13358  0000bad0  23bdfff0	addi	r29,r29,#-16
13359  0000bad4  3c010001	lhi	r1,((_currentPCB)>>16)&0xffff
13360  0000bad8  24212018	addui	r1,r1,(_currentPCB)&0xffff
13361  0000badc  8c210000	lw	r1,(r1)
13362  0000bae0  afa10000	sw	(r29),r1
13363  0000bae4  afa30004	sw	4(r29),r3
13364  0000bae8  23c1ffc4	addi	r1,r30,#-60
13365  0000baec  afa10008	sw	8(r29),r1
13366  0000baf0  20070004	addi	r7,r0,#4
13367  0000baf4  afa7000c	sw	12(r29),r7
13368  0000baf8  0fff868c	jal	_MemoryCopyUserToSystem
13369  0000bafc  54000000	nop; not filled.
13370  0000bb00  08000024	j	L241_LF9
13371  0000bb04  54000000	nop; not filled.
13372  0000bb08          	L187_LF9:
13373  0000bb08  23bdfff0	addi	r29,r29,#-16
13374  0000bb0c  afa30000	sw	(r29),r3
13375  0000bb10  23c1ffc4	addi	r1,r30,#-60
13376  0000bb14  afa10004	sw	4(r29),r1
13377  0000bb18  20070004	addi	r7,r0,#4
13378  0000bb1c  afa70008	sw	8(r29),r7
13379  0000bb20  0fff92a4	jal	_bcopy
13380  0000bb24  54000000	nop; not filled.
13381  0000bb28          	L241_LF9:
13382  0000bb28  23bd0010	addi	r29,r29,#16
13383  0000bb2c  23bdfff8	addi	r29,r29,#-8
13384  0000bb30  8fc7ffc4	lw	r7,-60(r30)
13385  0000bb34  afa70000	sw	(r29),r7
13386  0000bb38  0fffe188	jal	_LockHandleRelease
13387  0000bb3c  54000000	nop; not filled.
13388  0000bb40  0001f820	add	r31,r0,r1
13389  0000bb44  3c010001	lhi	r1,((_currentPCB)>>16)&0xffff
13390  0000bb48  24212018	addui	r1,r1,(_currentPCB)&0xffff
13391  0000bb4c  8c210000	lw	r1,(r1)
13392  0000bb50  afa10000	sw	(r29),r1
13393  0000bb54  afbf0004	sw	4(r29),r31
13394  0000bb58  0fff9bfc	jal	_ProcessSetResult
13395  0000bb5c  54000000	nop; not filled.
13396  0000bb60  0800049c	j	L235_LF9
13397  0000bb64  54000000	nop; not filled.
13398  0000bb68          	L189_LF9:
13399  0000bb68  30810040	andi	r1,r4,#64
13400  0000bb6c  64210000	snei	r1,r1,#0
13401  0000bb70  1420003c	bnez	r1,L191_LF9
13402  0000bb74  54000000	nop; not filled.
13403  0000bb78  23bdfff0	addi	r29,r29,#-16
13404  0000bb7c  3c010001	lhi	r1,((_currentPCB)>>16)&0xffff
13405  0000bb80  24212018	addui	r1,r1,(_currentPCB)&0xffff
13406  0000bb84  8c210000	lw	r1,(r1)
13407  0000bb88  afa10000	sw	(r29),r1
13408  0000bb8c  afa30004	sw	4(r29),r3
13409  0000bb90  23c1ffc4	addi	r1,r30,#-60
13410  0000bb94  afa10008	sw	8(r29),r1
13411  0000bb98  20070004	addi	r7,r0,#4
13412  0000bb9c  afa7000c	sw	12(r29),r7
13413  0000bba0  0fff85e4	jal	_MemoryCopyUserToSystem
13414  0000bba4  54000000	nop; not filled.
13415  0000bba8  08000024	j	L242_LF9
13416  0000bbac  54000000	nop; not filled.
13417  0000bbb0          	L191_LF9:
13418  0000bbb0  23bdfff0	addi	r29,r29,#-16
13419  0000bbb4  afa30000	sw	(r29),r3
13420  0000bbb8  23c1ffc4	addi	r1,r30,#-60
13421  0000bbbc  afa10004	sw	4(r29),r1
13422  0000bbc0  20070004	addi	r7,r0,#4
13423  0000bbc4  afa70008	sw	8(r29),r7
13424  0000bbc8  0fff91fc	jal	_bcopy
13425  0000bbcc  54000000	nop; not filled.
13426  0000bbd0          	L242_LF9:
13427  0000bbd0  23bd0010	addi	r29,r29,#16
13428  0000bbd4  23bdfff8	addi	r29,r29,#-8
13429  0000bbd8  8fc7ffc4	lw	r7,-60(r30)
13430  0000bbdc  afa70000	sw	(r29),r7
13431  0000bbe0  0fffe1d0	jal	_CondCreate
13432  0000bbe4  54000000	nop; not filled.
13433  0000bbe8  00011020	add	r2,r0,r1
13434  0000bbec  3c010001	lhi	r1,((_currentPCB)>>16)&0xffff
13435  0000bbf0  24212018	addui	r1,r1,(_currentPCB)&0xffff
13436  0000bbf4  8c210000	lw	r1,(r1)
13437  0000bbf8  afa10000	sw	(r29),r1
13438  0000bbfc  afa20004	sw	4(r29),r2
13439  0000bc00  0fff9b54	jal	_ProcessSetResult
13440  0000bc04  54000000	nop; not filled.
13441  0000bc08  080003f4	j	L235_LF9
13442  0000bc0c  54000000	nop; not filled.
13443  0000bc10          	L193_LF9:
13444  0000bc10  30810040	andi	r1,r4,#64
13445  0000bc14  64210000	snei	r1,r1,#0
13446  0000bc18  1420003c	bnez	r1,L195_LF9
13447  0000bc1c  54000000	nop; not filled.
13448  0000bc20  23bdfff0	addi	r29,r29,#-16
13449  0000bc24  3c010001	lhi	r1,((_currentPCB)>>16)&0xffff
13450  0000bc28  24212018	addui	r1,r1,(_currentPCB)&0xffff
13451  0000bc2c  8c210000	lw	r1,(r1)
13452  0000bc30  afa10000	sw	(r29),r1
13453  0000bc34  afa30004	sw	4(r29),r3
13454  0000bc38  23c1ffc4	addi	r1,r30,#-60
13455  0000bc3c  afa10008	sw	8(r29),r1
13456  0000bc40  20070004	addi	r7,r0,#4
13457  0000bc44  afa7000c	sw	12(r29),r7
13458  0000bc48  0fff853c	jal	_MemoryCopyUserToSystem
13459  0000bc4c  54000000	nop; not filled.
13460  0000bc50  08000024	j	L243_LF9
13461  0000bc54  54000000	nop; not filled.
13462  0000bc58          	L195_LF9:
13463  0000bc58  23bdfff0	addi	r29,r29,#-16
13464  0000bc5c  afa30000	sw	(r29),r3
13465  0000bc60  23c1ffc4	addi	r1,r30,#-60
13466  0000bc64  afa10004	sw	4(r29),r1
13467  0000bc68  20070004	addi	r7,r0,#4
13468  0000bc6c  afa70008	sw	8(r29),r7
13469  0000bc70  0fff9154	jal	_bcopy
13470  0000bc74  54000000	nop; not filled.
13471  0000bc78          	L243_LF9:
13472  0000bc78  23bd0010	addi	r29,r29,#16
13473  0000bc7c  23bdfff8	addi	r29,r29,#-8
13474  0000bc80  8fc7ffc4	lw	r7,-60(r30)
13475  0000bc84  afa70000	sw	(r29),r7
13476  0000bc88  0fffe214	jal	_CondHandleWait
13477  0000bc8c  54000000	nop; not filled.
13478  0000bc90  00011020	add	r2,r0,r1
13479  0000bc94  3c010001	lhi	r1,((_currentPCB)>>16)&0xffff
13480  0000bc98  24212018	addui	r1,r1,(_currentPCB)&0xffff
13481  0000bc9c  8c210000	lw	r1,(r1)
13482  0000bca0  afa10000	sw	(r29),r1
13483  0000bca4  afa20004	sw	4(r29),r2
13484  0000bca8  0fff9aac	jal	_ProcessSetResult
13485  0000bcac  54000000	nop; not filled.
13486  0000bcb0  0800034c	j	L235_LF9
13487  0000bcb4  54000000	nop; not filled.
13488  0000bcb8          	L197_LF9:
13489  0000bcb8  30810040	andi	r1,r4,#64
13490  0000bcbc  64210000	snei	r1,r1,#0
13491  0000bcc0  1420003c	bnez	r1,L199_LF9
13492  0000bcc4  54000000	nop; not filled.
13493  0000bcc8  23bdfff0	addi	r29,r29,#-16
13494  0000bccc  3c010001	lhi	r1,((_currentPCB)>>16)&0xffff
13495  0000bcd0  24212018	addui	r1,r1,(_currentPCB)&0xffff
13496  0000bcd4  8c210000	lw	r1,(r1)
13497  0000bcd8  afa10000	sw	(r29),r1
13498  0000bcdc  afa30004	sw	4(r29),r3
13499  0000bce0  23c1ffc4	addi	r1,r30,#-60
13500  0000bce4  afa10008	sw	8(r29),r1
13501  0000bce8  20070004	addi	r7,r0,#4
13502  0000bcec  afa7000c	sw	12(r29),r7
13503  0000bcf0  0fff8494	jal	_MemoryCopyUserToSystem
13504  0000bcf4  54000000	nop; not filled.
13505  0000bcf8  08000024	j	L244_LF9
13506  0000bcfc  54000000	nop; not filled.
13507  0000bd00          	L199_LF9:
13508  0000bd00  23bdfff0	addi	r29,r29,#-16
13509  0000bd04  afa30000	sw	(r29),r3
13510  0000bd08  23c1ffc4	addi	r1,r30,#-60
13511  0000bd0c  afa10004	sw	4(r29),r1
13512  0000bd10  20070004	addi	r7,r0,#4
13513  0000bd14  afa70008	sw	8(r29),r7
13514  0000bd18  0fff90ac	jal	_bcopy
13515  0000bd1c  54000000	nop; not filled.
13516  0000bd20          	L244_LF9:
13517  0000bd20  23bd0010	addi	r29,r29,#16
13518  0000bd24  23bdfff8	addi	r29,r29,#-8
13519  0000bd28  8fc7ffc4	lw	r7,-60(r30)
13520  0000bd2c  afa70000	sw	(r29),r7
13521  0000bd30  0fffe3c8	jal	_CondHandleSignal
13522  0000bd34  54000000	nop; not filled.
13523  0000bd38  00011020	add	r2,r0,r1
13524  0000bd3c  3c010001	lhi	r1,((_currentPCB)>>16)&0xffff
13525  0000bd40  24212018	addui	r1,r1,(_currentPCB)&0xffff
13526  0000bd44  8c210000	lw	r1,(r1)
13527  0000bd48  afa10000	sw	(r29),r1
13528  0000bd4c  afa20004	sw	4(r29),r2
13529  0000bd50  0fff9a04	jal	_ProcessSetResult
13530  0000bd54  54000000	nop; not filled.
13531  0000bd58  080002a4	j	L235_LF9
13532  0000bd5c  54000000	nop; not filled.
13533  0000bd60          	L201_LF9:
13534  0000bd60  30810040	andi	r1,r4,#64
13535  0000bd64  64210000	snei	r1,r1,#0
13536  0000bd68  1420003c	bnez	r1,L203_LF9
13537  0000bd6c  54000000	nop; not filled.
13538  0000bd70  23bdfff0	addi	r29,r29,#-16
13539  0000bd74  3c010001	lhi	r1,((_currentPCB)>>16)&0xffff
13540  0000bd78  24212018	addui	r1,r1,(_currentPCB)&0xffff
13541  0000bd7c  8c210000	lw	r1,(r1)
13542  0000bd80  afa10000	sw	(r29),r1
13543  0000bd84  afa30004	sw	4(r29),r3
13544  0000bd88  23c1ffc4	addi	r1,r30,#-60
13545  0000bd8c  afa10008	sw	8(r29),r1
13546  0000bd90  20070004	addi	r7,r0,#4
13547  0000bd94  afa7000c	sw	12(r29),r7
13548  0000bd98  0fff83ec	jal	_MemoryCopyUserToSystem
13549  0000bd9c  54000000	nop; not filled.
13550  0000bda0  08000024	j	L245_LF9
13551  0000bda4  54000000	nop; not filled.
13552  0000bda8          	L203_LF9:
13553  0000bda8  23bdfff0	addi	r29,r29,#-16
13554  0000bdac  afa30000	sw	(r29),r3
13555  0000bdb0  23c1ffc4	addi	r1,r30,#-60
13556  0000bdb4  afa10004	sw	4(r29),r1
13557  0000bdb8  20070004	addi	r7,r0,#4
13558  0000bdbc  afa70008	sw	8(r29),r7
13559  0000bdc0  0fff9004	jal	_bcopy
13560  0000bdc4  54000000	nop; not filled.
13561  0000bdc8          	L245_LF9:
13562  0000bdc8  23bd0010	addi	r29,r29,#16
13563  0000bdcc  23bdfff8	addi	r29,r29,#-8
13564  0000bdd0  8fc7ffc4	lw	r7,-60(r30)
13565  0000bdd4  afa70000	sw	(r29),r7
13566  0000bdd8  0fffe410	jal	_CondHandleBroadcast
13567  0000bddc  54000000	nop; not filled.
13568  0000bde0  00011020	add	r2,r0,r1
13569  0000bde4  3c010001	lhi	r1,((_currentPCB)>>16)&0xffff
13570  0000bde8  24212018	addui	r1,r1,(_currentPCB)&0xffff
13571  0000bdec  8c210000	lw	r1,(r1)
13572  0000bdf0  afa10000	sw	(r29),r1
13573  0000bdf4  afa20004	sw	4(r29),r2
13574  0000bdf8  0fff995c	jal	_ProcessSetResult
13575  0000bdfc  54000000	nop; not filled.
13576  0000be00  080001fc	j	L235_LF9
13577  0000be04  54000000	nop; not filled.
13578  0000be08          	L205_LF9:
13579  0000be08  23bdfff8	addi	r29,r29,#-8
13580  0000be0c  3c070001	lhi	r7,((LC8_LF9)>>16)&0xffff
13581  0000be10  24e75ce8	addui	r7,r7,(LC8_LF9)&0xffff
13582  0000be14  080001d0	j	L246_LF9
13583  0000be18  54000000	nop; not filled.
13584  0000be1c          	L124_LF9:
13585  0000be1c  60410003	seqi	r1,r2,#3
13586  0000be20  14200148	bnez	r1,L225_LF9
13587  0000be24  54000000	nop; not filled.
13588  0000be28  6c410003	sgtui	r1,r2,#3
13589  0000be2c  14200024	bnez	r1,L231_LF9
13590  0000be30  54000000	nop; not filled.
13591  0000be34  60410001	seqi	r1,r2,#1
13592  0000be38  14200158	bnez	r1,L227_LF9
13593  0000be3c  54000000	nop; not filled.
13594  0000be40  60410002	seqi	r1,r2,#2
13595  0000be44  10200194	beqz	r1,L229_LF9
13596  0000be48  54000000	nop; not filled.
13597  0000be4c  08000130	j	L226_LF9
13598  0000be50  54000000	nop; not filled.
13599  0000be54          	L231_LF9:
13600  0000be54  60410040	seqi	r1,r2,#64
13601  0000be58  14200038	bnez	r1,L217_LF9
13602  0000be5c  54000000	nop; not filled.
13603  0000be60  6c410040	sgtui	r1,r2,#64
13604  0000be64  14200018	bnez	r1,L232_LF9
13605  0000be68  54000000	nop; not filled.
13606  0000be6c  60410020	seqi	r1,r2,#32
13607  0000be70  10200168	beqz	r1,L229_LF9
13608  0000be74  54000000	nop; not filled.
13609  0000be78  0800012c	j	L228_LF9
13610  0000be7c  54000000	nop; not filled.
13611  0000be80          	L232_LF9:
13612  0000be80  60410048	seqi	r1,r2,#72
13613  0000be84  10200154	beqz	r1,L229_LF9
13614  0000be88  54000000	nop; not filled.
13615  0000be8c  08000088	j	L220_LF9
13616  0000be90  54000000	nop; not filled.
13617  0000be94          	L217_LF9:
13618  0000be94  23bdfff8	addi	r29,r29,#-8
13619  0000be98  3c020001	lhi	r2,((_debugstr)>>16)&0xffff
13620  0000be9c  24421f50	addui	r2,r2,(_debugstr)&0xffff
13621  0000bea0  afa20000	sw	(r29),r2
13622  0000bea4  20070074	addi	r7,r0,#116
13623  0000bea8  afa70004	sw	4(r29),r7
13624  0000beac  0fff8b88	jal	_dindex
13625  0000beb0  54000000	nop; not filled.
13626  0000beb4  23bd0008	addi	r29,r29,#8
13627  0000beb8  64210000	snei	r1,r1,#0
13628  0000bebc  1420002c	bnez	r1,L219_LF9
13629  0000bec0  54000000	nop; not filled.
13630  0000bec4  23bdfff8	addi	r29,r29,#-8
13631  0000bec8  afa20000	sw	(r29),r2
13632  0000becc  2007002b	addi	r7,r0,#43
13633  0000bed0  afa70004	sw	4(r29),r7
13634  0000bed4  0fff8b60	jal	_dindex
13635  0000bed8  54000000	nop; not filled.
13636  0000bedc  23bd0008	addi	r29,r29,#8
13637  0000bee0  64210000	snei	r1,r1,#0
13638  0000bee4  10200020	beqz	r1,L218_LF9
13639  0000bee8  54000000	nop; not filled.
13640  0000beec          	L219_LF9:
13641  0000beec  23bdfff8	addi	r29,r29,#-8
13642  0000bef0  3c070001	lhi	r7,((LC9_LF9)>>16)&0xffff
13643  0000bef4  24e75d14	addui	r7,r7,(LC9_LF9)&0xffff
13644  0000bef8          	L248_LF9:
13645  0000bef8  afa70000	sw	(r29),r7
13646  0000befc  0c000a8c	jal	_printf
13647  0000bf00  54000000	nop; not filled.
13648  0000bf04  23bd0008	addi	r29,r29,#8
13649  0000bf08          	L218_LF9:
13650  0000bf08  0fff9880	jal	_ProcessSchedule
13651  0000bf0c  54000000	nop; not filled.
13652  0000bf10  080000f0	j	L215_LF9
13653  0000bf14  54000000	nop; not filled.
13654  0000bf18          	L220_LF9:
13655  0000bf18  3c04fff0	lhi	r4,#-16
13656  0000bf1c  248401a0	addui	r4,r4,#416
13657  0000bf20  3c03fff0	lhi	r3,#-16
13658  0000bf24  24630180	addui	r3,r3,#384
13659  0000bf28          	L221_LF9:
13660  0000bf28  8c820000	lw	r2,(r4)
13661  0000bf2c  8c610000	lw	r1,(r3)
13662  0000bf30  23bdfff0	addi	r29,r29,#-16
13663  0000bf34  3c070001	lhi	r7,((LC10_LF9)>>16)&0xffff
13664  0000bf38  24e75d2c	addui	r7,r7,(LC10_LF9)&0xffff
13665  0000bf3c  afa70000	sw	(r29),r7
13666  0000bf40  afa10004	sw	4(r29),r1
13667  0000bf44  afa10008	sw	8(r29),r1
13668  0000bf48  afa2000c	sw	12(r29),r2
13669  0000bf4c  0c000a3c	jal	_printf
13670  0000bf50  54000000	nop; not filled.
13671  0000bf54  23bd0010	addi	r29,r29,#16
13672  0000bf58  6c410001	sgti	r1,r2,#1
13673  0000bf5c  102000a4	beqz	r1,L215_LF9
13674  0000bf60  54000000	nop; not filled.
13675  0000bf64  0bffffc0	j	L221_LF9
13676  0000bf68  54000000	nop; not filled.
13677  0000bf6c          	L225_LF9:
13678  0000bf6c  23bdfff0	addi	r29,r29,#-16
13679  0000bf70  3c070001	lhi	r7,((LC11_LF9)>>16)&0xffff
13680  0000bf74  24e75d64	addui	r7,r7,(LC11_LF9)&0xffff
13681  0000bf78  08000038	j	L247_LF9
13682  0000bf7c  54000000	nop; not filled.
13683  0000bf80          	L226_LF9:
13684  0000bf80  23bdfff0	addi	r29,r29,#-16
13685  0000bf84  3c070001	lhi	r7,((LC12_LF9)>>16)&0xffff
13686  0000bf88  24e75d98	addui	r7,r7,(LC12_LF9)&0xffff
13687  0000bf8c  08000024	j	L247_LF9
13688  0000bf90  54000000	nop; not filled.
13689  0000bf94          	L227_LF9:
13690  0000bf94  23bdfff0	addi	r29,r29,#-16
13691  0000bf98  3c070001	lhi	r7,((LC13_LF9)>>16)&0xffff
13692  0000bf9c  24e75dd0	addui	r7,r7,(LC13_LF9)&0xffff
13693  0000bfa0  08000010	j	L247_LF9
13694  0000bfa4  54000000	nop; not filled.
13695  0000bfa8          	L228_LF9:
13696  0000bfa8  23bdfff0	addi	r29,r29,#-16
13697  0000bfac  3c070001	lhi	r7,((LC14_LF9)>>16)&0xffff
13698  0000bfb0  24e75e0c	addui	r7,r7,(LC14_LF9)&0xffff
13699  0000bfb4          	L247_LF9:
13700  0000bfb4  afa70000	sw	(r29),r7
13701  0000bfb8  afa60004	sw	4(r29),r6
13702  0000bfbc  afa40008	sw	8(r29),r4
13703  0000bfc0  0c0009c8	jal	_printf
13704  0000bfc4  54000000	nop; not filled.
13705  0000bfc8  0c0009a8	jal	_exitsim
13706  0000bfcc  54000000	nop; not filled.
13707  0000bfd0  23bd0010	addi	r29,r29,#16
13708  0000bfd4  0800002c	j	L215_LF9
13709  0000bfd8  54000000	nop; not filled.
13710  0000bfdc          	L229_LF9:
13711  0000bfdc  23bdfff8	addi	r29,r29,#-8
13712  0000bfe0  3c070001	lhi	r7,((LC15_LF9)>>16)&0xffff
13713  0000bfe4  24e75e3c	addui	r7,r7,(LC15_LF9)&0xffff
13714  0000bfe8          	L246_LF9:
13715  0000bfe8  afa70000	sw	(r29),r7
13716  0000bfec  afa20004	sw	4(r29),r2
13717  0000bff0  0c000998	jal	_printf
13718  0000bff4  54000000	nop; not filled.
13719  0000bff8  0c000978	jal	_exitsim
13720  0000bffc  54000000	nop; not filled.
13721  0000c000          	L235_LF9:
13722  0000c000  23bd0008	addi	r29,r29,#8
13723  0000c004          	L215_LF9:
13724  0000c004  23bdfff8	addi	r29,r29,#-8
13725  0000c008  3c020001	lhi	r2,((_debugstr)>>16)&0xffff
13726  0000c00c  24421f50	addui	r2,r2,(_debugstr)&0xffff
13727  0000c010  afa20000	sw	(r29),r2
13728  0000c014  20070074	addi	r7,r0,#116
13729  0000c018  afa70004	sw	4(r29),r7
13730  0000c01c  0fff8a18	jal	_dindex
13731  0000c020  54000000	nop; not filled.
13732  0000c024  23bd0008	addi	r29,r29,#8
13733  0000c028  64210000	snei	r1,r1,#0
13734  0000c02c  1420002c	bnez	r1,L234_LF9
13735  0000c030  54000000	nop; not filled.
13736  0000c034  23bdfff8	addi	r29,r29,#-8
13737  0000c038  afa20000	sw	(r29),r2
13738  0000c03c  2007002b	addi	r7,r0,#43
13739  0000c040  afa70004	sw	4(r29),r7
13740  0000c044  0fff89f0	jal	_dindex
13741  0000c048  54000000	nop; not filled.
13742  0000c04c  23bd0008	addi	r29,r29,#8
13743  0000c050  64210000	snei	r1,r1,#0
13744  0000c054  10200020	beqz	r1,L233_LF9
13745  0000c058  54000000	nop; not filled.
13746  0000c05c          	L234_LF9:
13747  0000c05c  23bdfff8	addi	r29,r29,#-8
13748  0000c060  3c070001	lhi	r7,((LC16_LF9)>>16)&0xffff
13749  0000c064  24e75e74	addui	r7,r7,(LC16_LF9)&0xffff
13750  0000c068  afa70000	sw	(r29),r7
13751  0000c06c  0c00091c	jal	_printf
13752  0000c070  54000000	nop; not filled.
13753  0000c074  23bd0008	addi	r29,r29,#8
13754  0000c078          	L233_LF9:
13755  0000c078  0fff50ec	jal	_intrreturn
13756  0000c07c  54000000	nop; not filled.
13757  0000c080  8fa20000	lw	r2,0(r29)
13758  0000c084  8fa30004	lw	r3,4(r29)
13759  0000c088  8fa40008	lw	r4,8(r29)
13760  0000c08c  8fa5000c	lw	r5,12(r29)
13761  0000c090  8fa60010	lw	r6,16(r29)
13762  0000c094  8fa70014	lw	r7,20(r29)
13763  0000c098  8fdffff8	lw	r31,-8(r30)
13764  0000c09c  001ee820	add	r29,r0,r30
13765  0000c0a0  8fdefffc	lw	r30,-4(r30)
13766  0000c0a4  4be00000	jr	r31
13767  0000c0a8  54000000	nop
13768  0000c0ac          	.endproc _dointerrupt
13769                      ; Compiled by GCC
13771  0000c0ac          	.align 2
13772  0000c0ac          	.proc _isspace
13773  0000c0ac          	.global _isspace
13774  0000c0ac          	_isspace:
13775                      ;  Function 'isspace'; 0 bytes of locals, 1 regs to save.
13776  0000c0ac  afbefffc	sw	-4(r29),r30; push fp
13777  0000c0b0  001df020	add	r30,r0,r29; fp = sp
13778  0000c0b4  afbffff8	sw	-8(r29),r31; push ret addr
13779  0000c0b8  2fbd0010	subui	r29,r29,#16; alloc local storage
13780  0000c0bc  afa20000	sw	0(r29),r2
13781  0000c0c0  83c20003	lb	r2,3(r30)
13782  0000c0c4  201f0000	addi	r31,r0,#0
13783  0000c0c8  304100ff	andi	r1,r2,#0x00ff
13784  0000c0cc  60210020	seqi	r1,r1,#32
13785  0000c0d0  14200018	bnez	r1,L6_LF10
13786  0000c0d4  54000000	nop; not filled.
13787  0000c0d8  2041fff7	addi	r1,r2,#-9
13788  0000c0dc  302100ff	andi	r1,r1,#0x00ff
13789  0000c0e0  70210001	sleui	r1,r1,#1
13790  0000c0e4  10200008	beqz	r1,L5_LF10
13791  0000c0e8  54000000	nop; not filled.
13792  0000c0ec          	L6_LF10:
13793  0000c0ec  201f0001	addi	r31,r0,#1
13794  0000c0f0          	L5_LF10:
13795  0000c0f0  001f0820	add	r1,r0,r31
13796  0000c0f4  8fa20000	lw	r2,0(r29)
13797  0000c0f8  8fdffff8	lw	r31,-8(r30)
13798  0000c0fc  001ee820	add	r29,r0,r30
13799  0000c100  8fdefffc	lw	r30,-4(r30)
13800  0000c104  4be00000	jr	r31
13801  0000c108  54000000	nop
13802  0000c10c          	.endproc _isspace
13803  0000c10c          	.align 2
13804  0000c10c          	.proc _isxdigit
13805  0000c10c          	.global _isxdigit
13806  0000c10c          	_isxdigit:
13807                      ;  Function 'isxdigit'; 0 bytes of locals, 1 regs to save.
13808  0000c10c  afbefffc	sw	-4(r29),r30; push fp
13809  0000c110  001df020	add	r30,r0,r29; fp = sp
13810  0000c114  afbffff8	sw	-8(r29),r31; push ret addr
13811  0000c118  2fbd0010	subui	r29,r29,#16; alloc local storage
13812  0000c11c  afa20000	sw	0(r29),r2
13813  0000c120  83df0003	lb	r31,3(r30)
13814  0000c124  20020000	addi	r2,r0,#0
13815  0000c128  23e1ffd0	addi	r1,r31,#-48
13816  0000c12c  302100ff	andi	r1,r1,#0x00ff
13817  0000c130  70210009	sleui	r1,r1,#9
13818  0000c134  14200028	bnez	r1,L12_LF10
13819  0000c138  54000000	nop; not filled.
13820  0000c13c  23e1ff9f	addi	r1,r31,#-97
13821  0000c140  302100ff	andi	r1,r1,#0x00ff
13822  0000c144  70210005	sleui	r1,r1,#5
13823  0000c148  14200014	bnez	r1,L12_LF10
13824  0000c14c  54000000	nop; not filled.
13825  0000c150  33e100ff	andi	r1,r31,#0x00ff
13826  0000c154  64210041	snei	r1,r1,#65
13827  0000c158  14200008	bnez	r1,L11_LF10
13828  0000c15c  54000000	nop; not filled.
13829  0000c160          	L12_LF10:
13830  0000c160  20020001	addi	r2,r0,#1
13831  0000c164          	L11_LF10:
13832  0000c164  00020820	add	r1,r0,r2
13833  0000c168  8fa20000	lw	r2,0(r29)
13834  0000c16c  8fdffff8	lw	r31,-8(r30)
13835  0000c170  001ee820	add	r29,r0,r30
13836  0000c174  8fdefffc	lw	r30,-4(r30)
13837  0000c178  4be00000	jr	r31
13838  0000c17c  54000000	nop
13839  0000c180          	.endproc _isxdigit
13840  0000c180          	.align 2
13841  0000c180          	.proc _DisableIntrs
13842  0000c180          	.global _DisableIntrs
13843  0000c180          	_DisableIntrs:
13844                      ;  Function 'DisableIntrs'; 0 bytes of locals, 1 regs to save.
13845  0000c180  afbefffc	sw	-4(r29),r30; push fp
13846  0000c184  001df020	add	r30,r0,r29; fp = sp
13847  0000c188  afbffff8	sw	-8(r29),r31; push ret addr
13848  0000c18c  2fbd0010	subui	r29,r29,#16; alloc local storage
13849  0000c190  afa20000	sw	0(r29),r2
13850  0000c194  23bdfff8	addi	r29,r29,#-8
13851  0000c198  2002000f	addi	r2,r0,#15
13852  0000c19c  afa20000	sw	(r29),r2
13853  0000c1a0  0fff50e4	jal	_SetIntrs
13854  0000c1a4  54000000	nop; not filled.
13855  0000c1a8  23bd0008	addi	r29,r29,#8
13856  0000c1ac  8fa20000	lw	r2,0(r29)
13857  0000c1b0  8fdffff8	lw	r31,-8(r30)
13858  0000c1b4  001ee820	add	r29,r0,r30
13859  0000c1b8  8fdefffc	lw	r30,-4(r30)
13860  0000c1bc  4be00000	jr	r31
13861  0000c1c0  54000000	nop
13862  0000c1c4          	.endproc _DisableIntrs
13863  0000c1c4          	.align 2
13864  0000c1c4          	.proc _EnableIntrs
13865  0000c1c4          	.global _EnableIntrs
13866  0000c1c4          	_EnableIntrs:
13867                      ;  Function 'EnableIntrs'; 0 bytes of locals, 1 regs to save.
13868  0000c1c4  afbefffc	sw	-4(r29),r30; push fp
13869  0000c1c8  001df020	add	r30,r0,r29; fp = sp
13870  0000c1cc  afbffff8	sw	-8(r29),r31; push ret addr
13871  0000c1d0  2fbd0010	subui	r29,r29,#16; alloc local storage
13872  0000c1d4  afa20000	sw	0(r29),r2
13873  0000c1d8  23bdfff8	addi	r29,r29,#-8
13874  0000c1dc  20020000	addi	r2,r0,#0
13875  0000c1e0  afa20000	sw	(r29),r2
13876  0000c1e4  0fff50a0	jal	_SetIntrs
13877  0000c1e8  54000000	nop; not filled.
13878  0000c1ec  23bd0008	addi	r29,r29,#8
13879  0000c1f0  8fa20000	lw	r2,0(r29)
13880  0000c1f4  8fdffff8	lw	r31,-8(r30)
13881  0000c1f8  001ee820	add	r29,r0,r30
13882  0000c1fc  8fdefffc	lw	r30,-4(r30)
13883  0000c200  4be00000	jr	r31
13884  0000c204  54000000	nop
13885  0000c208          	.endproc _EnableIntrs
13886  0000c208          	.align 2
13887  0000c208          	.proc _RestoreIntrs
13888  0000c208          	.global _RestoreIntrs
13889  0000c208          	_RestoreIntrs:
13890                      ;  Function 'RestoreIntrs'; 0 bytes of locals, 1 regs to save.
13891  0000c208  afbefffc	sw	-4(r29),r30; push fp
13892  0000c20c  001df020	add	r30,r0,r29; fp = sp
13893  0000c210  afbffff8	sw	-8(r29),r31; push ret addr
13894  0000c214  2fbd0010	subui	r29,r29,#16; alloc local storage
13895  0000c218  afa20000	sw	0(r29),r2
13896  0000c21c  23bdfff8	addi	r29,r29,#-8
13897  0000c220  8fc20000	lw	r2,(r30)
13898  0000c224  afa20000	sw	(r29),r2
13899  0000c228  0fff505c	jal	_SetIntrs
13900  0000c22c  54000000	nop; not filled.
13901  0000c230  23bd0008	addi	r29,r29,#8
13902  0000c234  8fa20000	lw	r2,0(r29)
13903  0000c238  8fdffff8	lw	r31,-8(r30)
13904  0000c23c  001ee820	add	r29,r0,r30
13905  0000c240  8fdefffc	lw	r30,-4(r30)
13906  0000c244  4be00000	jr	r31
13907  0000c248  54000000	nop
13908  0000c24c          	.endproc _RestoreIntrs
13909  0000c24c          	.align 2
13910  0000c24c          	.proc _QueueLinkInit
13911  0000c24c          	.global _QueueLinkInit
13912  0000c24c          	_QueueLinkInit:
13913                      ;  Function 'QueueLinkInit'; 0 bytes of locals, 1 regs to save.
13914  0000c24c  afbefffc	sw	-4(r29),r30; push fp
13915  0000c250  001df020	add	r30,r0,r29; fp = sp
13916  0000c254  afbffff8	sw	-8(r29),r31; push ret addr
13917  0000c258  2fbd0010	subui	r29,r29,#16; alloc local storage
13918  0000c25c  afa20000	sw	0(r29),r2
13919  0000c260  8fc10000	lw	r1,(r30)
13920  0000c264  8fc20004	lw	r2,4(r30)
13921  0000c268  201f0000	addi	r31,r0,#0
13922  0000c26c  ac3f0000	sw	(r1),r31
13923  0000c270  ac22000c	sw	12(r1),r2
13924  0000c274  8fa20000	lw	r2,0(r29)
13925  0000c278  8fdffff8	lw	r31,-8(r30)
13926  0000c27c  001ee820	add	r29,r0,r30
13927  0000c280  8fdefffc	lw	r30,-4(r30)
13928  0000c284  4be00000	jr	r31
13929  0000c288  54000000	nop
13930  0000c28c          	.endproc _QueueLinkInit
13931  0000c28c          	.align 2
13932  0000c28c          	.proc _QueueNext
13933  0000c28c          	.global _QueueNext
13934  0000c28c          	_QueueNext:
13935                      ;  Function 'QueueNext'; 0 bytes of locals, 0 regs to save.
13936  0000c28c  afbefffc	sw	-4(r29),r30; push fp
13937  0000c290  001df020	add	r30,r0,r29; fp = sp
13938  0000c294  afbffff8	sw	-8(r29),r31; push ret addr
13939  0000c298  2fbd0008	subui	r29,r29,#8; alloc local storage
13940  0000c29c  8fc10000	lw	r1,(r30)
13941  0000c2a0  8c210000	lw	r1,(r1)
13942  0000c2a4  8fdffff8	lw	r31,-8(r30)
13943  0000c2a8  001ee820	add	r29,r0,r30
13944  0000c2ac  8fdefffc	lw	r30,-4(r30)
13945  0000c2b0  4be00000	jr	r31
13946  0000c2b4  54000000	nop
13947  0000c2b8          	.endproc _QueueNext
13948  0000c2b8          	.align 2
13949  0000c2b8          	.proc _QueuePrev
13950  0000c2b8          	.global _QueuePrev
13951  0000c2b8          	_QueuePrev:
13952                      ;  Function 'QueuePrev'; 0 bytes of locals, 0 regs to save.
13953  0000c2b8  afbefffc	sw	-4(r29),r30; push fp
13954  0000c2bc  001df020	add	r30,r0,r29; fp = sp
13955  0000c2c0  afbffff8	sw	-8(r29),r31; push ret addr
13956  0000c2c4  2fbd0008	subui	r29,r29,#8; alloc local storage
13957  0000c2c8  8fc10000	lw	r1,(r30)
13958  0000c2cc  8c210004	lw	r1,4(r1)
13959  0000c2d0  8fdffff8	lw	r31,-8(r30)
13960  0000c2d4  001ee820	add	r29,r0,r30
13961  0000c2d8  8fdefffc	lw	r30,-4(r30)
13962  0000c2dc  4be00000	jr	r31
13963  0000c2e0  54000000	nop
13964  0000c2e4          	.endproc _QueuePrev
13965  0000c2e4          	.align 2
13966  0000c2e4          	.proc _QueueFirst
13967  0000c2e4          	.global _QueueFirst
13968  0000c2e4          	_QueueFirst:
13969                      ;  Function 'QueueFirst'; 0 bytes of locals, 0 regs to save.
13970  0000c2e4  afbefffc	sw	-4(r29),r30; push fp
13971  0000c2e8  001df020	add	r30,r0,r29; fp = sp
13972  0000c2ec  afbffff8	sw	-8(r29),r31; push ret addr
13973  0000c2f0  2fbd0008	subui	r29,r29,#8; alloc local storage
13974  0000c2f4  8fc10000	lw	r1,(r30)
13975  0000c2f8  8c210000	lw	r1,(r1)
13976  0000c2fc  8fdffff8	lw	r31,-8(r30)
13977  0000c300  001ee820	add	r29,r0,r30
13978  0000c304  8fdefffc	lw	r30,-4(r30)
13979  0000c308  4be00000	jr	r31
13980  0000c30c  54000000	nop
13981  0000c310          	.endproc _QueueFirst
13982  0000c310          	.align 2
13983  0000c310          	.proc _QueueLast
13984  0000c310          	.global _QueueLast
13985  0000c310          	_QueueLast:
13986                      ;  Function 'QueueLast'; 0 bytes of locals, 0 regs to save.
13987  0000c310  afbefffc	sw	-4(r29),r30; push fp
13988  0000c314  001df020	add	r30,r0,r29; fp = sp
13989  0000c318  afbffff8	sw	-8(r29),r31; push ret addr
13990  0000c31c  2fbd0008	subui	r29,r29,#8; alloc local storage
13991  0000c320  8fc10000	lw	r1,(r30)
13992  0000c324  8c210004	lw	r1,4(r1)
13993  0000c328  8fdffff8	lw	r31,-8(r30)
13994  0000c32c  001ee820	add	r29,r0,r30
13995  0000c330  8fdefffc	lw	r30,-4(r30)
13996  0000c334  4be00000	jr	r31
13997  0000c338  54000000	nop
13998  0000c33c          	.endproc _QueueLast
13999  0000c33c          	.align 2
14000  0000c33c          	.proc _QueueInsertAfter
14001  0000c33c          	.global _QueueInsertAfter
14002  0000c33c          	_QueueInsertAfter:
14003                      ;  Function 'QueueInsertAfter'; 0 bytes of locals, 2 regs to save.
14004  0000c33c  afbefffc	sw	-4(r29),r30; push fp
14005  0000c340  001df020	add	r30,r0,r29; fp = sp
14006  0000c344  afbffff8	sw	-8(r29),r31; push ret addr
14007  0000c348  2fbd0010	subui	r29,r29,#16; alloc local storage
14008  0000c34c  afa20000	sw	0(r29),r2
14009  0000c350  afa30004	sw	4(r29),r3
14010  0000c354  8fc30000	lw	r3,(r30)
14011  0000c358  8fc20004	lw	r2,4(r30)
14012  0000c35c  8fc10008	lw	r1,8(r30)
14013  0000c360  ac230008	sw	8(r1),r3
14014  0000c364  ac220004	sw	4(r1),r2
14015  0000c368  8c5f0000	lw	r31,(r2)
14016  0000c36c  ac3f0000	sw	(r1),r31
14017  0000c370  ac410000	sw	(r2),r1
14018  0000c374  8c220000	lw	r2,(r1)
14019  0000c378  ac410004	sw	4(r2),r1
14020  0000c37c  8c610008	lw	r1,8(r3)
14021  0000c380  20210001	addi	r1,r1,#1
14022  0000c384  ac610008	sw	8(r3),r1
14023  0000c388  8fa20000	lw	r2,0(r29)
14024  0000c38c  8fa30004	lw	r3,4(r29)
14025  0000c390  8fdffff8	lw	r31,-8(r30)
14026  0000c394  001ee820	add	r29,r0,r30
14027  0000c398  8fdefffc	lw	r30,-4(r30)
14028  0000c39c  4be00000	jr	r31
14029  0000c3a0  54000000	nop
14030  0000c3a4          	.endproc _QueueInsertAfter
14031  0000c3a4          	.align 2
14032  0000c3a4          	.proc _QueueInsertFirst
14033  0000c3a4          	.global _QueueInsertFirst
14034  0000c3a4          	_QueueInsertFirst:
14035                      ;  Function 'QueueInsertFirst'; 0 bytes of locals, 2 regs to save.
14036  0000c3a4  afbefffc	sw	-4(r29),r30; push fp
14037  0000c3a8  001df020	add	r30,r0,r29; fp = sp
14038  0000c3ac  afbffff8	sw	-8(r29),r31; push ret addr
14039  0000c3b0  2fbd0010	subui	r29,r29,#16; alloc local storage
14040  0000c3b4  afa20000	sw	0(r29),r2
14041  0000c3b8  afa30004	sw	4(r29),r3
14042  0000c3bc  8fc30000	lw	r3,(r30)
14043  0000c3c0  8fc10004	lw	r1,4(r30)
14044  0000c3c4  ac230008	sw	8(r1),r3
14045  0000c3c8  ac230004	sw	4(r1),r3
14046  0000c3cc  8c7f0000	lw	r31,(r3)
14047  0000c3d0  ac3f0000	sw	(r1),r31
14048  0000c3d4  ac610000	sw	(r3),r1
14049  0000c3d8  8c220000	lw	r2,(r1)
14050  0000c3dc  ac410004	sw	4(r2),r1
14051  0000c3e0  8c610008	lw	r1,8(r3)
14052  0000c3e4  20210001	addi	r1,r1,#1
14053  0000c3e8  ac610008	sw	8(r3),r1
14054  0000c3ec  8fa20000	lw	r2,0(r29)
14055  0000c3f0  8fa30004	lw	r3,4(r29)
14056  0000c3f4  8fdffff8	lw	r31,-8(r30)
14057  0000c3f8  001ee820	add	r29,r0,r30
14058  0000c3fc  8fdefffc	lw	r30,-4(r30)
14059  0000c400  4be00000	jr	r31
14060  0000c404  54000000	nop
14061  0000c408          	.endproc _QueueInsertFirst
14062  0000c408          	.align 2
14063  0000c408          	.proc _QueueInsertLast
14064  0000c408          	.global _QueueInsertLast
14065  0000c408          	_QueueInsertLast:
14066                      ;  Function 'QueueInsertLast'; 0 bytes of locals, 2 regs to save.
14067  0000c408  afbefffc	sw	-4(r29),r30; push fp
14068  0000c40c  001df020	add	r30,r0,r29; fp = sp
14069  0000c410  afbffff8	sw	-8(r29),r31; push ret addr
14070  0000c414  2fbd0010	subui	r29,r29,#16; alloc local storage
14071  0000c418  afa20000	sw	0(r29),r2
14072  0000c41c  afa30004	sw	4(r29),r3
14073  0000c420  8fc30000	lw	r3,(r30)
14074  0000c424  8fc10004	lw	r1,4(r30)
14075  0000c428  8c620004	lw	r2,4(r3)
14076  0000c42c  ac230008	sw	8(r1),r3
14077  0000c430  ac220004	sw	4(r1),r2
14078  0000c434  8c5f0000	lw	r31,(r2)
14079  0000c438  ac3f0000	sw	(r1),r31
14080  0000c43c  ac410000	sw	(r2),r1
14081  0000c440  8c220000	lw	r2,(r1)
14082  0000c444  ac410004	sw	4(r2),r1
14083  0000c448  8c610008	lw	r1,8(r3)
14084  0000c44c  20210001	addi	r1,r1,#1
14085  0000c450  ac610008	sw	8(r3),r1
14086  0000c454  8fa20000	lw	r2,0(r29)
14087  0000c458  8fa30004	lw	r3,4(r29)
14088  0000c45c  8fdffff8	lw	r31,-8(r30)
14089  0000c460  001ee820	add	r29,r0,r30
14090  0000c464  8fdefffc	lw	r30,-4(r30)
14091  0000c468  4be00000	jr	r31
14092  0000c46c  54000000	nop
14093  0000c470          	.endproc _QueueInsertLast
14094  0000c470          	.align 2
14095  0000c470          	.proc _QueueRemove
14096  0000c470          	.global _QueueRemove
14097  0000c470          	_QueueRemove:
14098                      ;  Function 'QueueRemove'; 0 bytes of locals, 2 regs to save.
14099  0000c470  afbefffc	sw	-4(r29),r30; push fp
14100  0000c474  001df020	add	r30,r0,r29; fp = sp
14101  0000c478  afbffff8	sw	-8(r29),r31; push ret addr
14102  0000c47c  2fbd0010	subui	r29,r29,#16; alloc local storage
14103  0000c480  afa20000	sw	0(r29),r2
14104  0000c484  afa30004	sw	4(r29),r3
14105  0000c488  8fdf0000	lw	r31,(r30)
14106  0000c48c  8fe10008	lw	r1,8(r31)
14107  0000c490  8c210008	lw	r1,8(r1)
14108  0000c494  6c210000	sgti	r1,r1,#0
14109  0000c498  1020002c	beqz	r1,L44_LF10
14110  0000c49c  54000000	nop; not filled.
14111  0000c4a0  8fe10004	lw	r1,4(r31)
14112  0000c4a4  8fe30000	lw	r3,(r31)
14113  0000c4a8  ac230000	sw	(r1),r3
14114  0000c4ac  8fe10000	lw	r1,(r31)
14115  0000c4b0  8fe30004	lw	r3,4(r31)
14116  0000c4b4  ac230004	sw	4(r1),r3
14117  0000c4b8  8fe20008	lw	r2,8(r31)
14118  0000c4bc  8c410008	lw	r1,8(r2)
14119  0000c4c0  2021ffff	addi	r1,r1,#-1
14120  0000c4c4  ac410008	sw	8(r2),r1
14121  0000c4c8          	L44_LF10:
14122  0000c4c8  20030000	addi	r3,r0,#0
14123  0000c4cc  afe30000	sw	(r31),r3
14124  0000c4d0  8fa20000	lw	r2,0(r29)
14125  0000c4d4  8fa30004	lw	r3,4(r29)
14126  0000c4d8  8fdffff8	lw	r31,-8(r30)
14127  0000c4dc  001ee820	add	r29,r0,r30
14128  0000c4e0  8fdefffc	lw	r30,-4(r30)
14129  0000c4e4  4be00000	jr	r31
14130  0000c4e8  54000000	nop
14131  0000c4ec          	.endproc _QueueRemove
14132  0000c4ec          	.align 2
14133  0000c4ec          	.proc _QueueLength
14134  0000c4ec          	.global _QueueLength
14135  0000c4ec          	_QueueLength:
14136                      ;  Function 'QueueLength'; 0 bytes of locals, 0 regs to save.
14137  0000c4ec  afbefffc	sw	-4(r29),r30; push fp
14138  0000c4f0  001df020	add	r30,r0,r29; fp = sp
14139  0000c4f4  afbffff8	sw	-8(r29),r31; push ret addr
14140  0000c4f8  2fbd0008	subui	r29,r29,#8; alloc local storage
14141  0000c4fc  8fc10000	lw	r1,(r30)
14142  0000c500  8c210008	lw	r1,8(r1)
14143  0000c504  8fdffff8	lw	r31,-8(r30)
14144  0000c508  001ee820	add	r29,r0,r30
14145  0000c50c  8fdefffc	lw	r30,-4(r30)
14146  0000c510  4be00000	jr	r31
14147  0000c514  54000000	nop
14148  0000c518          	.endproc _QueueLength
14149  0000c518          	.align 2
14150  0000c518          	.proc _QueueEmpty
14151  0000c518          	.global _QueueEmpty
14152  0000c518          	_QueueEmpty:
14153                      ;  Function 'QueueEmpty'; 0 bytes of locals, 0 regs to save.
14154  0000c518  afbefffc	sw	-4(r29),r30; push fp
14155  0000c51c  001df020	add	r30,r0,r29; fp = sp
14156  0000c520  afbffff8	sw	-8(r29),r31; push ret addr
14157  0000c524  2fbd0008	subui	r29,r29,#8; alloc local storage
14158  0000c528  8fc10000	lw	r1,(r30)
14159  0000c52c  8c210008	lw	r1,8(r1)
14160  0000c530  60210000	seqi	r1,r1,#0
14161  0000c534  8fdffff8	lw	r31,-8(r30)
14162  0000c538  001ee820	add	r29,r0,r30
14163  0000c53c  8fdefffc	lw	r30,-4(r30)
14164  0000c540  4be00000	jr	r31
14165  0000c544  54000000	nop
14166  0000c548          	.endproc _QueueEmpty
14167  0000c548          	.data
14168  00015e97          	.align 2
14169  00015e98          	LC0_LF10:
14170  00015e98  50726f63	.ascii "Process #\000"
14170  00015e9c  65737320	
14170  00015ea0  2300    	
14171  00015ea2          	.align 2
14172  00015ea4          	LC1_LF10:
14173  00015ea4  52756e6e	.ascii "Running process %d (iteration %d)!\n\000"
14173  00015ea8  696e6720	
14173  00015eac  70726f63	
14173  00015eb0  65737320	
14173  00015eb4  25642028	
14173  00015eb8  69746572	
14173  00015ebc  6174696f	
14173  00015ec0  6e202564	
14173  00015ec4  29210a00	
14174  00015ec8          	.text
14175  0000c548          	.align 2
14176  0000c548          	.proc _doSomething_LF10
14177  0000c548          	_doSomething_LF10:
14178                      ;  Function 'doSomething'; 80 bytes of locals, 7 regs to save.
14179  0000c548  afbefffc	sw	-4(r29),r30; push fp
14180  0000c54c  001df020	add	r30,r0,r29; fp = sp
14181  0000c550  afbffff8	sw	-8(r29),r31; push ret addr
14182  0000c554  2fbd0078	subui	r29,r29,#120; alloc local storage
14183  0000c558  afa20000	sw	0(r29),r2
14184  0000c55c  afa30004	sw	4(r29),r3
14185  0000c560  afa40008	sw	8(r29),r4
14186  0000c564  afa5000c	sw	12(r29),r5
14187  0000c568  afa60010	sw	16(r29),r6
14188  0000c56c  afa70014	sw	20(r29),r7
14189  0000c570  afa80018	sw	24(r29),r8
14190  0000c574  8fc60000	lw	r6,(r30)
14191  0000c578  2001000a	addi	r1,r0,#10
14192  0000c57c  00c00035	movi2fp	f0,r6
14193  0000c580  00200835	movi2fp	f1,r1
14194  0000c584  0401000f	div	f0,f0,f1
14195  0000c588  00001034	movfp2i	r2,f0
14196  0000c58c  50410002	slli	r1,r2,#0x2
14197  0000c590  00220820	add	r1,r1,r2
14198  0000c594  50210001	slli	r1,r1,#0x1
14199  0000c598  00c13822	sub	r7,r6,r1
14200  0000c59c  70c10063	slei	r1,r6,#99
14201  0000c5a0  102000dc	beqz	r1,L52_LF10
14202  0000c5a4  54000000	nop; not filled.
14203  0000c5a8  23bdfff8	addi	r29,r29,#-8
14204  0000c5ac  50e10002	slli	r1,r7,#0x2
14205  0000c5b0  00270820	add	r1,r1,r7
14206  0000c5b4  50210002	slli	r1,r1,#0x2
14207  0000c5b8  3c080001	lhi	r8,((_mysems_LF10)>>16)&0xffff
14208  0000c5bc  25085f3c	addui	r8,r8,(_mysems_LF10)&0xffff
14209  0000c5c0  00280820	add	r1,r1,r8
14210  0000c5c4  afa10000	sw	(r29),r1
14211  0000c5c8  20080001	addi	r8,r0,#1
14212  0000c5cc  afa80004	sw	4(r29),r8
14213  0000c5d0  0fffce08	jal	_SemInit
14214  0000c5d4  54000000	nop; not filled.
14215  0000c5d8  20030001	addi	r3,r0,#1
14216  0000c5dc  23bd0008	addi	r29,r29,#8
14217  0000c5e0  23c4ffd0	addi	r4,r30,#-48
14218  0000c5e4  23c5ffa8	addi	r5,r30,#-88
14219  0000c5e8  00061020	add	r2,r0,r6
14220  0000c5ec          	L56_LF10:
14221  0000c5ec  23bdfff8	addi	r29,r29,#-8
14222  0000c5f0  afa40000	sw	(r29),r4
14223  0000c5f4  3c080001	lhi	r8,((LC0_LF10)>>16)&0xffff
14224  0000c5f8  25085e98	addui	r8,r8,(LC0_LF10)&0xffff
14225  0000c5fc  afa80004	sw	4(r29),r8
14226  0000c600  0fff7f74	jal	_dstrcpy
14227  0000c604  54000000	nop; not filled.
14228  0000c608  afa30000	sw	(r29),r3
14229  0000c60c  afa50004	sw	4(r29),r5
14230  0000c610  0fff84a0	jal	_ditoa
14231  0000c614  54000000	nop; not filled.
14232  0000c618  afa40000	sw	(r29),r4
14233  0000c61c  afa50004	sw	4(r29),r5
14234  0000c620  0fff8044	jal	_dstrcat
14235  0000c624  54000000	nop; not filled.
14236  0000c628  23bdfff8	addi	r29,r29,#-8
14237  0000c62c  3c080000	lhi	r8,((_doSomething_LF10)>>16)&0xffff
14238  0000c630  2508c548	addui	r8,r8,(_doSomething_LF10)&0xffff
14239  0000c634  afa80000	sw	(r29),r8
14240  0000c638  50410005	slli	r1,r2,#0x5
14241  0000c63c  00220822	sub	r1,r1,r2
14242  0000c640  50210002	slli	r1,r1,#0x2
14243  0000c644  00220820	add	r1,r1,r2
14244  0000c648  50210003	slli	r1,r1,#0x3
14245  0000c64c  00260820	add	r1,r1,r6
14246  0000c650  afa10004	sw	4(r29),r1
14247  0000c654  afa40008	sw	8(r29),r4
14248  0000c658  20080000	addi	r8,r0,#0
14249  0000c65c  afa8000c	sw	12(r29),r8
14250  0000c660  0fff9abc	jal	_ProcessFork
14251  0000c664  54000000	nop; not filled.
14252  0000c668  23bd0010	addi	r29,r29,#16
14253  0000c66c  00461020	add	r2,r2,r6
14254  0000c670  20630001	addi	r3,r3,#1
14255  0000c674  70610006	slei	r1,r3,#6
14256  0000c678  1420ff70	bnez	r1,L56_LF10
14257  0000c67c  54000000	nop; not filled.
14258  0000c680          	L52_LF10:
14259  0000c680  23bdfff8	addi	r29,r29,#-8
14260  0000c684  50e10002	slli	r1,r7,#0x2
14261  0000c688  00270820	add	r1,r1,r7
14262  0000c68c  50210002	slli	r1,r1,#0x2
14263  0000c690  3c080001	lhi	r8,((_mysems_LF10)>>16)&0xffff
14264  0000c694  25085f3c	addui	r8,r8,(_mysems_LF10)&0xffff
14265  0000c698  00280820	add	r1,r1,r8
14266  0000c69c  afa10000	sw	(r29),r1
14267  0000c6a0  0fffce94	jal	_SemWait
14268  0000c6a4  54000000	nop; not filled.
14269  0000c6a8  20030000	addi	r3,r0,#0
14270  0000c6ac  23bd0008	addi	r29,r29,#8
14271  0000c6b0  50c20001	slli	r2,r6,#0x1
14272  0000c6b4  0062082a	slt	r1,r3,r2
14273  0000c6b8  10200070	beqz	r1,L59_LF10
14274  0000c6bc  54000000	nop; not filled.
14275  0000c6c0  200503e8	addi	r5,r0,#1000
14276  0000c6c4  00022020	add	r4,r0,r2
14277  0000c6c8          	L61_LF10:
14278  0000c6c8  00600035	movi2fp	f0,r3
14279  0000c6cc  00a00835	movi2fp	f1,r5
14280  0000c6d0  0401000f	div	f0,f0,f1
14281  0000c6d4  00001034	movfp2i	r2,f0
14282  0000c6d8  50410005	slli	r1,r2,#0x5
14283  0000c6dc  00220822	sub	r1,r1,r2
14284  0000c6e0  50210002	slli	r1,r1,#0x2
14285  0000c6e4  00220820	add	r1,r1,r2
14286  0000c6e8  50210003	slli	r1,r1,#0x3
14287  0000c6ec  00610829	sne	r1,r3,r1
14288  0000c6f0  14200028	bnez	r1,L62_LF10
14289  0000c6f4  54000000	nop; not filled.
14290  0000c6f8  23bdfff0	addi	r29,r29,#-16
14291  0000c6fc  3c080001	lhi	r8,((LC1_LF10)>>16)&0xffff
14292  0000c700  25085ea4	addui	r8,r8,(LC1_LF10)&0xffff
14293  0000c704  afa80000	sw	(r29),r8
14294  0000c708  afa60004	sw	4(r29),r6
14295  0000c70c  afa30008	sw	8(r29),r3
14296  0000c710  0c000278	jal	_printf
14297  0000c714  54000000	nop; not filled.
14298  0000c718  23bd0010	addi	r29,r29,#16
14299  0000c71c          	L62_LF10:
14300  0000c71c  20630001	addi	r3,r3,#1
14301  0000c720  0064082a	slt	r1,r3,r4
14302  0000c724  1420ffa0	bnez	r1,L61_LF10
14303  0000c728  54000000	nop; not filled.
14304  0000c72c          	L59_LF10:
14305  0000c72c  23bdfff8	addi	r29,r29,#-8
14306  0000c730  50e10002	slli	r1,r7,#0x2
14307  0000c734  00270820	add	r1,r1,r7
14308  0000c738  50210002	slli	r1,r1,#0x2
14309  0000c73c  3c080001	lhi	r8,((_mysems_LF10)>>16)&0xffff
14310  0000c740  25085f3c	addui	r8,r8,(_mysems_LF10)&0xffff
14311  0000c744  00280820	add	r1,r1,r8
14312  0000c748  afa10000	sw	(r29),r1
14313  0000c74c  0fffd0f8	jal	_SemSignal
14314  0000c750  54000000	nop; not filled.
14315  0000c754  23bd0008	addi	r29,r29,#8
14316  0000c758  8fa20000	lw	r2,0(r29)
14317  0000c75c  8fa30004	lw	r3,4(r29)
14318  0000c760  8fa40008	lw	r4,8(r29)
14319  0000c764  8fa5000c	lw	r5,12(r29)
14320  0000c768  8fa60010	lw	r6,16(r29)
14321  0000c76c  8fa70014	lw	r7,20(r29)
14322  0000c770  8fa80018	lw	r8,24(r29)
14323  0000c774  8fdffff8	lw	r31,-8(r30)
14324  0000c778  001ee820	add	r29,r0,r30
14325  0000c77c  8fdefffc	lw	r30,-4(r30)
14326  0000c780  4be00000	jr	r31
14327  0000c784  54000000	nop
14328  0000c788          	.endproc _doSomething_LF10
14329  0000c788          	.data
14330  00015ec8          	.align 2
14331  00015ec8          	LC2_LF10:
14332  00015ec8  63686173	.ascii "chasetail\000"
14332  00015ecc  65746169	
14332  00015ed0  6c00    	
14333  00015ed2          	.align 2
14334  00015ed4          	LC3_LF10:
14335  00015ed4  43686173	.ascii "Chasing tail %d.\n\000"
14335  00015ed8  696e6720	
14335  00015edc  7461696c	
14335  00015ee0  2025642e	
14335  00015ee4  0a00    	
14336  00015ee6          	.align 2
14337  00015ee8          	LC4_LF10:
14338  00015ee8  4f70656e	.ascii "Open of (%s,0x%x) returns 0x%x.\n\000"
14338  00015eec  206f6620	
14338  00015ef0  2825732c	
14338  00015ef4  30782578	
14338  00015ef8  29207265	
14338  00015efc  7475726e	
14338  00015f00  73203078	
14338  00015f04  25782e0a	
14338  00015f08  00      	
14339  00015f09          	.align 2
14340  00015f0c          	LC5_LF10:
14341  00015f0c  43686173	.ascii "ChaseTail\000"
14341  00015f10  65546169	
14341  00015f14  6c00    	
14342  00015f16          	.text
14343  0000c788          	.align 2
14344  0000c788          	.proc _chaseTail_LF10
14345  0000c788          	_chaseTail_LF10:
14346                      ;  Function 'chaseTail'; 0 bytes of locals, 4 regs to save.
14347  0000c788  afbefffc	sw	-4(r29),r30; push fp
14348  0000c78c  001df020	add	r30,r0,r29; fp = sp
14349  0000c790  afbffff8	sw	-8(r29),r31; push ret addr
14350  0000c794  2fbd0018	subui	r29,r29,#24; alloc local storage
14351  0000c798  afa20000	sw	0(r29),r2
14352  0000c79c  afa30004	sw	4(r29),r3
14353  0000c7a0  afa40008	sw	8(r29),r4
14354  0000c7a4  afa5000c	sw	12(r29),r5
14355  0000c7a8  8fc40000	lw	r4,(r30)
14356  0000c7ac  3c030001	lhi	r3,((LC2_LF10)>>16)&0xffff
14357  0000c7b0  24635ec8	addui	r3,r3,(LC2_LF10)&0xffff
14358  0000c7b4  23bdfff8	addi	r29,r29,#-8
14359  0000c7b8  3c050001	lhi	r5,((LC3_LF10)>>16)&0xffff
14360  0000c7bc  24a55ed4	addui	r5,r5,(LC3_LF10)&0xffff
14361  0000c7c0  afa50000	sw	(r29),r5
14362  0000c7c4  afa40004	sw	4(r29),r4
14363  0000c7c8  0c0001c0	jal	_printf
14364  0000c7cc  54000000	nop; not filled.
14365  0000c7d0  afa30000	sw	(r29),r3
14366  0000c7d4  20822000	addi	r2,r4,#8192
14367  0000c7d8  afa20004	sw	4(r29),r2
14368  0000c7dc  0c000158	jal	_Open
14369  0000c7e0  54000000	nop; not filled.
14370  0000c7e4  23bdfff8	addi	r29,r29,#-8
14371  0000c7e8  3c050001	lhi	r5,((LC4_LF10)>>16)&0xffff
14372  0000c7ec  24a55ee8	addui	r5,r5,(LC4_LF10)&0xffff
14373  0000c7f0  afa50000	sw	(r29),r5
14374  0000c7f4  afa30004	sw	4(r29),r3
14375  0000c7f8  afa20008	sw	8(r29),r2
14376  0000c7fc  afa1000c	sw	12(r29),r1
14377  0000c800  0c000188	jal	_printf
14378  0000c804  54000000	nop; not filled.
14379  0000c808  23bd0010	addi	r29,r29,#16
14380  0000c80c  70810027	slei	r1,r4,#39
14381  0000c810  1020003c	beqz	r1,L67_LF10
14382  0000c814  54000000	nop; not filled.
14383  0000c818  23bdfff0	addi	r29,r29,#-16
14384  0000c81c  3c050000	lhi	r5,((_chaseTail_LF10)>>16)&0xffff
14385  0000c820  24a5c788	addui	r5,r5,(_chaseTail_LF10)&0xffff
14386  0000c824  afa50000	sw	(r29),r5
14387  0000c828  20810001	addi	r1,r4,#1
14388  0000c82c  afa10004	sw	4(r29),r1
14389  0000c830  3c050001	lhi	r5,((LC5_LF10)>>16)&0xffff
14390  0000c834  24a55f0c	addui	r5,r5,(LC5_LF10)&0xffff
14391  0000c838  afa50008	sw	8(r29),r5
14392  0000c83c  20050000	addi	r5,r0,#0
14393  0000c840  afa5000c	sw	12(r29),r5
14394  0000c844  0fff98d8	jal	_ProcessFork
14395  0000c848  54000000	nop; not filled.
14396  0000c84c  23bd0010	addi	r29,r29,#16
14397  0000c850          	L67_LF10:
14398  0000c850  8fa20000	lw	r2,0(r29)
14399  0000c854  8fa30004	lw	r3,4(r29)
14400  0000c858  8fa40008	lw	r4,8(r29)
14401  0000c85c  8fa5000c	lw	r5,12(r29)
14402  0000c860  8fdffff8	lw	r31,-8(r30)
14403  0000c864  001ee820	add	r29,r0,r30
14404  0000c868  8fdefffc	lw	r30,-4(r30)
14405  0000c86c  4be00000	jr	r31
14406  0000c870  54000000	nop
14407  0000c874          	.endproc _chaseTail_LF10
14408  0000c874          	.data
14409  00015f16          	.align 2
14410  00015f18          	LC6_LF10:
14411  00015f18  25642000	.ascii "%d \000"
14412  00015f1c          	.align 2
14413  00015f1c          	LC7_LF10:
14414  00015f1c  52616e64	.ascii "Random number %02i is 0x%08x.\n\000"
14414  00015f20  6f6d206e	
14414  00015f24  756d6265	
14414  00015f28  72202530	
14414  00015f2c  32692069	
14414  00015f30  73203078	
14414  00015f34  25303878	
14414  00015f38  2e0a00  	
14415  00015f3b          	.text
14416  0000c874          	.align 2
14417  0000c874          	.proc _SysprocCreateProcesses
14418  0000c874          	.global _SysprocCreateProcesses
14419  0000c874          	_SysprocCreateProcesses:
14420                      ;  Function 'SysprocCreateProcesses'; 0 bytes of locals, 3 regs to save.
14421  0000c874  afbefffc	sw	-4(r29),r30; push fp
14422  0000c878  001df020	add	r30,r0,r29; fp = sp
14423  0000c87c  afbffff8	sw	-8(r29),r31; push ret addr
14424  0000c880  2fbd0018	subui	r29,r29,#24; alloc local storage
14425  0000c884  afa20000	sw	0(r29),r2
14426  0000c888  afa30004	sw	4(r29),r3
14427  0000c88c  afa40008	sw	8(r29),r4
14428  0000c890  3c020001	lhi	r2,((_mysems_LF10)>>16)&0xffff
14429  0000c894  24425f3c	addui	r2,r2,(_mysems_LF10)&0xffff
14430  0000c898  204300b4	addi	r3,r2,#180
14431  0000c89c          	L90_LF10:
14432  0000c89c  23bdfff8	addi	r29,r29,#-8
14433  0000c8a0  afa20000	sw	(r29),r2
14434  0000c8a4  20040001	addi	r4,r0,#1
14435  0000c8a8  afa40004	sw	4(r29),r4
14436  0000c8ac  0fffcb2c	jal	_SemInit
14437  0000c8b0  54000000	nop; not filled.
14438  0000c8b4  23bd0008	addi	r29,r29,#8
14439  0000c8b8  20420014	addi	r2,r2,#20
14440  0000c8bc  0043082c	sle	r1,r2,r3
14441  0000c8c0  1420ffd8	bnez	r1,L90_LF10
14442  0000c8c4  54000000	nop; not filled.
14443  0000c8c8  8fa20000	lw	r2,0(r29)
14444  0000c8cc  8fa30004	lw	r3,4(r29)
14445  0000c8d0  8fa40008	lw	r4,8(r29)
14446  0000c8d4  8fdffff8	lw	r31,-8(r30)
14447  0000c8d8  001ee820	add	r29,r0,r30
14448  0000c8dc  8fdefffc	lw	r30,-4(r30)
14449  0000c8e0  4be00000	jr	r31
14450  0000c8e4  54000000	nop
14451  0000c8e8          	.endproc _SysprocCreateProcesses
14452  0000c8e8          	.data
14453  00015f3b          	.align 2
14454  00015f3c          	_mysems_LF10:
14455  00015f3c          	.space 200
14456                      ;;; This file just includes a single variable that contains the last address
14457                      ;;; in the operating system.  The rest of memory is available for use by
14458                      ;;; processes.
14460  00016004          	.align 2
14461  00016004          	.global _lastosaddress
14462  00016004          	_lastosaddress:
14463  00016004  0001600c	.word _lastosaddress+8
14464                      ;;; Ethan L. Miller, 1999.  Released to the public domain
14465                      ;;;
14466                      ;;; Most of the traps are called in files from libtraps.
14468  00016008          	.text
14469  0000c8e8          	.align 2
14470  0000c8e8          	.proc _exit
14471  0000c8e8          	.global _exit
14472  0000c8e8          	_exit:
14473  0000c8e8  44000300	trap	#0x300
14474  0000c8ec  4be00000	jr	r31
14475  0000c8f0  54000000	nop
14476  0000c8f4          	.endproc _exit
14478                      ; for the benefit of gcc.
14479  0000c8f4          	.proc ___main
14480  0000c8f4          	.global ___main
14481  0000c8f4          	___main:
14482  0000c8f4  4be00000	jr	r31
14483  0000c8f8  54000000	nop
14484  0000c8fc          	.endproc ___main
14485                      ;;;
14486                      ;;; Stub functions for DLX traps.
14487                      ;;;
14488                      ;;; Ethan L. Miller, 1999.  Released to the public domain.
14489                      ;;;
14490                      ;;; There are two sets of traps here.  The traps such as Open and Close
14491                      ;;; (note the capital letters) are for use by user programs.  The traps
14492                      ;;; with names such as open and close (lower case) are for use by the OS.
14493                      ;;;
14496  0000c8fc          	.align 2
14497  0000c8fc          	.proc _open
14498  0000c8fc          	.global _open
14499  0000c8fc          	_open:
14500  0000c8fc  44002013	trap	#0x2013
14501  0000c900  4be00000	jr	r31
14502  0000c904  54000000	nop
14503  0000c908          	.endproc _open
14505  0000c908          	.proc _close
14506  0000c908          	.global _close
14507  0000c908          	_close:
14508  0000c908  44002014	trap	#0x2014
14509  0000c90c  4be00000	jr	r31
14510  0000c910  54000000	nop
14511  0000c914          	.endproc _close
14513  0000c914          	.proc _read
14514  0000c914          	.global _read
14515  0000c914          	_read:
14516  0000c914  44002010	trap	#0x2010
14517  0000c918  4be00000	jr	r31
14518  0000c91c  54000000	nop
14519  0000c920          	.endproc _read
14521  0000c920          	.proc _write
14522  0000c920          	.global _write
14523  0000c920          	_write:
14524  0000c920  44002011	trap	#0x2011
14525  0000c924  4be00000	jr	r31
14526  0000c928  54000000	nop
14527  0000c92c          	.endproc _write
14529  0000c92c          	.proc _lseek
14530  0000c92c          	.global _lseek
14531  0000c92c          	_lseek:
14532  0000c92c  44002012	trap	#0x2012
14533  0000c930  4be00000	jr	r31
14534  0000c934  54000000	nop
14535  0000c938          	.endproc _lseek
14537                      ;;; The following are the traps to be used by user-level programs
14538                      ;;;
14540  0000c938          	.align 2
14541  0000c938          	.proc _Open
14542  0000c938          	.global _Open
14543  0000c938          	_Open:
14544  0000c938  44000213	trap	#0x213
14545  0000c93c  4be00000	jr	r31
14546  0000c940  54000000	nop
14547  0000c944          	.endproc _Open
14549  0000c944          	.proc _Close
14550  0000c944          	.global _Close
14551  0000c944          	_Close:
14552  0000c944  44000214	trap	#0x214
14553  0000c948  4be00000	jr	r31
14554  0000c94c  54000000	nop
14555  0000c950          	.endproc _Close
14557  0000c950          	.proc _Read
14558  0000c950          	.global _Read
14559  0000c950          	_Read:
14560  0000c950  44000210	trap	#0x210
14561  0000c954  4be00000	jr	r31
14562  0000c958  54000000	nop
14563  0000c95c          	.endproc _Read
14565  0000c95c          	.proc _Write
14566  0000c95c          	.global _Write
14567  0000c95c          	_Write:
14568  0000c95c  44000211	trap	#0x211
14569  0000c960  4be00000	jr	r31
14570  0000c964  54000000	nop
14571  0000c968          	.endproc _Write
14573  0000c968          	.proc _Lseek
14574  0000c968          	.global _Lseek
14575  0000c968          	_Lseek:
14576  0000c968  44000212	trap	#0x212
14577  0000c96c  4be00000	jr	r31
14578  0000c970  54000000	nop
14579  0000c974          	.endproc _Lseek
14581                      ;;;
14582                      ;;; Stub functions for DLX traps.
14583                      ;;;
14584                      ;;; Ethan L. Miller, 1999.  Released to the public domain.
14585                      ;;;
14586                      ;;; There are two exit traps.  The first, _exitsim, actually exits the
14587                      ;;; simulator.  The second, _exit, simply calls a regular trap in the
14588                      ;;; DLX simulator, and would be suitable for a user program that wants
14589                      ;;; to signal the OS that it's exiting.
14590                      ;;;
14591                      ;;; IMPORTANT: all code that's run "native" on the simulator - OS code and
14592                      ;;; programs run without an OS - should call exitsim() rather than just
14593                      ;;; falling through to exit.
14594                      ;;;
14597  0000c974          	.align 2
14598  0000c974          	.proc _exitsim
14599  0000c974          	.global _exitsim
14600  0000c974          	_exitsim:
14601  0000c974  44002f00	trap	#0x2f00
14602  0000c978  4be00000	jr	r31
14603  0000c97c  54000000	nop
14604  0000c980          	.endproc _exitsim
14606  0000c980          	.proc _exit
14607  0000c980          	.global _exit
14608  0000c980          	_exit:
14609  0000c980  44000300	trap	#0x300
14610  0000c984  4be00000	jr	r31
14611  0000c988  54000000	nop
14612  0000c98c          	.endproc _exit
14614                      ;
14615                      ; Stub functions for DLX traps.
14616                      ;
14617                      ; Aaron Sawdey 1996; released to the Public Domain.
14618                      ;
14620  0000c98c          	.proc _printf
14621  0000c98c          	.global _printf
14622  0000c98c          	_printf:
14623  0000c98c  44002001	trap	#0x2001
14624  0000c990  4be00000	jr	r31
14625  0000c994  54000000	nop
14626  0000c998          	.endproc _printf
14628  0000c998          	.text
14629  0000c998          	.global _etext
14630  0000c998          	_etext:
14631  0000c998          	.align 3
14632  0000c998          	.data
14633  00016008          	.global _edata
14634  00016008          	_edata:
